(lp0
(F120.782
F23.462
I2
cnumpy.core.multiarray
scalar
p1
(cnumpy
dtype
p2
(S'i4'
p3
I0
I1
tp4
Rp5
(I3
S'<'
p6
NNNI-1
I-1
I0
tp7
bS'\x03\x00\x00\x00'
p8
tp9
Rp10
tp11
a(F120.55
F23.517
I18
g1
(g5
S'\x03\x00\x00\x00'
p12
tp13
Rp14
tp15
a(F120.383
F23.433
I29
g1
(g5
S'\x04\x00\x00\x00'
p16
tp17
Rp18
tp19
a(F120.4242401
F23.4803964
I48
g1
(g5
S'\x00\x00\x00\x00'
p20
tp21
Rp22
tp23
a(F120.597
F23.319
I1
g1
(g5
S'\x06\x00\x00\x00'
p24
tp25
Rp26
tp27
a(F120.317
F23.467
I9
g1
(g5
S'\x04\x00\x00\x00'
p28
tp29
Rp30
tp31
a(F120.25
F23.5
I10
g1
(g5
S'\x01\x00\x00\x00'
p32
tp33
Rp34
tp35
a(F120.4491054
F23.4800663
I36
g1
(g5
S'\x00\x00\x00\x00'
p36
tp37
Rp38
tp39
a(F120.3
F23.417
I13
g1
(g5
S'\x04\x00\x00\x00'
p40
tp41
Rp42
tp43
a(F120.517
F23.417
I13
g1
(g5
S'\x06\x00\x00\x00'
p44
tp45
Rp46
tp47
a(F120.15
F23.383
I6
g1
(g5
S'\x05\x00\x00\x00'
p48
tp49
Rp50
tp51
a(F120.55
F23.467
I3
g1
(g5
S'\x06\x00\x00\x00'
p52
tp53
Rp54
tp55
a(F120.233
F23.467
I18
g1
(g5
S'\x01\x00\x00\x00'
p56
tp57
Rp58
tp59
a(F120.417
F23.55
I37
g1
(g5
S'\x02\x00\x00\x00'
p60
tp61
Rp62
tp63
a(F120.233
F23.333
I4
g1
(g5
S'\x05\x00\x00\x00'
p64
tp65
Rp66
tp67
a(F120.333
F23.55
I13
g1
(g5
S'\x01\x00\x00\x00'
p68
tp69
Rp70
tp71
a(F120.383
F23.6
I7
g1
(g5
S'\x02\x00\x00\x00'
p72
tp73
Rp74
tp75
a(F120.55
F23.583
I13
g1
(g5
S'\x03\x00\x00\x00'
p76
tp77
Rp78
tp79
a(F120.45
F23.6
I37
g1
(g5
S'\x02\x00\x00\x00'
p80
tp81
Rp82
tp83
a(F120.133
F23.45
I13
g1
(g5
S'\x05\x00\x00\x00'
p84
tp85
Rp86
tp87
a.