(lp0
(F121.067
F24.783
I11
cnumpy.core.multiarray
scalar
p1
(cnumpy
dtype
p2
(S'i4'
p3
I0
I1
tp4
Rp5
(I3
S'<'
p6
NNNI-1
I-1
I0
tp7
bS'\x00\x00\x00\x00'
p8
tp9
Rp10
tp11
a(F121.117
F24.633
I5
g1
(g5
S'\x02\x00\x00\x00'
p12
tp13
Rp14
tp15
a(F120.9333333333
F24.7666666667
I24
g1
(g5
S'\x05\x00\x00\x00'
p16
tp17
Rp18
tp19
a(F121.017
F24.683
I2
g1
(g5
S'\x02\x00\x00\x00'
p20
tp21
Rp22
tp23
a(F121.0
F24.833
I51
g1
(g5
S'\x01\x00\x00\x00'
p24
tp25
Rp26
tp27
a(F121.167
F24.8
I13
g1
(g5
S'\x04\x00\x00\x00'
p28
tp29
Rp30
tp31
a(F120.983
F24.767
I6
g1
(g5
S'\x01\x00\x00\x00'
p32
tp33
Rp34
tp35
a(F120.9474747
F24.8238676
I38
g1
(g5
S'\x06\x00\x00\x00'
p36
tp37
Rp38
tp39
a(F121.083
F24.733
I34
g1
(g5
S'\x02\x00\x00\x00'
p40
tp41
Rp42
tp43
a(F121.2
F24.717
I7
g1
(g5
S'\x04\x00\x00\x00'
p44
tp45
Rp46
tp47
a(F120.9933678
F24.7920604
I59
g1
(g5
S'\x01\x00\x00\x00'
p48
tp49
Rp50
tp51
a(F120.886264
F24.7849112
I1
g1
(g5
S'\x05\x00\x00\x00'
p52
tp53
Rp54
tp55
a(F121.033
F24.9
I23
g1
(g5
S'\x03\x00\x00\x00'
p56
tp57
Rp58
tp59
a(F121.067
F24.833
I18
g1
(g5
S'\x00\x00\x00\x00'
p60
tp61
Rp62
tp63
a(F121.117
F24.717
I7
g1
(g5
S'\x02\x00\x00\x00'
p64
tp65
Rp66
tp67
a(F120.983
F24.9
I19
g1
(g5
S'\x03\x00\x00\x00'
p68
tp69
Rp70
tp71
a.