(lp0
(F118.3169714
F24.4113998
I8
cnumpy.core.multiarray
scalar
p1
(cnumpy
dtype
p2
(S'i4'
p3
I0
I1
tp4
Rp5
(I3
S'<'
p6
NNNI-1
I-1
I0
tp7
bS'\x02\x00\x00\x00'
p8
tp9
Rp10
tp11
a(F118.4279933
F24.4376913
I3
g1
(g5
S'\x01\x00\x00\x00'
p12
tp13
Rp14
tp15
a(F118.4279933
F24.4811092
I2
g1
(g5
S'\x03\x00\x00\x00'
p16
tp17
Rp18
tp19
a(F118.2475458
F24.4288569
I1
g1
(g5
S'\x00\x00\x00\x00'
p20
tp21
Rp22
tp23
a(F118.3058515
F24.4565774
I1
g1
(g5
S'\x05\x00\x00\x00'
p24
tp25
Rp26
tp27
a(F118.358
F24.457
I1
g1
(g5
S'\x04\x00\x00\x00'
p28
tp29
Rp30
tp31
a.