(lp0
(F120.35
F22.8
I34
cnumpy.core.multiarray
scalar
p1
(cnumpy
dtype
p2
(S'i4'
p3
I0
I1
tp4
Rp5
(I3
S'<'
p6
NNNI-1
I-1
I0
tp7
bS'\x06\x00\x00\x00'
p8
tp9
Rp10
tp11
a(F120.533
F22.983
I11
g1
(g5
S'\x03\x00\x00\x00'
p12
tp13
Rp14
tp15
a(F120.35
F22.667
I20
g1
(g5
S'\x02\x00\x00\x00'
p16
tp17
Rp18
tp19
a(F120.25
F22.867
I25
g1
(g5
S'\x04\x00\x00\x00'
p20
tp21
Rp22
tp23
a(F120.417
F22.7
I16
g1
(g5
S'\x02\x00\x00\x00'
p24
tp25
Rp26
tp27
a(F120.35
F22.7
I49
g1
(g5
S'\x02\x00\x00\x00'
p28
tp29
Rp30
tp31
a(F120.2685
F22.6522
I63
g1
(g5
S'\x05\x00\x00\x00'
p32
tp33
Rp34
tp35
a(F120.326
F22.6295
I60
g1
(g5
S'\x05\x00\x00\x00'
p36
tp37
Rp38
tp39
a(F120.217
F22.817
I3
g1
(g5
S'\x04\x00\x00\x00'
p40
tp41
Rp42
tp43
a(F120.2946
F22.6266
I43
g1
(g5
S'\x05\x00\x00\x00'
p44
tp45
Rp46
tp47
a(F120.767
F23.167
I4
g1
(g5
S'\x03\x00\x00\x00'
p48
tp49
Rp50
tp51
a(F120.467
F22.883
I16
g1
(g5
S'\x03\x00\x00\x00'
p52
tp53
Rp54
tp55
a(F120.333
F22.733
I107
g1
(g5
S'\x02\x00\x00\x00'
p56
tp57
Rp58
tp59
a(F120.45
F22.933
I12
g1
(g5
S'\x03\x00\x00\x00'
p60
tp61
Rp62
tp63
a(F120.401
F22.87
I2
g1
(g5
S'\x06\x00\x00\x00'
p64
tp65
Rp66
tp67
a(F120.4011911
F22.4986756
I67
g1
(g5
S'\x00\x00\x00\x00'
p68
tp69
Rp70
tp71
a(F120.45
F23.0
I11
g1
(g5
S'\x03\x00\x00\x00'
p72
tp73
Rp74
tp75
a(F121.57125
F24.9929212
I178
g1
(g5
S'\x01\x00\x00\x00'
p76
tp77
Rp78
tp79
a(F120.383
F22.617
I58
g1
(g5
S'\x05\x00\x00\x00'
p80
tp81
Rp82
tp83
a(F120.267
F22.767
I17
g1
(g5
S'\x06\x00\x00\x00'
p84
tp85
Rp86
tp87
a(F120.305
F22.6303
I52
g1
(g5
S'\x05\x00\x00\x00'
p88
tp89
Rp90
tp91
a(F120.533
F22.9
I14
g1
(g5
S'\x03\x00\x00\x00'
p92
tp93
Rp94
tp95
a(F120.317
F22.767
I18
g1
(g5
S'\x06\x00\x00\x00'
p96
tp97
Rp98
tp99
a(F120.583
F23.083
I3
g1
(g5
S'\x03\x00\x00\x00'
p100
tp101
Rp102
tp103
a(F120.3149
F22.5997
I80
g1
(g5
S'\x05\x00\x00\x00'
p104
tp105
Rp106
tp107
a(F120.308
F22.567
I11
g1
(g5
S'\x05\x00\x00\x00'
p108
tp109
Rp110
tp111
a(F121.5769572
F25.0287024
I4
g1
(g5
S'\x01\x00\x00\x00'
p112
tp113
Rp114
tp115
a(F120.283
F22.8
I39
g1
(g5
S'\x06\x00\x00\x00'
p116
tp117
Rp118
tp119
a(F120.333
F22.567
I73
g1
(g5
S'\x05\x00\x00\x00'
p120
tp121
Rp122
tp123
a(F120.317
F22.883
I16
g1
(g5
S'\x06\x00\x00\x00'
p124
tp125
Rp126
tp127
a(F120.2
F22.9
I14
g1
(g5
S'\x04\x00\x00\x00'
p128
tp129
Rp130
tp131
a(F120.35
F22.633
I141
g1
(g5
S'\x05\x00\x00\x00'
p132
tp133
Rp134
tp135
a(F120.283
F22.6239
I16
g1
(g5
S'\x05\x00\x00\x00'
p136
tp137
Rp138
tp139
a(F120.167
F22.9
I25
g1
(g5
S'\x04\x00\x00\x00'
p140
tp141
Rp142
tp143
a(F120.283
F22.7
I96
g1
(g5
S'\x02\x00\x00\x00'
p144
tp145
Rp146
tp147
a(F120.233
F22.783
I7
g1
(g5
S'\x06\x00\x00\x00'
p148
tp149
Rp150
tp151
a(F120.667
F22.9
I3
g1
(g5
S'\x03\x00\x00\x00'
p152
tp153
Rp154
tp155
a.