(lp0
(F121.3655989
F25.1048875
I21
cnumpy.core.multiarray
scalar
p1
(cnumpy
dtype
p2
(S'i4'
p3
I0
I1
tp4
Rp5
(I3
S'<'
p6
NNNI-1
I-1
I0
tp7
bS'\x02\x00\x00\x00'
p8
tp9
Rp10
tp11
a(F121.4570447
F24.9772803
I120
g1
(g5
S'\x00\x00\x00\x00'
p12
tp13
Rp14
tp15
a(F121.4627576
F25.0130994
I265
g1
(g5
S'\x00\x00\x00\x00'
p16
tp17
Rp18
tp19
a(F121.4713265
F25.088044
I131
g1
(g5
S'\x05\x00\x00\x00'
p20
tp21
Rp22
tp23
a(F121.4970294
F24.994446
I278
g1
(g5
S'\x04\x00\x00\x00'
p24
tp25
Rp26
tp27
a(F121.417046
F25.1406052
I44
g1
(g5
S'\x02\x00\x00\x00'
p28
tp29
Rp30
tp31
a(F121.43419
F25.0888058
I77
g1
(g5
S'\x05\x00\x00\x00'
p32
tp33
Rp34
tp35
a(F121.5170166
F25.0083253
I436
g1
(g5
S'\x04\x00\x00\x00'
p36
tp37
Rp38
tp39
a(F121.7537404
F25.0345984
I3
g1
(g5
S'\x01\x00\x00\x00'
p40
tp41
Rp42
tp43
a(F121.35
F24.95
I83
g1
(g5
S'\x03\x00\x00\x00'
p44
tp45
Rp46
tp47
a(F121.5255815
F25.2370456
I19
g1
(g5
S'\x06\x00\x00\x00'
p48
tp49
Rp50
tp51
a(F121.4284756
F25.0211328
I184
g1
(g5
S'\x00\x00\x00\x00'
p52
tp53
Rp54
tp55
a(F121.4333333333
F25.1666666667
I169
g1
(g5
S'\x02\x00\x00\x00'
p56
tp57
Rp58
tp59
a(F121.8166666667
F25.1166666667
I11
g1
(g5
S'\x01\x00\x00\x00'
p60
tp61
Rp62
tp63
a(F121.6397184
F24.9555851
I6
g1
(g5
S'\x01\x00\x00\x00'
p64
tp65
Rp66
tp67
a(F121.5255815
F24.9399889
I132
g1
(g5
S'\x04\x00\x00\x00'
p68
tp69
Rp70
tp71
a(F121.57125
F25.2686409
I9
g1
(g5
S'\x06\x00\x00\x00'
p72
tp73
Rp74
tp75
a(F121.417046
F25.0556656
I36
g1
(g5
S'\x05\x00\x00\x00'
p76
tp77
Rp78
tp79
a(F121.6397184
F25.1676024
I9
g1
(g5
S'\x06\x00\x00\x00'
p80
tp81
Rp82
tp83
a(F121.6169002
F25.2366076
I6
g1
(g5
S'\x06\x00\x00\x00'
p84
tp85
Rp86
tp87
a(F121.55
F24.8666666667
I4
g1
(g5
S'\x04\x00\x00\x00'
p88
tp89
Rp90
tp91
a(F121.85
F25.0333333333
I3
g1
(g5
S'\x01\x00\x00\x00'
p92
tp93
Rp94
tp95
a(F121.6397184
F25.0616059
I142
g1
(g5
S'\x01\x00\x00\x00'
p96
tp97
Rp98
tp99
a(F121.6169002
F25.0033792
I12
g1
(g5
S'\x01\x00\x00\x00'
p100
tp101
Rp102
tp103
a(F121.4856066
F25.060808
I290
g1
(g5
S'\x05\x00\x00\x00'
p104
tp105
Rp106
tp107
a(F121.3666666667
F24.9333333333
I130
g1
(g5
S'\x03\x00\x00\x00'
p108
tp109
Rp110
tp111
a(F121.4056153
F24.9840028
I83
g1
(g5
S'\x03\x00\x00\x00'
p112
tp113
Rp114
tp115
a(F121.7
F24.9333333333
I1
g1
(g5
S'\x01\x00\x00\x00'
p116
tp117
Rp118
tp119
a.