(lp0
(F120.7166666667
F22.75
I1
cnumpy.core.multiarray
scalar
p1
(cnumpy
dtype
p2
(S'i4'
p3
I0
I1
tp4
Rp5
(I3
S'<'
p6
NNNI-1
I-1
I0
tp7
bS'\x06\x00\x00\x00'
p8
tp9
Rp10
tp11
a(F120.733
F22.0
I24
g1
(g5
S'\x00\x00\x00\x00'
p12
tp13
Rp14
tp15
a(F120.5
F22.433
I7
g1
(g5
S'\x02\x00\x00\x00'
p16
tp17
Rp18
tp19
a(F120.567
F22.75
I13
g1
(g5
S'\x06\x00\x00\x00'
p20
tp21
Rp22
tp23
a(F120.633
F22.367
I3
g1
(g5
S'\x02\x00\x00\x00'
p24
tp25
Rp26
tp27
a(F120.517
F22.65
I8
g1
(g5
S'\x01\x00\x00\x00'
p28
tp29
Rp30
tp31
a(F120.7
F22.067
I6
g1
(g5
S'\x00\x00\x00\x00'
p32
tp33
Rp34
tp35
a(F120.767
F22.133
I2
g1
(g5
S'\x04\x00\x00\x00'
p36
tp37
Rp38
tp39
a(F120.617
F22.683
I5
g1
(g5
S'\x06\x00\x00\x00'
p40
tp41
Rp42
tp43
a(F120.5162
F22.4777
I4
g1
(g5
S'\x02\x00\x00\x00'
p44
tp45
Rp46
tp47
a(F120.367
F22.367
I3
g1
(g5
S'\x02\x00\x00\x00'
p48
tp49
Rp50
tp51
a(F120.483
F22.733
I14
g1
(g5
S'\x01\x00\x00\x00'
p52
tp53
Rp54
tp55
a(F120.533
F22.417
I13
g1
(g5
S'\x02\x00\x00\x00'
p56
tp57
Rp58
tp59
a(F120.55
F22.567
I11
g1
(g5
S'\x05\x00\x00\x00'
p60
tp61
Rp62
tp63
a(F120.65
F22.717
I14
g1
(g5
S'\x06\x00\x00\x00'
p64
tp65
Rp66
tp67
a(F120.5833333333
F22.8333333333
I14
g1
(g5
S'\x06\x00\x00\x00'
p68
tp69
Rp70
tp71
a(F120.717
F22.2
I7
g1
(g5
S'\x04\x00\x00\x00'
p72
tp73
Rp74
tp75
a(F120.45
F22.533
I22
g1
(g5
S'\x03\x00\x00\x00'
p76
tp77
Rp78
tp79
a(F120.483
F22.783
I16
g1
(g5
S'\x01\x00\x00\x00'
p80
tp81
Rp82
tp83
a(F120.833
F22.033
I4
g1
(g5
S'\x00\x00\x00\x00'
p84
tp85
Rp86
tp87
a(F120.367
F22.583
I18
g1
(g5
S'\x03\x00\x00\x00'
p88
tp89
Rp90
tp91
a(F120.433
F22.467
I9
g1
(g5
S'\x03\x00\x00\x00'
p92
tp93
Rp94
tp95
a(F120.65
F22.517
I5
g1
(g5
S'\x05\x00\x00\x00'
p96
tp97
Rp98
tp99
a(F120.533
F22.55
I28
g1
(g5
S'\x05\x00\x00\x00'
p100
tp101
Rp102
tp103
a(F120.586
F22.488
I7
g1
(g5
S'\x02\x00\x00\x00'
p104
tp105
Rp106
tp107
a(F120.483
F22.667
I108
g1
(g5
S'\x01\x00\x00\x00'
p108
tp109
Rp110
tp111
a(F120.517
F22.683
I29
g1
(g5
S'\x01\x00\x00\x00'
p112
tp113
Rp114
tp115
a(F120.483
F22.583
I27
g1
(g5
S'\x03\x00\x00\x00'
p116
tp117
Rp118
tp119
a(F120.567
F22.617
I42
g1
(g5
S'\x05\x00\x00\x00'
p120
tp121
Rp122
tp123
a(F120.65
F22.267
I4
g1
(g5
S'\x04\x00\x00\x00'
p124
tp125
Rp126
tp127
a(F120.5
F22.517
I8
g1
(g5
S'\x03\x00\x00\x00'
p128
tp129
Rp130
tp131
a(F120.633
F22.6
I4
g1
(g5
S'\x05\x00\x00\x00'
p132
tp133
Rp134
tp135
a(F120.583
F22.367
I7
g1
(g5
S'\x02\x00\x00\x00'
p136
tp137
Rp138
tp139
a.