(lp0
(F121.5541264
F25.0552958
I74
cnumpy.core.multiarray
scalar
p1
(cnumpy
dtype
p2
(S'i4'
p3
I0
I1
tp4
Rp5
(I3
S'<'
p6
NNNI-1
I-1
I0
tp7
bS'\x06\x00\x00\x00'
p8
tp9
Rp10
tp11
a(F121.5198716
F25.0421407
I62
g1
(g5
S'\x03\x00\x00\x00'
p12
tp13
Rp14
tp15
a(F121.5427093
F25.0261583
I152
g1
(g5
S'\x01\x00\x00\x00'
p16
tp17
Rp18
tp19
a(F121.5027404
F25.1363615
I137
g1
(g5
S'\x05\x00\x00\x00'
p20
tp21
Rp22
tp23
a(F121.4970294
F25.0262857
I140
g1
(g5
S'\x03\x00\x00\x00'
p24
tp25
Rp26
tp27
a(F121.57125
F24.9929212
I109
g1
(g5
S'\x04\x00\x00\x00'
p28
tp29
Rp30
tp31
a(F121.5769572
F25.0287024
I90
g1
(g5
S'\x04\x00\x00\x00'
p32
tp33
Rp34
tp35
a(F121.5427093
F25.0792018
I158
g1
(g5
S'\x06\x00\x00\x00'
p36
tp37
Rp38
tp39
a(F121.6111949
F25.0312347
I55
g1
(g5
S'\x04\x00\x00\x00'
p40
tp41
Rp42
tp43
a(F121.548418
F25.1255884
I175
g1
(g5
S'\x02\x00\x00\x00'
p44
tp45
Rp46
tp47
a(F121.5940773
F25.0935968
I110
g1
(g5
S'\x00\x00\x00\x00'
p48
tp49
Rp50
tp51
a(F121.5113064
F25.0627243
I97
g1
(g5
S'\x03\x00\x00\x00'
p52
tp53
Rp54
tp55
a.