(lp0
(F121.8833333333
F22.45
I10
cnumpy.core.multiarray
scalar
p1
(cnumpy
dtype
p2
(S'i4'
p3
I0
I1
tp4
Rp5
(I3
S'<'
p6
NNNI-1
I-1
I0
tp7
bS'\x01\x00\x00\x00'
p8
tp9
Rp10
tp11
a(F121.1824925
F23.0170591
I9
g1
(g5
S'\x04\x00\x00\x00'
p12
tp13
Rp14
tp15
a(F121.3666666667
F23.1
I15
g1
(g5
S'\x02\x00\x00\x00'
p16
tp17
Rp18
tp19
a(F121.1166666667
F22.9
I7
g1
(g5
S'\x03\x00\x00\x00'
p20
tp21
Rp22
tp23
a(F121.45
F23.3166666667
I7
g1
(g5
S'\x02\x00\x00\x00'
p24
tp25
Rp26
tp27
a(F121.1666666667
F23.1
I11
g1
(g5
S'\x04\x00\x00\x00'
p28
tp29
Rp30
tp31
a(F121.15
F22.75
I113
g1
(g5
S'\x00\x00\x00\x00'
p32
tp33
Rp34
tp35
a(F121.95
F22.6
I9
g1
(g5
S'\x01\x00\x00\x00'
p36
tp37
Rp38
tp39
a(F121.0833333333
F22.9
I8
g1
(g5
S'\x03\x00\x00\x00'
p40
tp41
Rp42
tp43
a(F121.3
F22.9833333333
I7
g1
(g5
S'\x04\x00\x00\x00'
p44
tp45
Rp46
tp47
a(F121.1166666667
F22.7833333333
I30
g1
(g5
S'\x00\x00\x00\x00'
p48
tp49
Rp50
tp51
a(F121.9
F22.35
I5
g1
(g5
S'\x01\x00\x00\x00'
p52
tp53
Rp54
tp55
a(F121.2
F23.1166666667
I4
g1
(g5
S'\x04\x00\x00\x00'
p56
tp57
Rp58
tp59
a(F121.5415968
F22.0269018
I3
g1
(g5
S'\x06\x00\x00\x00'
p60
tp61
Rp62
tp63
a(F121.0
F22.6166666667
I13
g1
(g5
S'\x05\x00\x00\x00'
p64
tp65
Rp66
tp67
a.