(lp0
(F120.58102
F23.92081
I8
cnumpy.core.multiarray
scalar
p1
(cnumpy
dtype
p2
(S'i4'
p3
I0
I1
tp4
Rp5
(I3
S'<'
p6
NNNI-1
I-1
I0
tp7
bS'\x01\x00\x00\x00'
p8
tp9
Rp10
tp11
a(F120.53284
F24.07147
I1
g1
(g5
S'\x00\x00\x00\x00'
p12
tp13
Rp14
tp15
a(F120.52928
F23.97473
I1
g1
(g5
S'\x05\x00\x00\x00'
p16
tp17
Rp18
tp19
a(F120.52931
F24.0647
I1
g1
(g5
S'\x00\x00\x00\x00'
p20
tp21
Rp22
tp23
a(F120.60756
F23.82597
I1
g1
(g5
S'\x01\x00\x00\x00'
p24
tp25
Rp26
tp27
a(F120.57935
F23.95626
I1
g1
(g5
S'\x05\x00\x00\x00'
p28
tp29
Rp30
tp31
a(F120.55402
F24.09424
I1
g1
(g5
S'\x00\x00\x00\x00'
p32
tp33
Rp34
tp35
a(F120.50738
F24.06917
I1
g1
(g5
S'\x00\x00\x00\x00'
p36
tp37
Rp38
tp39
a(F120.53474
F23.89941
I1
g1
(g5
S'\x01\x00\x00\x00'
p40
tp41
Rp42
tp43
a(F120.48284
F24.14716
I1
g1
(g5
S'\x03\x00\x00\x00'
p44
tp45
Rp46
tp47
a(F120.51681
F24.06313
I2
g1
(g5
S'\x00\x00\x00\x00'
p48
tp49
Rp50
tp51
a(F120.4963
F24.10644
I1
g1
(g5
S'\x03\x00\x00\x00'
p52
tp53
Rp54
tp55
a(F120.50735
F24.1686
I1
g1
(g5
S'\x03\x00\x00\x00'
p56
tp57
Rp58
tp59
a(F120.46262
F24.13882
I1
g1
(g5
S'\x03\x00\x00\x00'
p60
tp61
Rp62
tp63
a(F120.58123
F23.95734
I1
g1
(g5
S'\x05\x00\x00\x00'
p64
tp65
Rp66
tp67
a(F120.55937
F24.08143
I1
g1
(g5
S'\x00\x00\x00\x00'
p68
tp69
Rp70
tp71
a(F120.55359
F24.09636
I1
g1
(g5
S'\x00\x00\x00\x00'
p72
tp73
Rp74
tp75
a(F120.53381
F24.10916
I1
g1
(g5
S'\x00\x00\x00\x00'
p76
tp77
Rp78
tp79
a(F120.57336
F24.08389
I1
g1
(g5
S'\x00\x00\x00\x00'
p80
tp81
Rp82
tp83
a(F120.55353
F23.88311
I1
g1
(g5
S'\x01\x00\x00\x00'
p84
tp85
Rp86
tp87
a(F120.52552
F23.95097
I1
g1
(g5
S'\x05\x00\x00\x00'
p88
tp89
Rp90
tp91
a(F120.50534
F24.03879
I1
g1
(g5
S'\x00\x00\x00\x00'
p92
tp93
Rp94
tp95
a(F120.49261
F24.10976
I1
g1
(g5
S'\x03\x00\x00\x00'
p96
tp97
Rp98
tp99
a(F120.53392
F24.08828
I1
g1
(g5
S'\x00\x00\x00\x00'
p100
tp101
Rp102
tp103
a(F120.59886
F24.07565
I1
g1
(g5
S'\x00\x00\x00\x00'
p104
tp105
Rp106
tp107
a(F120.57621
F23.95159
I1
g1
(g5
S'\x05\x00\x00\x00'
p108
tp109
Rp110
tp111
a(F120.50733
F23.85442
I1
g1
(g5
S'\x01\x00\x00\x00'
p112
tp113
Rp114
tp115
a(F120.54521
F24.06425
I1
g1
(g5
S'\x00\x00\x00\x00'
p116
tp117
Rp118
tp119
a(F120.53036
F24.07544
I1
g1
(g5
S'\x00\x00\x00\x00'
p120
tp121
Rp122
tp123
a(F120.5164
F23.95112
I1
g1
(g5
S'\x05\x00\x00\x00'
p124
tp125
Rp126
tp127
a(F120.36364
F23.89395
I1
g1
(g5
S'\x02\x00\x00\x00'
p128
tp129
Rp130
tp131
a(F120.53921
F24.0904
I1
g1
(g5
S'\x00\x00\x00\x00'
p132
tp133
Rp134
tp135
a(F120.3927
F23.86955
I1
g1
(g5
S'\x02\x00\x00\x00'
p136
tp137
Rp138
tp139
a(F120.46625
F24.08065
I1
g1
(g5
S'\x06\x00\x00\x00'
p140
tp141
Rp142
tp143
a(F120.44006
F23.97668
I1
g1
(g5
S'\x06\x00\x00\x00'
p144
tp145
Rp146
tp147
a(F120.52873
F24.06227
I1
g1
(g5
S'\x00\x00\x00\x00'
p148
tp149
Rp150
tp151
a(F120.53786
F24.08298
I1
g1
(g5
S'\x00\x00\x00\x00'
p152
tp153
Rp154
tp155
a(F120.38326
F23.89874
I1
g1
(g5
S'\x02\x00\x00\x00'
p156
tp157
Rp158
tp159
a(F120.58263
F23.99504
I1
g1
(g5
S'\x05\x00\x00\x00'
p160
tp161
Rp162
tp163
a(F120.52952
F23.87503
I2
g1
(g5
S'\x01\x00\x00\x00'
p164
tp165
Rp166
tp167
a(F120.53329
F24.10793
I1
g1
(g5
S'\x00\x00\x00\x00'
p168
tp169
Rp170
tp171
a(F120.53481
F24.0858
I1
g1
(g5
S'\x00\x00\x00\x00'
p172
tp173
Rp174
tp175
a(F120.61152
F23.81654
I2
g1
(g5
S'\x01\x00\x00\x00'
p176
tp177
Rp178
tp179
a(F120.53903
F24.09353
I2
g1
(g5
S'\x00\x00\x00\x00'
p180
tp181
Rp182
tp183
a(F120.69464
F24.1208
I1
g1
(g5
S'\x00\x00\x00\x00'
p184
tp185
Rp186
tp187
a(F120.49298
F24.16202
I1
g1
(g5
S'\x03\x00\x00\x00'
p188
tp189
Rp190
tp191
a(F120.57769
F23.96204
I1
g1
(g5
S'\x05\x00\x00\x00'
p192
tp193
Rp194
tp195
a(F120.46676
F23.97595
I1
g1
(g5
S'\x06\x00\x00\x00'
p196
tp197
Rp198
tp199
a(F120.58216
F23.91379
I2
g1
(g5
S'\x01\x00\x00\x00'
p200
tp201
Rp202
tp203
a(F120.57747
F23.96926
I2
g1
(g5
S'\x05\x00\x00\x00'
p204
tp205
Rp206
tp207
a(F120.48989
F24.04276
I1
g1
(g5
S'\x06\x00\x00\x00'
p208
tp209
Rp210
tp211
a(F120.33938
F23.96383
I1
g1
(g5
S'\x02\x00\x00\x00'
p212
tp213
Rp214
tp215
a(F120.43298
F24.06188
I1
g1
(g5
S'\x06\x00\x00\x00'
p216
tp217
Rp218
tp219
a(F120.47592
F24.15739
I1
g1
(g5
S'\x03\x00\x00\x00'
p220
tp221
Rp222
tp223
a(F120.53084
F24.07782
I1
g1
(g5
S'\x00\x00\x00\x00'
p224
tp225
Rp226
tp227
a(F120.56347
F23.93027
I2
g1
(g5
S'\x05\x00\x00\x00'
p228
tp229
Rp230
tp231
a(F120.38415
F23.94142
I1
g1
(g5
S'\x02\x00\x00\x00'
p232
tp233
Rp234
tp235
a(F120.51405
F24.05742
I1
g1
(g5
S'\x00\x00\x00\x00'
p236
tp237
Rp238
tp239
a(F120.4898
F23.94498
I1
g1
(g5
S'\x05\x00\x00\x00'
p240
tp241
Rp242
tp243
a(F120.43721
F23.84024
I1
g1
(g5
S'\x02\x00\x00\x00'
p244
tp245
Rp246
tp247
a(F120.47462
F23.9549
I1
g1
(g5
S'\x05\x00\x00\x00'
p248
tp249
Rp250
tp251
a(F120.47545
F23.95835
I1
g1
(g5
S'\x05\x00\x00\x00'
p252
tp253
Rp254
tp255
a(F120.5224
F24.09943
I1
g1
(g5
S'\x00\x00\x00\x00'
p256
tp257
Rp258
tp259
a(F120.55456
F24.0827
I1
g1
(g5
S'\x00\x00\x00\x00'
p260
tp261
Rp262
tp263
a(F120.36772
F23.90305
I1
g1
(g5
S'\x02\x00\x00\x00'
p264
tp265
Rp266
tp267
a(F120.60701
F24.04478
I1
g1
(g5
S'\x00\x00\x00\x00'
p268
tp269
Rp270
tp271
a(F120.43539
F24.04953
I1
g1
(g5
S'\x06\x00\x00\x00'
p272
tp273
Rp274
tp275
a(F120.59345
F23.89871
I6
g1
(g5
S'\x01\x00\x00\x00'
p276
tp277
Rp278
tp279
a(F120.47704
F24.04265
I1
g1
(g5
S'\x06\x00\x00\x00'
p280
tp281
Rp282
tp283
a(F120.55425
F24.08158
I1
g1
(g5
S'\x00\x00\x00\x00'
p284
tp285
Rp286
tp287
a(F120.53946
F24.06501
I1
g1
(g5
S'\x00\x00\x00\x00'
p288
tp289
Rp290
tp291
a(F120.53826
F24.07719
I1
g1
(g5
S'\x00\x00\x00\x00'
p292
tp293
Rp294
tp295
a(F120.32547
F23.85336
I3
g1
(g5
S'\x02\x00\x00\x00'
p296
tp297
Rp298
tp299
a(F120.59329
F23.9004
I2
g1
(g5
S'\x01\x00\x00\x00'
p300
tp301
Rp302
tp303
a(F120.4965
F23.96695
I1
g1
(g5
S'\x05\x00\x00\x00'
p304
tp305
Rp306
tp307
a(F120.56688
F23.81756
I1
g1
(g5
S'\x01\x00\x00\x00'
p308
tp309
Rp310
tp311
a(F120.5336
F24.07716
I1
g1
(g5
S'\x00\x00\x00\x00'
p312
tp313
Rp314
tp315
a(F120.50343
F24.07728
I3
g1
(g5
S'\x00\x00\x00\x00'
p316
tp317
Rp318
tp319
a(F120.52421
F24.06895
I1
g1
(g5
S'\x00\x00\x00\x00'
p320
tp321
Rp322
tp323
a(F120.46107
F24.10551
I1
g1
(g5
S'\x03\x00\x00\x00'
p324
tp325
Rp326
tp327
a(F120.44097
F24.05809
I1
g1
(g5
S'\x06\x00\x00\x00'
p328
tp329
Rp330
tp331
a(F120.58892
F23.86667
I1
g1
(g5
S'\x01\x00\x00\x00'
p332
tp333
Rp334
tp335
a(F120.47815
F23.84875
I1
g1
(g5
S'\x01\x00\x00\x00'
p336
tp337
Rp338
tp339
a(F120.51377
F23.94886
I1
g1
(g5
S'\x05\x00\x00\x00'
p340
tp341
Rp342
tp343
a(F120.50041
F24.11456
I1
g1
(g5
S'\x03\x00\x00\x00'
p344
tp345
Rp346
tp347
a(F120.56698
F24.09238
I1
g1
(g5
S'\x00\x00\x00\x00'
p348
tp349
Rp350
tp351
a(F120.55454
F24.0939
I1
g1
(g5
S'\x00\x00\x00\x00'
p352
tp353
Rp354
tp355
a(F120.52722
F24.06972
I1
g1
(g5
S'\x00\x00\x00\x00'
p356
tp357
Rp358
tp359
a(F120.51192
F23.90156
I1
g1
(g5
S'\x01\x00\x00\x00'
p360
tp361
Rp362
tp363
a(F120.4884
F24.15049
I1
g1
(g5
S'\x03\x00\x00\x00'
p364
tp365
Rp366
tp367
a(F120.53746
F24.08702
I1
g1
(g5
S'\x00\x00\x00\x00'
p368
tp369
Rp370
tp371
a(F120.43062
F24.0641
I1
g1
(g5
S'\x06\x00\x00\x00'
p372
tp373
Rp374
tp375
a(F120.59458
F23.90006
I3
g1
(g5
S'\x01\x00\x00\x00'
p376
tp377
Rp378
tp379
a(F120.57809
F24.00317
I1
g1
(g5
S'\x05\x00\x00\x00'
p380
tp381
Rp382
tp383
a(F120.56954
F24.08627
I1
g1
(g5
S'\x00\x00\x00\x00'
p384
tp385
Rp386
tp387
a(F120.47474
F23.96768
I1
g1
(g5
S'\x05\x00\x00\x00'
p388
tp389
Rp390
tp391
a(F120.50626
F24.10105
I1
g1
(g5
S'\x03\x00\x00\x00'
p392
tp393
Rp394
tp395
a(F120.5592
F24.08587
I1
g1
(g5
S'\x00\x00\x00\x00'
p396
tp397
Rp398
tp399
a(F120.53429
F24.06573
I1
g1
(g5
S'\x00\x00\x00\x00'
p400
tp401
Rp402
tp403
a(F120.49988
F24.10408
I1
g1
(g5
S'\x03\x00\x00\x00'
p404
tp405
Rp406
tp407
a(F120.54457
F24.07354
I1
g1
(g5
S'\x00\x00\x00\x00'
p408
tp409
Rp410
tp411
a(F120.55704
F24.07162
I2
g1
(g5
S'\x00\x00\x00\x00'
p412
tp413
Rp414
tp415
a(F120.53994
F24.0587
I1
g1
(g5
S'\x00\x00\x00\x00'
p416
tp417
Rp418
tp419
a(F120.57566
F24.10129
I2
g1
(g5
S'\x00\x00\x00\x00'
p420
tp421
Rp422
tp423
a(F120.30878
F23.89116
I1
g1
(g5
S'\x02\x00\x00\x00'
p424
tp425
Rp426
tp427
a(F120.60386
F23.93256
I1
g1
(g5
S'\x01\x00\x00\x00'
p428
tp429
Rp430
tp431
a(F120.96448
F24.79984
I1
g1
(g5
S'\x04\x00\x00\x00'
p432
tp433
Rp434
tp435
a(F120.59707
F23.9008
I1
g1
(g5
S'\x01\x00\x00\x00'
p436
tp437
Rp438
tp439
a(F120.51645
F23.86953
I1
g1
(g5
S'\x01\x00\x00\x00'
p440
tp441
Rp442
tp443
a(F120.39558
F24.07499
I1
g1
(g5
S'\x06\x00\x00\x00'
p444
tp445
Rp446
tp447
a(F120.58176
F23.95913
I1
g1
(g5
S'\x05\x00\x00\x00'
p448
tp449
Rp450
tp451
a(F120.57827
F23.96535
I1
g1
(g5
S'\x05\x00\x00\x00'
p452
tp453
Rp454
tp455
a(F120.58333
F23.96023
I2
g1
(g5
S'\x05\x00\x00\x00'
p456
tp457
Rp458
tp459
a(F120.45022
F24.13474
I1
g1
(g5
S'\x03\x00\x00\x00'
p460
tp461
Rp462
tp463
a(F120.53481
F24.08042
I1
g1
(g5
S'\x00\x00\x00\x00'
p464
tp465
Rp466
tp467
a(F120.43172
F24.07751
I1
g1
(g5
S'\x06\x00\x00\x00'
p468
tp469
Rp470
tp471
a(F120.51617
F24.05319
I1
g1
(g5
S'\x00\x00\x00\x00'
p472
tp473
Rp474
tp475
a(F120.52438
F24.06602
I1
g1
(g5
S'\x00\x00\x00\x00'
p476
tp477
Rp478
tp479
a(F120.51301
F24.06041
I1
g1
(g5
S'\x00\x00\x00\x00'
p480
tp481
Rp482
tp483
a(F120.53552
F24.06243
I1
g1
(g5
S'\x00\x00\x00\x00'
p484
tp485
Rp486
tp487
a(F120.55373
F23.90886
I1
g1
(g5
S'\x01\x00\x00\x00'
p488
tp489
Rp490
tp491
a(F120.58023
F23.959
I1
g1
(g5
S'\x05\x00\x00\x00'
p492
tp493
Rp494
tp495
a(F120.66048
F24.0197
I1
g1
(g5
S'\x05\x00\x00\x00'
p496
tp497
Rp498
tp499
a(F120.43692
F24.06367
I1
g1
(g5
S'\x06\x00\x00\x00'
p500
tp501
Rp502
tp503
a(F120.58727
F23.99218
I1
g1
(g5
S'\x05\x00\x00\x00'
p504
tp505
Rp506
tp507
a(F120.59342
F23.96007
I1
g1
(g5
S'\x05\x00\x00\x00'
p508
tp509
Rp510
tp511
a(F120.50816
F24.03785
I1
g1
(g5
S'\x00\x00\x00\x00'
p512
tp513
Rp514
tp515
a(F120.55724
F23.93603
I1
g1
(g5
S'\x05\x00\x00\x00'
p516
tp517
Rp518
tp519
a(F120.48961
F24.0817
I1
g1
(g5
S'\x03\x00\x00\x00'
p520
tp521
Rp522
tp523
a(F120.31992
F23.85584
I1
g1
(g5
S'\x02\x00\x00\x00'
p524
tp525
Rp526
tp527
a(F120.58531
F23.87004
I1
g1
(g5
S'\x01\x00\x00\x00'
p528
tp529
Rp530
tp531
a(F120.55293
F23.95543
I1
g1
(g5
S'\x05\x00\x00\x00'
p532
tp533
Rp534
tp535
a(F120.4333333333
F24.0666666667
I3
g1
(g5
S'\x06\x00\x00\x00'
p536
tp537
Rp538
tp539
a(F120.53433
F24.08799
I2
g1
(g5
S'\x00\x00\x00\x00'
p540
tp541
Rp542
tp543
a(F120.55602
F23.94338
I2
g1
(g5
S'\x05\x00\x00\x00'
p544
tp545
Rp546
tp547
a(F120.53625
F24.08357
I1
g1
(g5
S'\x00\x00\x00\x00'
p548
tp549
Rp550
tp551
a(F120.541
F23.89788
I1
g1
(g5
S'\x01\x00\x00\x00'
p552
tp553
Rp554
tp555
a(F120.53491
F24.08832
I1
g1
(g5
S'\x00\x00\x00\x00'
p556
tp557
Rp558
tp559
a(F120.65351
F24.13849
I1
g1
(g5
S'\x00\x00\x00\x00'
p560
tp561
Rp562
tp563
a(F120.44392
F23.95904
I1
g1
(g5
S'\x06\x00\x00\x00'
p564
tp565
Rp566
tp567
a(F120.57989
F23.95535
I1
g1
(g5
S'\x05\x00\x00\x00'
p568
tp569
Rp570
tp571
a(F120.33507
F23.88983
I1
g1
(g5
S'\x02\x00\x00\x00'
p572
tp573
Rp574
tp575
a(F120.49298
F24.18058
I1
g1
(g5
S'\x03\x00\x00\x00'
p576
tp577
Rp578
tp579
a(F120.40887
F24.07926
I1
g1
(g5
S'\x06\x00\x00\x00'
p580
tp581
Rp582
tp583
a(F120.43563
F24.05653
I2
g1
(g5
S'\x06\x00\x00\x00'
p584
tp585
Rp586
tp587
a.