(lp0
(F120.317
F23.467
I2
cnumpy.core.multiarray
scalar
p1
(cnumpy
dtype
p2
(S'i4'
p3
I0
I1
tp4
Rp5
(I3
S'<'
p6
NNNI-1
I-1
I0
tp7
bS'\x02\x00\x00\x00'
p8
tp9
Rp10
tp11
a(F120.47363
F23.45594
I1
g1
(g5
S'\x01\x00\x00\x00'
p12
tp13
Rp14
tp15
a(F120.42129
F23.46565
I1
g1
(g5
S'\x01\x00\x00\x00'
p16
tp17
Rp18
tp19
a(F120.54552
F23.53141
I2
g1
(g5
S'\x04\x00\x00\x00'
p20
tp21
Rp22
tp23
a(F120.58309
F23.45496
I1
g1
(g5
S'\x04\x00\x00\x00'
p24
tp25
Rp26
tp27
a(F120.44812
F23.47768
I1
g1
(g5
S'\x01\x00\x00\x00'
p28
tp29
Rp30
tp31
a(F120.44305
F23.46137
I1
g1
(g5
S'\x01\x00\x00\x00'
p32
tp33
Rp34
tp35
a(F120.16193
F23.37752
I1
g1
(g5
S'\x00\x00\x00\x00'
p36
tp37
Rp38
tp39
a(F120.15548
F23.37858
I1
g1
(g5
S'\x00\x00\x00\x00'
p40
tp41
Rp42
tp43
a(F120.34829
F23.55739
I1
g1
(g5
S'\x05\x00\x00\x00'
p44
tp45
Rp46
tp47
a(F120.44672
F23.48015
I1
g1
(g5
S'\x01\x00\x00\x00'
p48
tp49
Rp50
tp51
a(F120.46014
F23.46946
I1
g1
(g5
S'\x01\x00\x00\x00'
p52
tp53
Rp54
tp55
a(F120.49626
F23.58196
I1
g1
(g5
S'\x03\x00\x00\x00'
p56
tp57
Rp58
tp59
a(F120.34026
F23.44059
I1
g1
(g5
S'\x02\x00\x00\x00'
p60
tp61
Rp62
tp63
a(F120.43089
F23.48047
I1
g1
(g5
S'\x01\x00\x00\x00'
p64
tp65
Rp66
tp67
a(F120.45961
F23.47419
I1
g1
(g5
S'\x01\x00\x00\x00'
p68
tp69
Rp70
tp71
a(F120.4663
F23.49153
I1
g1
(g5
S'\x01\x00\x00\x00'
p72
tp73
Rp74
tp75
a(F120.42933
F23.49427
I1
g1
(g5
S'\x01\x00\x00\x00'
p76
tp77
Rp78
tp79
a(F120.44633
F23.5177
I1
g1
(g5
S'\x06\x00\x00\x00'
p80
tp81
Rp82
tp83
a(F120.1599
F23.32881
I1
g1
(g5
S'\x00\x00\x00\x00'
p84
tp85
Rp86
tp87
a(F120.46538
F23.48644
I2
g1
(g5
S'\x01\x00\x00\x00'
p88
tp89
Rp90
tp91
a(F120.42465
F23.47359
I1
g1
(g5
S'\x01\x00\x00\x00'
p92
tp93
Rp94
tp95
a(F120.42594
F23.47961
I1
g1
(g5
S'\x01\x00\x00\x00'
p96
tp97
Rp98
tp99
a(F120.42731
F23.61113
I1
g1
(g5
S'\x03\x00\x00\x00'
p100
tp101
Rp102
tp103
a(F120.44263
F23.45707
I1
g1
(g5
S'\x01\x00\x00\x00'
p104
tp105
Rp106
tp107
a(F120.48538
F23.61375
I1
g1
(g5
S'\x03\x00\x00\x00'
p108
tp109
Rp110
tp111
a(F120.29807
F23.46751
I2
g1
(g5
S'\x02\x00\x00\x00'
p112
tp113
Rp114
tp115
a(F120.16601
F23.37761
I1
g1
(g5
S'\x00\x00\x00\x00'
p116
tp117
Rp118
tp119
a(F120.50771
F23.49989
I1
g1
(g5
S'\x04\x00\x00\x00'
p120
tp121
Rp122
tp123
a(F120.18144
F23.41637
I1
g1
(g5
S'\x00\x00\x00\x00'
p124
tp125
Rp126
tp127
a(F120.44396
F23.52688
I1
g1
(g5
S'\x06\x00\x00\x00'
p128
tp129
Rp130
tp131
a(F120.44134
F23.47255
I1
g1
(g5
S'\x01\x00\x00\x00'
p132
tp133
Rp134
tp135
a(F120.4377
F23.51788
I1
g1
(g5
S'\x06\x00\x00\x00'
p136
tp137
Rp138
tp139
a(F120.41639
F23.55041
I1
g1
(g5
S'\x06\x00\x00\x00'
p140
tp141
Rp142
tp143
a(F120.45315
F23.49814
I1
g1
(g5
S'\x01\x00\x00\x00'
p144
tp145
Rp146
tp147
a(F120.24195
F23.46446
I1
g1
(g5
S'\x02\x00\x00\x00'
p148
tp149
Rp150
tp151
a(F120.31601
F23.51962
I1
g1
(g5
S'\x05\x00\x00\x00'
p152
tp153
Rp154
tp155
a(F120.19711
F23.50386
I1
g1
(g5
S'\x02\x00\x00\x00'
p156
tp157
Rp158
tp159
a(F120.46771
F23.47186
I1
g1
(g5
S'\x01\x00\x00\x00'
p160
tp161
Rp162
tp163
a(F120.43038
F23.44832
I1
g1
(g5
S'\x01\x00\x00\x00'
p164
tp165
Rp166
tp167
a(F120.43314
F23.46887
I1
g1
(g5
S'\x01\x00\x00\x00'
p168
tp169
Rp170
tp171
a(F120.42003
F23.53946
I1
g1
(g5
S'\x06\x00\x00\x00'
p172
tp173
Rp174
tp175
a(F120.43211
F23.46218
I1
g1
(g5
S'\x01\x00\x00\x00'
p176
tp177
Rp178
tp179
a(F120.43434
F23.48612
I1
g1
(g5
S'\x01\x00\x00\x00'
p180
tp181
Rp182
tp183
a(F120.25
F23.5
I1
g1
(g5
S'\x02\x00\x00\x00'
p184
tp185
Rp186
tp187
a(F120.31259
F23.55393
I1
g1
(g5
S'\x05\x00\x00\x00'
p188
tp189
Rp190
tp191
a(F120.44113
F23.46036
I1
g1
(g5
S'\x01\x00\x00\x00'
p192
tp193
Rp194
tp195
a(F120.45348
F23.50221
I1
g1
(g5
S'\x01\x00\x00\x00'
p196
tp197
Rp198
tp199
a(F120.444
F23.49376
I1
g1
(g5
S'\x01\x00\x00\x00'
p200
tp201
Rp202
tp203
a(F120.55
F23.583
I1
g1
(g5
S'\x04\x00\x00\x00'
p204
tp205
Rp206
tp207
a(F120.47048
F23.51931
I1
g1
(g5
S'\x06\x00\x00\x00'
p208
tp209
Rp210
tp211
a(F120.46992
F23.4798
I2
g1
(g5
S'\x01\x00\x00\x00'
p212
tp213
Rp214
tp215
a(F120.44257
F23.53651
I1
g1
(g5
S'\x06\x00\x00\x00'
p216
tp217
Rp218
tp219
a(F120.28715
F23.46071
I1
g1
(g5
S'\x02\x00\x00\x00'
p220
tp221
Rp222
tp223
a(F120.4282
F23.48265
I1
g1
(g5
S'\x01\x00\x00\x00'
p224
tp225
Rp226
tp227
a(F120.426
F23.43574
I1
g1
(g5
S'\x01\x00\x00\x00'
p228
tp229
Rp230
tp231
a(F120.42492
F23.44493
I2
g1
(g5
S'\x01\x00\x00\x00'
p232
tp233
Rp234
tp235
a(F120.28819
F23.37444
I1
g1
(g5
S'\x02\x00\x00\x00'
p236
tp237
Rp238
tp239
a(F120.47506
F23.47803
I2
g1
(g5
S'\x01\x00\x00\x00'
p240
tp241
Rp242
tp243
a(F120.46533
F23.49224
I1
g1
(g5
S'\x01\x00\x00\x00'
p244
tp245
Rp246
tp247
a(F120.233
F23.333
I1
g1
(g5
S'\x00\x00\x00\x00'
p248
tp249
Rp250
tp251
a(F120.45257
F23.48049
I1
g1
(g5
S'\x01\x00\x00\x00'
p252
tp253
Rp254
tp255
a(F120.50284
F23.58712
I2
g1
(g5
S'\x03\x00\x00\x00'
p256
tp257
Rp258
tp259
a(F120.19894
F23.48607
I1
g1
(g5
S'\x02\x00\x00\x00'
p260
tp261
Rp262
tp263
a(F120.41758
F23.47338
I1
g1
(g5
S'\x01\x00\x00\x00'
p264
tp265
Rp266
tp267
a(F120.42703
F23.47919
I1
g1
(g5
S'\x01\x00\x00\x00'
p268
tp269
Rp270
tp271
a(F120.33992
F23.49922
I1
g1
(g5
S'\x05\x00\x00\x00'
p272
tp273
Rp274
tp275
a(F120.42435
F23.48158
I1
g1
(g5
S'\x01\x00\x00\x00'
p276
tp277
Rp278
tp279
a(F120.45866
F23.48288
I1
g1
(g5
S'\x01\x00\x00\x00'
p280
tp281
Rp282
tp283
a(F120.28642
F23.45677
I1
g1
(g5
S'\x02\x00\x00\x00'
p284
tp285
Rp286
tp287
a(F120.43196
F23.48792
I1
g1
(g5
S'\x01\x00\x00\x00'
p288
tp289
Rp290
tp291
a(F120.42797
F23.44522
I1
g1
(g5
S'\x01\x00\x00\x00'
p292
tp293
Rp294
tp295
a(F120.45898
F23.47631
I1
g1
(g5
S'\x01\x00\x00\x00'
p296
tp297
Rp298
tp299
a(F120.41043
F23.4306
I1
g1
(g5
S'\x01\x00\x00\x00'
p300
tp301
Rp302
tp303
a(F120.45778
F23.60612
I1
g1
(g5
S'\x03\x00\x00\x00'
p304
tp305
Rp306
tp307
a(F120.44298
F23.48447
I1
g1
(g5
S'\x01\x00\x00\x00'
p308
tp309
Rp310
tp311
a(F120.18025
F23.41565
I1
g1
(g5
S'\x00\x00\x00\x00'
p312
tp313
Rp314
tp315
a(F120.45993
F23.45517
I1
g1
(g5
S'\x01\x00\x00\x00'
p316
tp317
Rp318
tp319
a(F120.46279
F23.48909
I1
g1
(g5
S'\x01\x00\x00\x00'
p320
tp321
Rp322
tp323
a(F120.42432
F23.52932
I1
g1
(g5
S'\x06\x00\x00\x00'
p324
tp325
Rp326
tp327
a(F120.46343
F23.46745
I1
g1
(g5
S'\x01\x00\x00\x00'
p328
tp329
Rp330
tp331
a(F120.4725
F23.47634
I1
g1
(g5
S'\x01\x00\x00\x00'
p332
tp333
Rp334
tp335
a(F120.39961
F23.42453
I1
g1
(g5
S'\x01\x00\x00\x00'
p336
tp337
Rp338
tp339
a(F120.5824
F23.56152
I1
g1
(g5
S'\x04\x00\x00\x00'
p340
tp341
Rp342
tp343
a(F120.45032
F23.49517
I1
g1
(g5
S'\x01\x00\x00\x00'
p344
tp345
Rp346
tp347
a(F120.46459
F23.49183
I1
g1
(g5
S'\x01\x00\x00\x00'
p348
tp349
Rp350
tp351
a(F120.2644
F23.47764
I1
g1
(g5
S'\x02\x00\x00\x00'
p352
tp353
Rp354
tp355
a(F120.383
F23.433
I1
g1
(g5
S'\x01\x00\x00\x00'
p356
tp357
Rp358
tp359
a(F120.49817
F23.56883
I2
g1
(g5
S'\x03\x00\x00\x00'
p360
tp361
Rp362
tp363
a(F120.1709
F23.34128
I1
g1
(g5
S'\x00\x00\x00\x00'
p364
tp365
Rp366
tp367
a(F120.21923
F23.31842
I1
g1
(g5
S'\x00\x00\x00\x00'
p368
tp369
Rp370
tp371
a(F120.19462
F23.40968
I1
g1
(g5
S'\x00\x00\x00\x00'
p372
tp373
Rp374
tp375
a(F120.29664
F23.45918
I1
g1
(g5
S'\x02\x00\x00\x00'
p376
tp377
Rp378
tp379
a(F120.43007
F23.45948
I1
g1
(g5
S'\x01\x00\x00\x00'
p380
tp381
Rp382
tp383
a(F120.16085
F23.31826
I1
g1
(g5
S'\x00\x00\x00\x00'
p384
tp385
Rp386
tp387
a(F120.186
F23.37487
I1
g1
(g5
S'\x00\x00\x00\x00'
p388
tp389
Rp390
tp391
a(F120.42104
F23.55632
I1
g1
(g5
S'\x06\x00\x00\x00'
p392
tp393
Rp394
tp395
a(F120.24049
F23.46513
I1
g1
(g5
S'\x02\x00\x00\x00'
p396
tp397
Rp398
tp399
a(F120.44205
F23.5222
I1
g1
(g5
S'\x06\x00\x00\x00'
p400
tp401
Rp402
tp403
a(F120.32392
F23.5617
I1
g1
(g5
S'\x05\x00\x00\x00'
p404
tp405
Rp406
tp407
a(F120.46785
F23.4779
I1
g1
(g5
S'\x01\x00\x00\x00'
p408
tp409
Rp410
tp411
a(F120.44694
F23.52442
I1
g1
(g5
S'\x06\x00\x00\x00'
p412
tp413
Rp414
tp415
a(F120.45979
F23.60438
I1
g1
(g5
S'\x03\x00\x00\x00'
p416
tp417
Rp418
tp419
a(F120.40587
F23.51801
I1
g1
(g5
S'\x06\x00\x00\x00'
p420
tp421
Rp422
tp423
a(F120.4594
F23.60909
I2
g1
(g5
S'\x03\x00\x00\x00'
p424
tp425
Rp426
tp427
a(F120.34757
F23.55836
I1
g1
(g5
S'\x05\x00\x00\x00'
p428
tp429
Rp430
tp431
a(F120.36466
F23.49656
I1
g1
(g5
S'\x05\x00\x00\x00'
p432
tp433
Rp434
tp435
a(F120.52263
F23.4204
I1
g1
(g5
S'\x01\x00\x00\x00'
p436
tp437
Rp438
tp439
a(F120.50706
F23.48721
I1
g1
(g5
S'\x04\x00\x00\x00'
p440
tp441
Rp442
tp443
a(F120.35275
F23.55489
I1
g1
(g5
S'\x05\x00\x00\x00'
p444
tp445
Rp446
tp447
a(F120.45296
F23.47739
I1
g1
(g5
S'\x01\x00\x00\x00'
p448
tp449
Rp450
tp451
a(F120.31938
F23.45872
I1
g1
(g5
S'\x02\x00\x00\x00'
p452
tp453
Rp454
tp455
a(F120.46471
F23.50774
I1
g1
(g5
S'\x06\x00\x00\x00'
p456
tp457
Rp458
tp459
a(F120.45
F23.6
I1
g1
(g5
S'\x03\x00\x00\x00'
p460
tp461
Rp462
tp463
a(F120.24817
F23.33455
I2
g1
(g5
S'\x00\x00\x00\x00'
p464
tp465
Rp466
tp467
a(F120.25774
F23.34912
I1
g1
(g5
S'\x00\x00\x00\x00'
p468
tp469
Rp470
tp471
a(F120.45234
F23.60001
I1
g1
(g5
S'\x03\x00\x00\x00'
p472
tp473
Rp474
tp475
a(F120.44911
F23.4698
I2
g1
(g5
S'\x01\x00\x00\x00'
p476
tp477
Rp478
tp479
a(F120.4397
F23.54732
I1
g1
(g5
S'\x06\x00\x00\x00'
p480
tp481
Rp482
tp483
a(F120.44569
F23.46703
I1
g1
(g5
S'\x01\x00\x00\x00'
p484
tp485
Rp486
tp487
a(F120.46045
F23.46497
I1
g1
(g5
S'\x01\x00\x00\x00'
p488
tp489
Rp490
tp491
a(F120.54965
F23.52457
I1
g1
(g5
S'\x04\x00\x00\x00'
p492
tp493
Rp494
tp495
a(F120.41504
F23.56588
I1
g1
(g5
S'\x06\x00\x00\x00'
p496
tp497
Rp498
tp499
a(F120.54577
F23.52033
I1
g1
(g5
S'\x04\x00\x00\x00'
p500
tp501
Rp502
tp503
a(F120.4637
F23.48499
I1
g1
(g5
S'\x01\x00\x00\x00'
p504
tp505
Rp506
tp507
a(F120.46339
F23.54353
I1
g1
(g5
S'\x06\x00\x00\x00'
p508
tp509
Rp510
tp511
a(F120.43529
F23.47004
I1
g1
(g5
S'\x01\x00\x00\x00'
p512
tp513
Rp514
tp515
a(F120.48583
F23.44181
I1
g1
(g5
S'\x01\x00\x00\x00'
p516
tp517
Rp518
tp519
a.