(lp0
(F121.01297
F24.78458
I2
cnumpy.core.multiarray
scalar
p1
(cnumpy
dtype
p2
(S'i4'
p3
I0
I1
tp4
Rp5
(I3
S'<'
p6
NNNI-1
I-1
I0
tp7
bS'\x05\x00\x00\x00'
p8
tp9
Rp10
tp11
a(F121.02796
F24.80734
I1
g1
(g5
S'\x05\x00\x00\x00'
p12
tp13
Rp14
tp15
a(F121.02866
F24.83219
I2
g1
(g5
S'\x05\x00\x00\x00'
p16
tp17
Rp18
tp19
a(F120.94001
F24.7984
I1
g1
(g5
S'\x00\x00\x00\x00'
p20
tp21
Rp22
tp23
a(F121.02537
F24.8673
I1
g1
(g5
S'\x06\x00\x00\x00'
p24
tp25
Rp26
tp27
a(F120.97336
F24.81442
I1
g1
(g5
S'\x00\x00\x00\x00'
p28
tp29
Rp30
tp31
a(F120.98889
F24.80365
I1
g1
(g5
S'\x00\x00\x00\x00'
p32
tp33
Rp34
tp35
a(F121.02772
F24.8206
I1
g1
(g5
S'\x05\x00\x00\x00'
p36
tp37
Rp38
tp39
a(F120.97786
F24.79291
I1
g1
(g5
S'\x00\x00\x00\x00'
p40
tp41
Rp42
tp43
a(F120.95896
F24.81395
I1
g1
(g5
S'\x00\x00\x00\x00'
p44
tp45
Rp46
tp47
a(F121.05223
F24.90435
I1
g1
(g5
S'\x06\x00\x00\x00'
p48
tp49
Rp50
tp51
a(F120.97991
F24.88566
I1
g1
(g5
S'\x06\x00\x00\x00'
p52
tp53
Rp54
tp55
a(F121.00225
F24.88006
I1
g1
(g5
S'\x06\x00\x00\x00'
p56
tp57
Rp58
tp59
a(F121.09247
F24.73062
I1
g1
(g5
S'\x03\x00\x00\x00'
p60
tp61
Rp62
tp63
a(F121.03285
F24.89593
I1
g1
(g5
S'\x06\x00\x00\x00'
p64
tp65
Rp66
tp67
a(F121.03019
F24.82313
I1
g1
(g5
S'\x05\x00\x00\x00'
p68
tp69
Rp70
tp71
a(F121.02994
F24.77986
I1
g1
(g5
S'\x05\x00\x00\x00'
p72
tp73
Rp74
tp75
a(F121.61864
F25.06988
I1
g1
(g5
S'\x02\x00\x00\x00'
p76
tp77
Rp78
tp79
a(F120.99642
F24.88312
I1
g1
(g5
S'\x06\x00\x00\x00'
p80
tp81
Rp82
tp83
a(F121.0584
F24.8881
I1
g1
(g5
S'\x06\x00\x00\x00'
p84
tp85
Rp86
tp87
a(F121.08615
F24.7379
I1
g1
(g5
S'\x03\x00\x00\x00'
p88
tp89
Rp90
tp91
a(F121.00376
F24.79661
I1
g1
(g5
S'\x05\x00\x00\x00'
p92
tp93
Rp94
tp95
a(F121.01094
F24.83641
I1
g1
(g5
S'\x05\x00\x00\x00'
p96
tp97
Rp98
tp99
a(F120.98244
F24.8452
I1
g1
(g5
S'\x05\x00\x00\x00'
p100
tp101
Rp102
tp103
a(F121.04629
F24.90516
I1
g1
(g5
S'\x06\x00\x00\x00'
p104
tp105
Rp106
tp107
a(F120.96868
F24.82536
I1
g1
(g5
S'\x00\x00\x00\x00'
p108
tp109
Rp110
tp111
a(F121.05765
F24.87783
I1
g1
(g5
S'\x06\x00\x00\x00'
p112
tp113
Rp114
tp115
a(F121.00945
F24.82376
I3
g1
(g5
S'\x05\x00\x00\x00'
p116
tp117
Rp118
tp119
a(F121.48078
F25.00536
I1
g1
(g5
S'\x02\x00\x00\x00'
p120
tp121
Rp122
tp123
a(F120.99475
F24.86742
I1
g1
(g5
S'\x06\x00\x00\x00'
p124
tp125
Rp126
tp127
a(F120.97128
F24.8034
I2
g1
(g5
S'\x00\x00\x00\x00'
p128
tp129
Rp130
tp131
a(F120.35701
F22.58358
I1
g1
(g5
S'\x01\x00\x00\x00'
p132
tp133
Rp134
tp135
a(F121.1719
F24.78358
I1
g1
(g5
S'\x03\x00\x00\x00'
p136
tp137
Rp138
tp139
a(F121.47426
F25.05457
I1
g1
(g5
S'\x02\x00\x00\x00'
p140
tp141
Rp142
tp143
a(F121.09168
F24.73027
I1
g1
(g5
S'\x03\x00\x00\x00'
p144
tp145
Rp146
tp147
a(F121.02193
F24.8151
I1
g1
(g5
S'\x05\x00\x00\x00'
p148
tp149
Rp150
tp151
a(F120.29188
F22.79202
I1
g1
(g5
S'\x01\x00\x00\x00'
p152
tp153
Rp154
tp155
a(F120.93612
F24.77253
I1
g1
(g5
S'\x00\x00\x00\x00'
p156
tp157
Rp158
tp159
a(F120.95677
F24.79707
I1
g1
(g5
S'\x00\x00\x00\x00'
p160
tp161
Rp162
tp163
a(F120.96757
F24.82158
I1
g1
(g5
S'\x00\x00\x00\x00'
p164
tp165
Rp166
tp167
a(F120.97914
F24.7684
I1
g1
(g5
S'\x00\x00\x00\x00'
p168
tp169
Rp170
tp171
a(F121.01114
F24.86863
I1
g1
(g5
S'\x06\x00\x00\x00'
p172
tp173
Rp174
tp175
a(F120.98603
F24.80059
I1
g1
(g5
S'\x00\x00\x00\x00'
p176
tp177
Rp178
tp179
a(F121.00679
F24.80646
I1
g1
(g5
S'\x05\x00\x00\x00'
p180
tp181
Rp182
tp183
a(F121.02295
F24.86837
I1
g1
(g5
S'\x06\x00\x00\x00'
p184
tp185
Rp186
tp187
a(F120.98814
F24.80326
I1
g1
(g5
S'\x00\x00\x00\x00'
p188
tp189
Rp190
tp191
a(F120.97658
F24.91805
I1
g1
(g5
S'\x06\x00\x00\x00'
p192
tp193
Rp194
tp195
a(F121.1165
F24.86282
I1
g1
(g5
S'\x06\x00\x00\x00'
p196
tp197
Rp198
tp199
a(F120.99865
F24.82519
I1
g1
(g5
S'\x05\x00\x00\x00'
p200
tp201
Rp202
tp203
a(F121.0288
F24.814
I3
g1
(g5
S'\x05\x00\x00\x00'
p204
tp205
Rp206
tp207
a(F120.96696
F24.79562
I1
g1
(g5
S'\x00\x00\x00\x00'
p208
tp209
Rp210
tp211
a(F121.01744
F24.83108
I1
g1
(g5
S'\x05\x00\x00\x00'
p212
tp213
Rp214
tp215
a(F120.96307
F24.79462
I1
g1
(g5
S'\x00\x00\x00\x00'
p216
tp217
Rp218
tp219
a(F120.98078
F24.80612
I1
g1
(g5
S'\x00\x00\x00\x00'
p220
tp221
Rp222
tp223
a(F121.02981
F24.78926
I1
g1
(g5
S'\x05\x00\x00\x00'
p224
tp225
Rp226
tp227
a(F120.9333333333
F24.7666666667
I1
g1
(g5
S'\x00\x00\x00\x00'
p228
tp229
Rp230
tp231
a(F121.16231
F24.73874
I1
g1
(g5
S'\x03\x00\x00\x00'
p232
tp233
Rp234
tp235
a(F121.02281
F24.7811
I1
g1
(g5
S'\x05\x00\x00\x00'
p236
tp237
Rp238
tp239
a(F121.12327
F24.7183
I1
g1
(g5
S'\x03\x00\x00\x00'
p240
tp241
Rp242
tp243
a(F120.96078
F24.80306
I1
g1
(g5
S'\x00\x00\x00\x00'
p244
tp245
Rp246
tp247
a(F121.03171
F24.87125
I1
g1
(g5
S'\x06\x00\x00\x00'
p248
tp249
Rp250
tp251
a(F121.06451
F24.7635
I1
g1
(g5
S'\x03\x00\x00\x00'
p252
tp253
Rp254
tp255
a(F121.08036
F24.74761
I1
g1
(g5
S'\x03\x00\x00\x00'
p256
tp257
Rp258
tp259
a(F121.09499
F24.7313
I1
g1
(g5
S'\x03\x00\x00\x00'
p260
tp261
Rp262
tp263
a(F120.9634
F24.79678
I1
g1
(g5
S'\x00\x00\x00\x00'
p264
tp265
Rp266
tp267
a(F121.00662
F24.82582
I1
g1
(g5
S'\x05\x00\x00\x00'
p268
tp269
Rp270
tp271
a(F121.0118
F24.83321
I1
g1
(g5
S'\x05\x00\x00\x00'
p272
tp273
Rp274
tp275
a(F120.9502
F24.80612
I1
g1
(g5
S'\x00\x00\x00\x00'
p276
tp277
Rp278
tp279
a(F120.98459
F24.87148
I1
g1
(g5
S'\x06\x00\x00\x00'
p280
tp281
Rp282
tp283
a(F121.05333
F24.78455
I1
g1
(g5
S'\x05\x00\x00\x00'
p284
tp285
Rp286
tp287
a(F121.01798
F24.81682
I2
g1
(g5
S'\x05\x00\x00\x00'
p288
tp289
Rp290
tp291
a(F120.69873
F23.91984
I1
g1
(g5
S'\x04\x00\x00\x00'
p292
tp293
Rp294
tp295
a(F121.0146
F24.87246
I1
g1
(g5
S'\x06\x00\x00\x00'
p296
tp297
Rp298
tp299
a(F121.02452
F24.90091
I1
g1
(g5
S'\x06\x00\x00\x00'
p300
tp301
Rp302
tp303
a(F121.09152
F24.7233
I1
g1
(g5
S'\x03\x00\x00\x00'
p304
tp305
Rp306
tp307
a(F121.00095
F24.91624
I1
g1
(g5
S'\x06\x00\x00\x00'
p308
tp309
Rp310
tp311
a(F120.91562
F24.77155
I1
g1
(g5
S'\x00\x00\x00\x00'
p312
tp313
Rp314
tp315
a(F120.99667
F24.79728
I1
g1
(g5
S'\x05\x00\x00\x00'
p316
tp317
Rp318
tp319
a(F121.09655
F24.8793
I1
g1
(g5
S'\x06\x00\x00\x00'
p320
tp321
Rp322
tp323
a(F121.07633
F24.79056
I1
g1
(g5
S'\x03\x00\x00\x00'
p324
tp325
Rp326
tp327
a(F120.99605
F24.90333
I1
g1
(g5
S'\x06\x00\x00\x00'
p328
tp329
Rp330
tp331
a(F120.95135
F24.7992
I1
g1
(g5
S'\x00\x00\x00\x00'
p332
tp333
Rp334
tp335
a(F121.0424
F24.86284
I1
g1
(g5
S'\x06\x00\x00\x00'
p336
tp337
Rp338
tp339
a(F120.93592
F24.77888
I1
g1
(g5
S'\x00\x00\x00\x00'
p340
tp341
Rp342
tp343
a(F121.00952
F24.83114
I1
g1
(g5
S'\x05\x00\x00\x00'
p344
tp345
Rp346
tp347
a(F121.00036
F24.86985
I2
g1
(g5
S'\x06\x00\x00\x00'
p348
tp349
Rp350
tp351
a(F120.97673
F24.80652
I1
g1
(g5
S'\x00\x00\x00\x00'
p352
tp353
Rp354
tp355
a(F120.9493
F24.84565
I1
g1
(g5
S'\x00\x00\x00\x00'
p356
tp357
Rp358
tp359
a(F120.95799
F24.80857
I1
g1
(g5
S'\x00\x00\x00\x00'
p360
tp361
Rp362
tp363
a(F120.96647
F24.79764
I1
g1
(g5
S'\x00\x00\x00\x00'
p364
tp365
Rp366
tp367
a(F120.96561
F24.82201
I1
g1
(g5
S'\x00\x00\x00\x00'
p368
tp369
Rp370
tp371
a(F121.03645
F24.87115
I1
g1
(g5
S'\x06\x00\x00\x00'
p372
tp373
Rp374
tp375
a(F121.09792
F24.82541
I1
g1
(g5
S'\x03\x00\x00\x00'
p376
tp377
Rp378
tp379
a(F121.03281
F24.86997
I2
g1
(g5
S'\x06\x00\x00\x00'
p380
tp381
Rp382
tp383
a(F121.03691
F24.84697
I1
g1
(g5
S'\x06\x00\x00\x00'
p384
tp385
Rp386
tp387
a(F120.97823
F24.82194
I1
g1
(g5
S'\x00\x00\x00\x00'
p388
tp389
Rp390
tp391
a(F121.04172
F24.90583
I1
g1
(g5
S'\x06\x00\x00\x00'
p392
tp393
Rp394
tp395
a(F121.00815
F24.82118
I1
g1
(g5
S'\x05\x00\x00\x00'
p396
tp397
Rp398
tp399
a(F121.04939
F24.91657
I1
g1
(g5
S'\x06\x00\x00\x00'
p400
tp401
Rp402
tp403
a(F121.05008
F24.78019
I1
g1
(g5
S'\x05\x00\x00\x00'
p404
tp405
Rp406
tp407
a(F121.00417
F24.8346
I1
g1
(g5
S'\x05\x00\x00\x00'
p408
tp409
Rp410
tp411
a(F121.00569
F24.83995
I1
g1
(g5
S'\x05\x00\x00\x00'
p412
tp413
Rp414
tp415
a(F120.91915
F24.80769
I1
g1
(g5
S'\x00\x00\x00\x00'
p416
tp417
Rp418
tp419
a(F120.97001
F24.79521
I1
g1
(g5
S'\x00\x00\x00\x00'
p420
tp421
Rp422
tp423
a(F121.02895
F24.81874
I1
g1
(g5
S'\x05\x00\x00\x00'
p424
tp425
Rp426
tp427
a(F121.08517
F24.88897
I1
g1
(g5
S'\x06\x00\x00\x00'
p428
tp429
Rp430
tp431
a(F121.01058
F24.85966
I1
g1
(g5
S'\x06\x00\x00\x00'
p432
tp433
Rp434
tp435
a(F120.98334
F24.85461
I1
g1
(g5
S'\x06\x00\x00\x00'
p436
tp437
Rp438
tp439
a(F121.01178
F24.83776
I1
g1
(g5
S'\x05\x00\x00\x00'
p440
tp441
Rp442
tp443
a(F120.96758
F24.78887
I1
g1
(g5
S'\x00\x00\x00\x00'
p444
tp445
Rp446
tp447
a(F121.05481
F24.80207
I1
g1
(g5
S'\x05\x00\x00\x00'
p448
tp449
Rp450
tp451
a(F121.04881
F24.80897
I1
g1
(g5
S'\x05\x00\x00\x00'
p452
tp453
Rp454
tp455
a(F121.03551
F24.78243
I1
g1
(g5
S'\x05\x00\x00\x00'
p456
tp457
Rp458
tp459
a(F120.97566
F24.82461
I1
g1
(g5
S'\x00\x00\x00\x00'
p460
tp461
Rp462
tp463
a(F121.02152
F24.77801
I2
g1
(g5
S'\x05\x00\x00\x00'
p464
tp465
Rp466
tp467
a(F121.02677
F24.86985
I1
g1
(g5
S'\x06\x00\x00\x00'
p468
tp469
Rp470
tp471
a(F120.96653
F24.80992
I1
g1
(g5
S'\x00\x00\x00\x00'
p472
tp473
Rp474
tp475
a(F121.03003
F24.80506
I1
g1
(g5
S'\x05\x00\x00\x00'
p476
tp477
Rp478
tp479
a(F120.99621
F24.83907
I1
g1
(g5
S'\x05\x00\x00\x00'
p480
tp481
Rp482
tp483
a(F121.01335
F24.87056
I2
g1
(g5
S'\x06\x00\x00\x00'
p484
tp485
Rp486
tp487
a(F120.98598
F24.80403
I1
g1
(g5
S'\x00\x00\x00\x00'
p488
tp489
Rp490
tp491
a(F121.0432
F24.90126
I2
g1
(g5
S'\x06\x00\x00\x00'
p492
tp493
Rp494
tp495
a(F120.97603
F24.85099
I1
g1
(g5
S'\x00\x00\x00\x00'
p496
tp497
Rp498
tp499
a(F121.02607
F24.80852
I1
g1
(g5
S'\x05\x00\x00\x00'
p500
tp501
Rp502
tp503
a(F120.9715
F24.79816
I1
g1
(g5
S'\x00\x00\x00\x00'
p504
tp505
Rp506
tp507
a(F121.03115
F24.82245
I1
g1
(g5
S'\x05\x00\x00\x00'
p508
tp509
Rp510
tp511
a(F121.01656
F24.83474
I1
g1
(g5
S'\x05\x00\x00\x00'
p512
tp513
Rp514
tp515
a(F120.99932
F24.79753
I1
g1
(g5
S'\x05\x00\x00\x00'
p516
tp517
Rp518
tp519
a(F121.00872
F24.83381
I1
g1
(g5
S'\x05\x00\x00\x00'
p520
tp521
Rp522
tp523
a(F121.009
F24.78119
I1
g1
(g5
S'\x05\x00\x00\x00'
p524
tp525
Rp526
tp527
a(F121.01153
F24.81931
I1
g1
(g5
S'\x05\x00\x00\x00'
p528
tp529
Rp530
tp531
a(F120.98488
F24.86627
I1
g1
(g5
S'\x06\x00\x00\x00'
p532
tp533
Rp534
tp535
a(F121.11792
F24.80117
I1
g1
(g5
S'\x03\x00\x00\x00'
p536
tp537
Rp538
tp539
a(F121.04962
F24.88205
I1
g1
(g5
S'\x06\x00\x00\x00'
p540
tp541
Rp542
tp543
a(F121.03106
F24.8675
I1
g1
(g5
S'\x06\x00\x00\x00'
p544
tp545
Rp546
tp547
a(F121.0153
F24.78493
I1
g1
(g5
S'\x05\x00\x00\x00'
p548
tp549
Rp550
tp551
a(F121.02096
F24.7826
I1
g1
(g5
S'\x05\x00\x00\x00'
p552
tp553
Rp554
tp555
a(F120.96805
F24.82288
I1
g1
(g5
S'\x00\x00\x00\x00'
p556
tp557
Rp558
tp559
a(F120.99784
F24.67782
I1
g1
(g5
S'\x00\x00\x00\x00'
p560
tp561
Rp562
tp563
a(F120.98921
F24.90426
I1
g1
(g5
S'\x06\x00\x00\x00'
p564
tp565
Rp566
tp567
a(F120.95554
F24.80368
I1
g1
(g5
S'\x00\x00\x00\x00'
p568
tp569
Rp570
tp571
a(F120.96842
F24.76433
I1
g1
(g5
S'\x00\x00\x00\x00'
p572
tp573
Rp574
tp575
a(F120.98187
F24.7776
I2
g1
(g5
S'\x00\x00\x00\x00'
p576
tp577
Rp578
tp579
a(F120.95786
F24.80362
I1
g1
(g5
S'\x00\x00\x00\x00'
p580
tp581
Rp582
tp583
a(F121.0708
F24.8812
I1
g1
(g5
S'\x06\x00\x00\x00'
p584
tp585
Rp586
tp587
a(F121.00754
F24.74702
I1
g1
(g5
S'\x00\x00\x00\x00'
p588
tp589
Rp590
tp591
a(F121.01519
F24.88891
I1
g1
(g5
S'\x06\x00\x00\x00'
p592
tp593
Rp594
tp595
a(F120.98529
F24.6819
I1
g1
(g5
S'\x00\x00\x00\x00'
p596
tp597
Rp598
tp599
a(F120.97869
F24.81919
I1
g1
(g5
S'\x00\x00\x00\x00'
p600
tp601
Rp602
tp603
a(F121.00695
F24.85901
I1
g1
(g5
S'\x06\x00\x00\x00'
p604
tp605
Rp606
tp607
a(F121.00598
F24.83045
I1
g1
(g5
S'\x05\x00\x00\x00'
p608
tp609
Rp610
tp611
a(F121.08555
F24.79382
I1
g1
(g5
S'\x03\x00\x00\x00'
p612
tp613
Rp614
tp615
a(F120.99664
F24.80254
I1
g1
(g5
S'\x05\x00\x00\x00'
p616
tp617
Rp618
tp619
a(F121.09654
F24.74286
I1
g1
(g5
S'\x03\x00\x00\x00'
p620
tp621
Rp622
tp623
a(F120.98512
F24.81197
I1
g1
(g5
S'\x00\x00\x00\x00'
p624
tp625
Rp626
tp627
a(F120.99259
F24.79954
I1
g1
(g5
S'\x00\x00\x00\x00'
p628
tp629
Rp630
tp631
a(F121.00605
F24.89636
I1
g1
(g5
S'\x06\x00\x00\x00'
p632
tp633
Rp634
tp635
a(F120.99645
F24.7809
I1
g1
(g5
S'\x00\x00\x00\x00'
p636
tp637
Rp638
tp639
a(F121.05576
F24.87738
I1
g1
(g5
S'\x06\x00\x00\x00'
p640
tp641
Rp642
tp643
a(F121.03718
F24.87601
I1
g1
(g5
S'\x06\x00\x00\x00'
p644
tp645
Rp646
tp647
a(F120.95765
F24.80961
I1
g1
(g5
S'\x00\x00\x00\x00'
p648
tp649
Rp650
tp651
a(F121.00936
F24.78602
I1
g1
(g5
S'\x05\x00\x00\x00'
p652
tp653
Rp654
tp655
a(F121.26104
F24.77988
I2
g1
(g5
S'\x03\x00\x00\x00'
p656
tp657
Rp658
tp659
a(F121.09201
F24.71635
I1
g1
(g5
S'\x03\x00\x00\x00'
p660
tp661
Rp662
tp663
a.