(lp0
(F121.62201
F23.98887
I1
cnumpy.core.multiarray
scalar
p1
(cnumpy
dtype
p2
(S'i4'
p3
I0
I1
tp4
Rp5
(I3
S'<'
p6
NNNI-1
I-1
I0
tp7
bS'\x00\x00\x00\x00'
p8
tp9
Rp10
tp11
a(F121.60656
F24.02329
I1
g1
(g5
S'\x00\x00\x00\x00'
p12
tp13
Rp14
tp15
a(F121.60846
F24.02062
I1
g1
(g5
S'\x00\x00\x00\x00'
p16
tp17
Rp18
tp19
a(F121.59815
F23.98884
I1
g1
(g5
S'\x05\x00\x00\x00'
p20
tp21
Rp22
tp23
a(F121.60605
F23.97391
I1
g1
(g5
S'\x05\x00\x00\x00'
p24
tp25
Rp26
tp27
a(F121.44789
F23.74143
I1
g1
(g5
S'\x06\x00\x00\x00'
p28
tp29
Rp30
tp31
a(F121.50688
F23.87845
I2
g1
(g5
S'\x02\x00\x00\x00'
p32
tp33
Rp34
tp35
a(F121.60781
F23.98096
I1
g1
(g5
S'\x05\x00\x00\x00'
p36
tp37
Rp38
tp39
a(F121.56997
F23.99851
I1
g1
(g5
S'\x05\x00\x00\x00'
p40
tp41
Rp42
tp43
a(F121.59832
F23.99375
I1
g1
(g5
S'\x05\x00\x00\x00'
p44
tp45
Rp46
tp47
a(F121.57035
F23.99677
I1
g1
(g5
S'\x05\x00\x00\x00'
p48
tp49
Rp50
tp51
a(F121.59471
F23.96721
I1
g1
(g5
S'\x05\x00\x00\x00'
p52
tp53
Rp54
tp55
a(F121.49182
F25.07114
I1
g1
(g5
S'\x01\x00\x00\x00'
p56
tp57
Rp58
tp59
a(F121.58296
F23.97291
I1
g1
(g5
S'\x05\x00\x00\x00'
p60
tp61
Rp62
tp63
a(F121.63106
F24.00013
I2
g1
(g5
S'\x00\x00\x00\x00'
p64
tp65
Rp66
tp67
a(F121.59721
F23.99447
I1
g1
(g5
S'\x05\x00\x00\x00'
p68
tp69
Rp70
tp71
a(F121.42593
F23.64399
I1
g1
(g5
S'\x03\x00\x00\x00'
p72
tp73
Rp74
tp75
a(F121.57442
F23.99341
I1
g1
(g5
S'\x05\x00\x00\x00'
p76
tp77
Rp78
tp79
a(F121.5951
F23.95411
I1
g1
(g5
S'\x05\x00\x00\x00'
p80
tp81
Rp82
tp83
a(F121.59832
F23.9699
I1
g1
(g5
S'\x05\x00\x00\x00'
p84
tp85
Rp86
tp87
a(F121.59028
F23.98505
I1
g1
(g5
S'\x05\x00\x00\x00'
p88
tp89
Rp90
tp91
a(F121.61141
F23.97657
I1
g1
(g5
S'\x05\x00\x00\x00'
p92
tp93
Rp94
tp95
a(F121.54141
F23.8975
I1
g1
(g5
S'\x02\x00\x00\x00'
p96
tp97
Rp98
tp99
a(F121.5906
F23.99386
I1
g1
(g5
S'\x05\x00\x00\x00'
p100
tp101
Rp102
tp103
a(F121.45053
F23.65668
I1
g1
(g5
S'\x03\x00\x00\x00'
p104
tp105
Rp106
tp107
a(F121.60255
F24.02905
I1
g1
(g5
S'\x00\x00\x00\x00'
p108
tp109
Rp110
tp111
a(F121.59312
F23.98923
I1
g1
(g5
S'\x05\x00\x00\x00'
p112
tp113
Rp114
tp115
a(F121.6
F23.9833333333
I1
g1
(g5
S'\x05\x00\x00\x00'
p116
tp117
Rp118
tp119
a(F121.63055
F24.02748
I1
g1
(g5
S'\x00\x00\x00\x00'
p120
tp121
Rp122
tp123
a(F121.57476
F23.99264
I1
g1
(g5
S'\x05\x00\x00\x00'
p124
tp125
Rp126
tp127
a(F121.50352
F23.84503
I1
g1
(g5
S'\x02\x00\x00\x00'
p128
tp129
Rp130
tp131
a(F121.56638
F23.98204
I1
g1
(g5
S'\x05\x00\x00\x00'
p132
tp133
Rp134
tp135
a(F121.57453
F23.99608
I2
g1
(g5
S'\x05\x00\x00\x00'
p136
tp137
Rp138
tp139
a(F121.50541
F25.04257
I1
g1
(g5
S'\x01\x00\x00\x00'
p140
tp141
Rp142
tp143
a(F121.32041
F23.32474
I1
g1
(g5
S'\x04\x00\x00\x00'
p144
tp145
Rp146
tp147
a(F121.59519
F23.99614
I1
g1
(g5
S'\x05\x00\x00\x00'
p148
tp149
Rp150
tp151
a(F121.50371
F23.59392
I1
g1
(g5
S'\x03\x00\x00\x00'
p152
tp153
Rp154
tp155
a(F121.54592
F23.85945
I1
g1
(g5
S'\x02\x00\x00\x00'
p156
tp157
Rp158
tp159
a(F121.61871
F24.02156
I1
g1
(g5
S'\x00\x00\x00\x00'
p160
tp161
Rp162
tp163
a.