(lp0
(F121.75659
F24.67519
I1
cnumpy.core.multiarray
scalar
p1
(cnumpy
dtype
p2
(S'i4'
p3
I0
I1
tp4
Rp5
(I3
S'<'
p6
NNNI-1
I-1
I0
tp7
bS'\x00\x00\x00\x00'
p8
tp9
Rp10
tp11
a(F121.5307
F23.91307
I1
g1
(g5
S'\x02\x00\x00\x00'
p12
tp13
Rp14
tp15
a(F121.73318
F24.74777
I1
g1
(g5
S'\x03\x00\x00\x00'
p16
tp17
Rp18
tp19
a(F121.72839
F24.81385
I3
g1
(g5
S'\x03\x00\x00\x00'
p20
tp21
Rp22
tp23
a(F121.71212
F24.77015
I1
g1
(g5
S'\x03\x00\x00\x00'
p24
tp25
Rp26
tp27
a(F121.54161
F25.05634
I1
g1
(g5
S'\x04\x00\x00\x00'
p28
tp29
Rp30
tp31
a(F121.76981
F24.76579
I1
g1
(g5
S'\x03\x00\x00\x00'
p32
tp33
Rp34
tp35
a(F121.81251
F24.67504
I1
g1
(g5
S'\x06\x00\x00\x00'
p36
tp37
Rp38
tp39
a(F121.83744
F24.61846
I1
g1
(g5
S'\x06\x00\x00\x00'
p40
tp41
Rp42
tp43
a(F121.71422
F24.73382
I1
g1
(g5
S'\x03\x00\x00\x00'
p44
tp45
Rp46
tp47
a(F120.62491
F22.42582
I1
g1
(g5
S'\x01\x00\x00\x00'
p48
tp49
Rp50
tp51
a(F121.84139
F24.59448
I1
g1
(g5
S'\x06\x00\x00\x00'
p52
tp53
Rp54
tp55
a(F121.79917
F24.62784
I1
g1
(g5
S'\x06\x00\x00\x00'
p56
tp57
Rp58
tp59
a(F121.72066
F24.70925
I1
g1
(g5
S'\x00\x00\x00\x00'
p60
tp61
Rp62
tp63
a(F121.82846
F24.65078
I1
g1
(g5
S'\x06\x00\x00\x00'
p64
tp65
Rp66
tp67
a(F121.74921
F24.74131
I1
g1
(g5
S'\x03\x00\x00\x00'
p68
tp69
Rp70
tp71
a(F121.54723
F24.51752
I1
g1
(g5
S'\x05\x00\x00\x00'
p72
tp73
Rp74
tp75
a(F121.78901
F24.7453
I1
g1
(g5
S'\x03\x00\x00\x00'
p76
tp77
Rp78
tp79
a(F121.75905
F24.67891
I1
g1
(g5
S'\x00\x00\x00\x00'
p80
tp81
Rp82
tp83
a(F121.76085
F24.68641
I1
g1
(g5
S'\x00\x00\x00\x00'
p84
tp85
Rp86
tp87
a(F121.80746
F24.67395
I1
g1
(g5
S'\x06\x00\x00\x00'
p88
tp89
Rp90
tp91
a(F121.65622
F24.668
I1
g1
(g5
S'\x00\x00\x00\x00'
p92
tp93
Rp94
tp95
a(F121.75413
F24.75208
I1
g1
(g5
S'\x03\x00\x00\x00'
p96
tp97
Rp98
tp99
a(F121.75676
F24.77895
I1
g1
(g5
S'\x03\x00\x00\x00'
p100
tp101
Rp102
tp103
a(F121.76792
F24.70086
I1
g1
(g5
S'\x00\x00\x00\x00'
p104
tp105
Rp106
tp107
a(F121.78485
F24.7478
I1
g1
(g5
S'\x03\x00\x00\x00'
p108
tp109
Rp110
tp111
a(F121.76964
F24.74954
I1
g1
(g5
S'\x03\x00\x00\x00'
p112
tp113
Rp114
tp115
a(F121.75232
F24.75207
I1
g1
(g5
S'\x03\x00\x00\x00'
p116
tp117
Rp118
tp119
a(F121.76968
F24.68391
I1
g1
(g5
S'\x00\x00\x00\x00'
p120
tp121
Rp122
tp123
a(F121.83662
F24.62068
I1
g1
(g5
S'\x06\x00\x00\x00'
p124
tp125
Rp126
tp127
a(F121.76328
F24.67749
I1
g1
(g5
S'\x00\x00\x00\x00'
p128
tp129
Rp130
tp131
a(F121.79918
F24.76811
I1
g1
(g5
S'\x03\x00\x00\x00'
p132
tp133
Rp134
tp135
a(F121.74598
F24.74335
I2
g1
(g5
S'\x03\x00\x00\x00'
p136
tp137
Rp138
tp139
a(F121.79416
F24.75988
I1
g1
(g5
S'\x03\x00\x00\x00'
p140
tp141
Rp142
tp143
a(F121.75143
F24.74922
I1
g1
(g5
S'\x03\x00\x00\x00'
p144
tp145
Rp146
tp147
a(F121.76941
F24.68321
I1
g1
(g5
S'\x00\x00\x00\x00'
p148
tp149
Rp150
tp151
a(F121.82682
F24.63449
I1
g1
(g5
S'\x06\x00\x00\x00'
p152
tp153
Rp154
tp155
a(F121.78329
F24.70593
I1
g1
(g5
S'\x00\x00\x00\x00'
p156
tp157
Rp158
tp159
a(F121.79826
F24.68457
I2
g1
(g5
S'\x00\x00\x00\x00'
p160
tp161
Rp162
tp163
a(F121.75679
F24.65332
I1
g1
(g5
S'\x00\x00\x00\x00'
p164
tp165
Rp166
tp167
a(F121.73521
F24.74284
I1
g1
(g5
S'\x03\x00\x00\x00'
p168
tp169
Rp170
tp171
a(F121.71601
F24.77704
I1
g1
(g5
S'\x03\x00\x00\x00'
p172
tp173
Rp174
tp175
a(F121.76116
F24.75768
I1
g1
(g5
S'\x03\x00\x00\x00'
p176
tp177
Rp178
tp179
a.