(lp0
(F121.79745
F25.13916
I1
cnumpy.core.multiarray
scalar
p1
(cnumpy
dtype
p2
(S'i4'
p3
I0
I1
tp4
Rp5
(I3
S'<'
p6
NNNI-1
I-1
I0
tp7
bS'\x04\x00\x00\x00'
p8
tp9
Rp10
tp11
a(F121.7179
F25.12173
I1
g1
(g5
S'\x05\x00\x00\x00'
p12
tp13
Rp14
tp15
a(F121.77599
F25.13081
I1
g1
(g5
S'\x01\x00\x00\x00'
p16
tp17
Rp18
tp19
a(F121.73448
F25.09811
I1
g1
(g5
S'\x06\x00\x00\x00'
p20
tp21
Rp22
tp23
a(F121.69331
F25.15886
I1
g1
(g5
S'\x00\x00\x00\x00'
p24
tp25
Rp26
tp27
a(F121.74925
F25.13479
I1
g1
(g5
S'\x03\x00\x00\x00'
p28
tp29
Rp30
tp31
a(F121.74793
F25.10249
I1
g1
(g5
S'\x06\x00\x00\x00'
p32
tp33
Rp34
tp35
a(F121.75097
F25.13701
I1
g1
(g5
S'\x03\x00\x00\x00'
p36
tp37
Rp38
tp39
a(F121.72485
F25.12243
I1
g1
(g5
S'\x05\x00\x00\x00'
p40
tp41
Rp42
tp43
a(F121.70036
F25.09207
I1
g1
(g5
S'\x02\x00\x00\x00'
p44
tp45
Rp46
tp47
a(F121.74454
F25.13256
I1
g1
(g5
S'\x03\x00\x00\x00'
p48
tp49
Rp50
tp51
a(F121.78529
F25.13621
I2
g1
(g5
S'\x04\x00\x00\x00'
p52
tp53
Rp54
tp55
a(F121.71273
F25.16137
I1
g1
(g5
S'\x00\x00\x00\x00'
p56
tp57
Rp58
tp59
a(F121.75252
F25.13901
I1
g1
(g5
S'\x03\x00\x00\x00'
p60
tp61
Rp62
tp63
a(F121.71902
F25.12988
I1
g1
(g5
S'\x05\x00\x00\x00'
p64
tp65
Rp66
tp67
a(F121.77603
F25.13788
I1
g1
(g5
S'\x01\x00\x00\x00'
p68
tp69
Rp70
tp71
a(F121.7109
F25.09737
I1
g1
(g5
S'\x02\x00\x00\x00'
p72
tp73
Rp74
tp75
a(F121.74855
F25.12734
I3
g1
(g5
S'\x03\x00\x00\x00'
p76
tp77
Rp78
tp79
a(F121.71139
F25.10076
I1
g1
(g5
S'\x02\x00\x00\x00'
p80
tp81
Rp82
tp83
a(F121.76015
F25.12803
I1
g1
(g5
S'\x03\x00\x00\x00'
p84
tp85
Rp86
tp87
a(F121.72373
F25.12083
I1
g1
(g5
S'\x05\x00\x00\x00'
p88
tp89
Rp90
tp91
a(F121.76443
F25.13243
I1
g1
(g5
S'\x01\x00\x00\x00'
p92
tp93
Rp94
tp95
a(F121.77127
F25.1361
I1
g1
(g5
S'\x01\x00\x00\x00'
p96
tp97
Rp98
tp99
a(F121.71694
F25.12735
I2
g1
(g5
S'\x05\x00\x00\x00'
p100
tp101
Rp102
tp103
a(F121.68419
F25.09244
I1
g1
(g5
S'\x02\x00\x00\x00'
p104
tp105
Rp106
tp107
a(F121.72939
F25.13045
I1
g1
(g5
S'\x05\x00\x00\x00'
p108
tp109
Rp110
tp111
a(F121.76174
F25.13996
I1
g1
(g5
S'\x01\x00\x00\x00'
p112
tp113
Rp114
tp115
a(F121.77441
F25.13567
I1
g1
(g5
S'\x01\x00\x00\x00'
p116
tp117
Rp118
tp119
a(F121.72833
F25.147
I1
g1
(g5
S'\x00\x00\x00\x00'
p120
tp121
Rp122
tp123
a(F121.74763
F25.14504
I1
g1
(g5
S'\x03\x00\x00\x00'
p124
tp125
Rp126
tp127
a(F121.7155
F25.14093
I1
g1
(g5
S'\x00\x00\x00\x00'
p128
tp129
Rp130
tp131
a(F121.70175
F25.11923
I1
g1
(g5
S'\x05\x00\x00\x00'
p132
tp133
Rp134
tp135
a(F121.77005
F25.15109
I1
g1
(g5
S'\x01\x00\x00\x00'
p136
tp137
Rp138
tp139
a(F121.76159
F25.12716
I1
g1
(g5
S'\x03\x00\x00\x00'
p140
tp141
Rp142
tp143
a(F121.79191
F25.14215
I1
g1
(g5
S'\x04\x00\x00\x00'
p144
tp145
Rp146
tp147
a.