(lp0
(F120.716
F24.4075
I1
cnumpy.core.multiarray
scalar
p1
(cnumpy
dtype
p2
(S'i4'
p3
I0
I1
tp4
Rp5
(I3
S'<'
p6
NNNI-1
I-1
I0
tp7
bS'\x01\x00\x00\x00'
p8
tp9
Rp10
tp11
a(F120.9019
F24.68818
I1
g1
(g5
S'\x00\x00\x00\x00'
p12
tp13
Rp14
tp15
a(F120.81276
F24.55808
I1
g1
(g5
S'\x03\x00\x00\x00'
p16
tp17
Rp18
tp19
a(F120.918
F24.71159
I1
g1
(g5
S'\x00\x00\x00\x00'
p20
tp21
Rp22
tp23
a(F120.93402
F24.68161
I1
g1
(g5
S'\x00\x00\x00\x00'
p24
tp25
Rp26
tp27
a(F120.86596
F24.42258
I1
g1
(g5
S'\x05\x00\x00\x00'
p28
tp29
Rp30
tp31
a(F120.8836
F24.68179
I1
g1
(g5
S'\x00\x00\x00\x00'
p32
tp33
Rp34
tp35
a(F120.88633
F24.68404
I1
g1
(g5
S'\x00\x00\x00\x00'
p36
tp37
Rp38
tp39
a(F120.86026
F24.69287
I1
g1
(g5
S'\x00\x00\x00\x00'
p40
tp41
Rp42
tp43
a(F120.82801
F24.52256
I1
g1
(g5
S'\x03\x00\x00\x00'
p44
tp45
Rp46
tp47
a(F120.86194
F24.6862
I1
g1
(g5
S'\x00\x00\x00\x00'
p48
tp49
Rp50
tp51
a(F120.85262
F24.57621
I1
g1
(g5
S'\x03\x00\x00\x00'
p52
tp53
Rp54
tp55
a(F120.87505
F24.70598
I1
g1
(g5
S'\x00\x00\x00\x00'
p56
tp57
Rp58
tp59
a(F120.92775
F24.71058
I3
g1
(g5
S'\x00\x00\x00\x00'
p60
tp61
Rp62
tp63
a(F120.65524
F24.42223
I1
g1
(g5
S'\x01\x00\x00\x00'
p64
tp65
Rp66
tp67
a(F120.69799
F24.5002
I1
g1
(g5
S'\x01\x00\x00\x00'
p68
tp69
Rp70
tp71
a(F120.87129
F24.67083
I1
g1
(g5
S'\x00\x00\x00\x00'
p72
tp73
Rp74
tp75
a(F120.73608
F24.48222
I1
g1
(g5
S'\x01\x00\x00\x00'
p76
tp77
Rp78
tp79
a(F121.46943
F25.04387
I1
g1
(g5
S'\x02\x00\x00\x00'
p80
tp81
Rp82
tp83
a(F120.81864
F24.61847
I2
g1
(g5
S'\x03\x00\x00\x00'
p84
tp85
Rp86
tp87
a(F120.7377
F24.39771
I1
g1
(g5
S'\x05\x00\x00\x00'
p88
tp89
Rp90
tp91
a(F120.79372
F24.61385
I1
g1
(g5
S'\x03\x00\x00\x00'
p92
tp93
Rp94
tp95
a(F120.82628
F24.31263
I1
g1
(g5
S'\x05\x00\x00\x00'
p96
tp97
Rp98
tp99
a(F120.89052
F24.62392
I1
g1
(g5
S'\x00\x00\x00\x00'
p100
tp101
Rp102
tp103
a(F120.91186
F24.71141
I1
g1
(g5
S'\x00\x00\x00\x00'
p104
tp105
Rp106
tp107
a(F120.90796
F24.68668
I1
g1
(g5
S'\x00\x00\x00\x00'
p108
tp109
Rp110
tp111
a(F120.79357
F24.56223
I1
g1
(g5
S'\x03\x00\x00\x00'
p112
tp113
Rp114
tp115
a(F120.65068
F24.43575
I1
g1
(g5
S'\x01\x00\x00\x00'
p116
tp117
Rp118
tp119
a(F121.19088
F25.0863
I1
g1
(g5
S'\x04\x00\x00\x00'
p120
tp121
Rp122
tp123
a(F120.65135
F24.44604
I1
g1
(g5
S'\x01\x00\x00\x00'
p124
tp125
Rp126
tp127
a(F120.87704
F24.69608
I1
g1
(g5
S'\x00\x00\x00\x00'
p128
tp129
Rp130
tp131
a(F120.6972
F24.53856
I1
g1
(g5
S'\x01\x00\x00\x00'
p132
tp133
Rp134
tp135
a(F120.77507
F24.61167
I1
g1
(g5
S'\x03\x00\x00\x00'
p136
tp137
Rp138
tp139
a(F120.7749
F24.40961
I2
g1
(g5
S'\x05\x00\x00\x00'
p140
tp141
Rp142
tp143
a(F120.67613
F24.43198
I1
g1
(g5
S'\x01\x00\x00\x00'
p144
tp145
Rp146
tp147
a(F120.93267
F24.69594
I1
g1
(g5
S'\x00\x00\x00\x00'
p148
tp149
Rp150
tp151
a(F120.77428
F24.42083
I1
g1
(g5
S'\x05\x00\x00\x00'
p152
tp153
Rp154
tp155
a(F120.87296
F24.71553
I1
g1
(g5
S'\x00\x00\x00\x00'
p156
tp157
Rp158
tp159
a(F121.01346
F24.61882
I2
g1
(g5
S'\x06\x00\x00\x00'
p160
tp161
Rp162
tp163
a(F120.82864
F24.56283
I2
g1
(g5
S'\x03\x00\x00\x00'
p164
tp165
Rp166
tp167
a(F120.6609
F24.4465
I1
g1
(g5
S'\x01\x00\x00\x00'
p168
tp169
Rp170
tp171
a(F120.87387
F24.69335
I1
g1
(g5
S'\x00\x00\x00\x00'
p172
tp173
Rp174
tp175
a(F120.81155
F24.5467
I2
g1
(g5
S'\x03\x00\x00\x00'
p176
tp177
Rp178
tp179
a(F120.82203
F24.55439
I1
g1
(g5
S'\x03\x00\x00\x00'
p180
tp181
Rp182
tp183
a(F120.88206
F24.65443
I1
g1
(g5
S'\x00\x00\x00\x00'
p184
tp185
Rp186
tp187
a(F120.92576
F24.68646
I1
g1
(g5
S'\x00\x00\x00\x00'
p188
tp189
Rp190
tp191
a(F120.86354
F24.44226
I1
g1
(g5
S'\x05\x00\x00\x00'
p192
tp193
Rp194
tp195
a(F120.82955
F24.57381
I1
g1
(g5
S'\x03\x00\x00\x00'
p196
tp197
Rp198
tp199
a(F120.75938
F24.38695
I1
g1
(g5
S'\x05\x00\x00\x00'
p200
tp201
Rp202
tp203
a(F120.82872
F24.31303
I1
g1
(g5
S'\x05\x00\x00\x00'
p204
tp205
Rp206
tp207
a(F120.79805
F24.3951
I1
g1
(g5
S'\x05\x00\x00\x00'
p208
tp209
Rp210
tp211
a(F120.84852
F24.694
I1
g1
(g5
S'\x00\x00\x00\x00'
p212
tp213
Rp214
tp215
a(F120.69068
F24.5147
I1
g1
(g5
S'\x01\x00\x00\x00'
p216
tp217
Rp218
tp219
a(F120.8596
F24.68722
I1
g1
(g5
S'\x00\x00\x00\x00'
p220
tp221
Rp222
tp223
a(F120.80682
F24.50274
I1
g1
(g5
S'\x03\x00\x00\x00'
p224
tp225
Rp226
tp227
a(F120.90114
F24.68507
I1
g1
(g5
S'\x00\x00\x00\x00'
p228
tp229
Rp230
tp231
a(F120.85231
F24.68827
I1
g1
(g5
S'\x00\x00\x00\x00'
p232
tp233
Rp234
tp235
a(F120.64701
F24.45342
I1
g1
(g5
S'\x01\x00\x00\x00'
p236
tp237
Rp238
tp239
a(F120.87183
F24.68484
I1
g1
(g5
S'\x00\x00\x00\x00'
p240
tp241
Rp242
tp243
a(F120.8964
F24.71058
I1
g1
(g5
S'\x00\x00\x00\x00'
p244
tp245
Rp246
tp247
a(F120.87286
F24.6569
I1
g1
(g5
S'\x00\x00\x00\x00'
p248
tp249
Rp250
tp251
a(F120.82698
F24.49847
I2
g1
(g5
S'\x03\x00\x00\x00'
p252
tp253
Rp254
tp255
a(F120.86564
F24.68262
I1
g1
(g5
S'\x00\x00\x00\x00'
p256
tp257
Rp258
tp259
a(F120.77435
F24.62802
I1
g1
(g5
S'\x03\x00\x00\x00'
p260
tp261
Rp262
tp263
a(F120.91659
F24.69771
I1
g1
(g5
S'\x00\x00\x00\x00'
p264
tp265
Rp266
tp267
a(F120.82154
F24.57617
I1
g1
(g5
S'\x03\x00\x00\x00'
p268
tp269
Rp270
tp271
a(F121.53873
F25.04143
I1
g1
(g5
S'\x02\x00\x00\x00'
p272
tp273
Rp274
tp275
a(F121.24764
F24.9462
I1
g1
(g5
S'\x04\x00\x00\x00'
p276
tp277
Rp278
tp279
a.