(lp0
(F120.77674
F23.75147
I1
cnumpy.core.multiarray
scalar
p1
(cnumpy
dtype
p2
(S'i4'
p3
I0
I1
tp4
Rp5
(I3
S'<'
p6
NNNI-1
I-1
I0
tp7
bS'\x03\x00\x00\x00'
p8
tp9
Rp10
tp11
a(F120.67074
F23.99307
I1
g1
(g5
S'\x00\x00\x00\x00'
p12
tp13
Rp14
tp15
a(F120.92758
F23.94975
I2
g1
(g5
S'\x02\x00\x00\x00'
p16
tp17
Rp18
tp19
a(F120.93783
F23.99695
I1
g1
(g5
S'\x02\x00\x00\x00'
p20
tp21
Rp22
tp23
a(F120.69671
F23.86168
I1
g1
(g5
S'\x05\x00\x00\x00'
p24
tp25
Rp26
tp27
a(F120.97511
F23.96823
I1
g1
(g5
S'\x02\x00\x00\x00'
p28
tp29
Rp30
tp31
a(F120.96975
F23.96645
I1
g1
(g5
S'\x02\x00\x00\x00'
p32
tp33
Rp34
tp35
a(F120.91376
F23.87086
I1
g1
(g5
S'\x02\x00\x00\x00'
p36
tp37
Rp38
tp39
a(F120.66396
F24.1129
I1
g1
(g5
S'\x00\x00\x00\x00'
p40
tp41
Rp42
tp43
a(F120.69787
F23.93966
I1
g1
(g5
S'\x05\x00\x00\x00'
p44
tp45
Rp46
tp47
a(F120.75
F23.833
I1
g1
(g5
S'\x03\x00\x00\x00'
p48
tp49
Rp50
tp51
a(F120.89062
F23.5466
I2
g1
(g5
S'\x04\x00\x00\x00'
p52
tp53
Rp54
tp55
a(F120.68108
F23.97728
I1
g1
(g5
S'\x00\x00\x00\x00'
p56
tp57
Rp58
tp59
a(F120.68703
F24.00736
I1
g1
(g5
S'\x00\x00\x00\x00'
p60
tp61
Rp62
tp63
a(F120.68724
F23.96504
I1
g1
(g5
S'\x00\x00\x00\x00'
p64
tp65
Rp66
tp67
a(F120.66489
F23.7691
I1
g1
(g5
S'\x03\x00\x00\x00'
p68
tp69
Rp70
tp71
a(F120.82394
F24.014
I1
g1
(g5
S'\x02\x00\x00\x00'
p72
tp73
Rp74
tp75
a(F120.70733
F23.85031
I1
g1
(g5
S'\x05\x00\x00\x00'
p76
tp77
Rp78
tp79
a(F120.97576
F23.96764
I1
g1
(g5
S'\x02\x00\x00\x00'
p80
tp81
Rp82
tp83
a(F120.68168
F23.91137
I1
g1
(g5
S'\x05\x00\x00\x00'
p84
tp85
Rp86
tp87
a(F120.92215
F24.0244
I1
g1
(g5
S'\x02\x00\x00\x00'
p88
tp89
Rp90
tp91
a(F120.70452
F23.99198
I1
g1
(g5
S'\x00\x00\x00\x00'
p92
tp93
Rp94
tp95
a(F120.70392
F23.93843
I1
g1
(g5
S'\x05\x00\x00\x00'
p96
tp97
Rp98
tp99
a(F121.14871
F24.02688
I1
g1
(g5
S'\x06\x00\x00\x00'
p100
tp101
Rp102
tp103
a(F120.78699
F23.82838
I1
g1
(g5
S'\x03\x00\x00\x00'
p104
tp105
Rp106
tp107
a(F120.68239
F23.82376
I1
g1
(g5
S'\x03\x00\x00\x00'
p108
tp109
Rp110
tp111
a(F120.667
F23.767
I1
g1
(g5
S'\x03\x00\x00\x00'
p112
tp113
Rp114
tp115
a(F120.69802
F23.90829
I1
g1
(g5
S'\x05\x00\x00\x00'
p116
tp117
Rp118
tp119
a(F120.94922
F23.98349
I1
g1
(g5
S'\x02\x00\x00\x00'
p120
tp121
Rp122
tp123
a(F120.69333
F23.88221
I1
g1
(g5
S'\x05\x00\x00\x00'
p124
tp125
Rp126
tp127
a(F120.72165
F23.81499
I1
g1
(g5
S'\x03\x00\x00\x00'
p128
tp129
Rp130
tp131
a(F120.68652
F23.76192
I1
g1
(g5
S'\x03\x00\x00\x00'
p132
tp133
Rp134
tp135
a(F120.95435
F23.93951
I1
g1
(g5
S'\x02\x00\x00\x00'
p136
tp137
Rp138
tp139
a(F120.7812
F23.83494
I1
g1
(g5
S'\x03\x00\x00\x00'
p140
tp141
Rp142
tp143
a(F120.6893
F23.98592
I1
g1
(g5
S'\x00\x00\x00\x00'
p144
tp145
Rp146
tp147
a(F120.67093
F23.99549
I1
g1
(g5
S'\x00\x00\x00\x00'
p148
tp149
Rp150
tp151
a(F120.683
F23.833
I1
g1
(g5
S'\x03\x00\x00\x00'
p152
tp153
Rp154
tp155
a(F120.68461
F23.97848
I1
g1
(g5
S'\x00\x00\x00\x00'
p156
tp157
Rp158
tp159
a(F120.69558
F23.92824
I1
g1
(g5
S'\x05\x00\x00\x00'
p160
tp161
Rp162
tp163
a(F120.65399
F24.00341
I1
g1
(g5
S'\x00\x00\x00\x00'
p164
tp165
Rp166
tp167
a(F121.13469
F24.01983
I1
g1
(g5
S'\x06\x00\x00\x00'
p168
tp169
Rp170
tp171
a(F120.67743
F23.98532
I1
g1
(g5
S'\x00\x00\x00\x00'
p172
tp173
Rp174
tp175
a(F120.70512
F23.98042
I1
g1
(g5
S'\x00\x00\x00\x00'
p176
tp177
Rp178
tp179
a(F120.97234
F23.96385
I1
g1
(g5
S'\x02\x00\x00\x00'
p180
tp181
Rp182
tp183
a(F120.67633
F23.75209
I1
g1
(g5
S'\x03\x00\x00\x00'
p184
tp185
Rp186
tp187
a(F120.67879
F23.98353
I1
g1
(g5
S'\x00\x00\x00\x00'
p188
tp189
Rp190
tp191
a(F120.97762
F23.97638
I1
g1
(g5
S'\x02\x00\x00\x00'
p192
tp193
Rp194
tp195
a(F120.65569
F23.71229
I1
g1
(g5
S'\x03\x00\x00\x00'
p196
tp197
Rp198
tp199
a(F120.76449
F23.74898
I1
g1
(g5
S'\x03\x00\x00\x00'
p200
tp201
Rp202
tp203
a(F120.70343
F23.76349
I1
g1
(g5
S'\x03\x00\x00\x00'
p204
tp205
Rp206
tp207
a(F120.79861
F23.82938
I1
g1
(g5
S'\x03\x00\x00\x00'
p208
tp209
Rp210
tp211
a(F120.6982
F23.75799
I1
g1
(g5
S'\x03\x00\x00\x00'
p212
tp213
Rp214
tp215
a(F120.67863
F23.76216
I1
g1
(g5
S'\x03\x00\x00\x00'
p216
tp217
Rp218
tp219
a(F120.70172
F23.76303
I2
g1
(g5
S'\x03\x00\x00\x00'
p220
tp221
Rp222
tp223
a(F120.69274
F23.90441
I1
g1
(g5
S'\x05\x00\x00\x00'
p224
tp225
Rp226
tp227
a(F120.96336
F23.964
I1
g1
(g5
S'\x02\x00\x00\x00'
p228
tp229
Rp230
tp231
a(F120.68916
F23.89851
I1
g1
(g5
S'\x05\x00\x00\x00'
p232
tp233
Rp234
tp235
a(F120.85035
F23.81893
I1
g1
(g5
S'\x03\x00\x00\x00'
p236
tp237
Rp238
tp239
a(F120.67324
F23.98321
I1
g1
(g5
S'\x00\x00\x00\x00'
p240
tp241
Rp242
tp243
a(F120.61724
F24.18085
I1
g1
(g5
S'\x00\x00\x00\x00'
p244
tp245
Rp246
tp247
a(F120.67066
F23.8561
I1
g1
(g5
S'\x05\x00\x00\x00'
p248
tp249
Rp250
tp251
a(F120.6846
F23.75741
I1
g1
(g5
S'\x03\x00\x00\x00'
p252
tp253
Rp254
tp255
a(F120.94982
F24.01192
I1
g1
(g5
S'\x02\x00\x00\x00'
p256
tp257
Rp258
tp259
a(F120.97139
F23.97165
I1
g1
(g5
S'\x02\x00\x00\x00'
p260
tp261
Rp262
tp263
a(F121.49741
F25.03731
I1
g1
(g5
S'\x01\x00\x00\x00'
p264
tp265
Rp266
tp267
a(F120.70429
F23.73434
I1
g1
(g5
S'\x03\x00\x00\x00'
p268
tp269
Rp270
tp271
a(F120.67382
F23.90926
I2
g1
(g5
S'\x05\x00\x00\x00'
p272
tp273
Rp274
tp275
a(F120.96843
F23.97181
I1
g1
(g5
S'\x02\x00\x00\x00'
p276
tp277
Rp278
tp279
a(F120.69321
F24.00343
I1
g1
(g5
S'\x00\x00\x00\x00'
p280
tp281
Rp282
tp283
a(F120.97052
F23.97487
I1
g1
(g5
S'\x02\x00\x00\x00'
p284
tp285
Rp286
tp287
a.