(lp0
(F121.48164
F25.02532
I1
cnumpy.core.multiarray
scalar
p1
(cnumpy
dtype
p2
(S'i4'
p3
I0
I1
tp4
Rp5
(I3
S'<'
p6
NNNI-1
I-1
I0
tp7
bS'\x03\x00\x00\x00'
p8
tp9
Rp10
tp11
a(F121.42347
F24.97268
I1
g1
(g5
S'\x03\x00\x00\x00'
p12
tp13
Rp14
tp15
a(F121.37917
F25.08139
I3
g1
(g5
S'\x02\x00\x00\x00'
p16
tp17
Rp18
tp19
a(F121.6249
F25.0762
I1
g1
(g5
S'\x05\x00\x00\x00'
p20
tp21
Rp22
tp23
a(F121.50232
F25.01008
I1
g1
(g5
S'\x00\x00\x00\x00'
p24
tp25
Rp26
tp27
a(F121.48516
F25.07271
I1
g1
(g5
S'\x02\x00\x00\x00'
p28
tp29
Rp30
tp31
a(F121.44697
F25.04738
I1
g1
(g5
S'\x03\x00\x00\x00'
p32
tp33
Rp34
tp35
a(F121.52442
F25.0014
I1
g1
(g5
S'\x00\x00\x00\x00'
p36
tp37
Rp38
tp39
a(F121.4806
F25.01436
I1
g1
(g5
S'\x03\x00\x00\x00'
p40
tp41
Rp42
tp43
a(F121.42932
F25.02624
I1
g1
(g5
S'\x03\x00\x00\x00'
p44
tp45
Rp46
tp47
a(F121.42397
F25.06456
I1
g1
(g5
S'\x02\x00\x00\x00'
p48
tp49
Rp50
tp51
a(F121.5441
F24.98311
I1
g1
(g5
S'\x00\x00\x00\x00'
p52
tp53
Rp54
tp55
a(F121.36756
F25.07556
I1
g1
(g5
S'\x02\x00\x00\x00'
p56
tp57
Rp58
tp59
a(F121.5014
F25.07299
I1
g1
(g5
S'\x02\x00\x00\x00'
p60
tp61
Rp62
tp63
a(F121.48333
F24.99752
I1
g1
(g5
S'\x00\x00\x00\x00'
p64
tp65
Rp66
tp67
a(F121.59834
F25.00424
I4
g1
(g5
S'\x00\x00\x00\x00'
p68
tp69
Rp70
tp71
a(F121.49395
F25.07998
I1
g1
(g5
S'\x02\x00\x00\x00'
p72
tp73
Rp74
tp75
a(F121.4845
F25.07715
I1
g1
(g5
S'\x02\x00\x00\x00'
p76
tp77
Rp78
tp79
a(F121.50964
F24.9851
I1
g1
(g5
S'\x00\x00\x00\x00'
p80
tp81
Rp82
tp83
a(F121.43253
F25.03638
I1
g1
(g5
S'\x03\x00\x00\x00'
p84
tp85
Rp86
tp87
a(F121.47745
F25.08652
I1
g1
(g5
S'\x02\x00\x00\x00'
p88
tp89
Rp90
tp91
a(F121.52718
F24.99512
I1
g1
(g5
S'\x00\x00\x00\x00'
p92
tp93
Rp94
tp95
a(F121.42955
F25.04538
I3
g1
(g5
S'\x03\x00\x00\x00'
p96
tp97
Rp98
tp99
a(F121.47882
F24.99598
I1
g1
(g5
S'\x03\x00\x00\x00'
p100
tp101
Rp102
tp103
a(F121.40524
F25.15488
I1
g1
(g5
S'\x02\x00\x00\x00'
p104
tp105
Rp106
tp107
a(F121.45286
F25.01507
I1
g1
(g5
S'\x03\x00\x00\x00'
p108
tp109
Rp110
tp111
a(F121.4366
F25.0839
I1
g1
(g5
S'\x02\x00\x00\x00'
p112
tp113
Rp114
tp115
a(F121.51866
F24.99439
I2
g1
(g5
S'\x00\x00\x00\x00'
p116
tp117
Rp118
tp119
a(F121.38299
F24.947
I2
g1
(g5
S'\x03\x00\x00\x00'
p120
tp121
Rp122
tp123
a(F121.66313
F25.06337
I1
g1
(g5
S'\x05\x00\x00\x00'
p124
tp125
Rp126
tp127
a(F121.50946
F25.24356
I1
g1
(g5
S'\x02\x00\x00\x00'
p128
tp129
Rp130
tp131
a(F121.5104
F25.01386
I1
g1
(g5
S'\x00\x00\x00\x00'
p132
tp133
Rp134
tp135
a(F121.45742
F25.02574
I1
g1
(g5
S'\x03\x00\x00\x00'
p136
tp137
Rp138
tp139
a(F121.52528
F25.00732
I1
g1
(g5
S'\x00\x00\x00\x00'
p140
tp141
Rp142
tp143
a(F121.49438
F24.99913
I1
g1
(g5
S'\x00\x00\x00\x00'
p144
tp145
Rp146
tp147
a(F121.51445
F25.00782
I1
g1
(g5
S'\x00\x00\x00\x00'
p148
tp149
Rp150
tp151
a(F121.61703
F25.05118
I1
g1
(g5
S'\x05\x00\x00\x00'
p152
tp153
Rp154
tp155
a(F121.55453
F24.95474
I1
g1
(g5
S'\x00\x00\x00\x00'
p156
tp157
Rp158
tp159
a(F121.40116
F25.01477
I1
g1
(g5
S'\x03\x00\x00\x00'
p160
tp161
Rp162
tp163
a(F121.44716
F25.03091
I1
g1
(g5
S'\x03\x00\x00\x00'
p164
tp165
Rp166
tp167
a(F121.51568
F24.99844
I4
g1
(g5
S'\x00\x00\x00\x00'
p168
tp169
Rp170
tp171
a(F121.47869
F24.99818
I1
g1
(g5
S'\x03\x00\x00\x00'
p172
tp173
Rp174
tp175
a(F121.37747
F24.9497
I1
g1
(g5
S'\x03\x00\x00\x00'
p176
tp177
Rp178
tp179
a(F121.50417
F24.98808
I1
g1
(g5
S'\x00\x00\x00\x00'
p180
tp181
Rp182
tp183
a(F121.48927
F24.94694
I1
g1
(g5
S'\x00\x00\x00\x00'
p184
tp185
Rp186
tp187
a(F121.54746
F24.98245
I1
g1
(g5
S'\x00\x00\x00\x00'
p188
tp189
Rp190
tp191
a(F121.4635
F25.02329
I1
g1
(g5
S'\x03\x00\x00\x00'
p192
tp193
Rp194
tp195
a(F121.50907
F25.0168
I1
g1
(g5
S'\x00\x00\x00\x00'
p196
tp197
Rp198
tp199
a(F121.43081
F25.06381
I1
g1
(g5
S'\x02\x00\x00\x00'
p200
tp201
Rp202
tp203
a(F121.53307
F24.99045
I1
g1
(g5
S'\x00\x00\x00\x00'
p204
tp205
Rp206
tp207
a(F121.46197
F24.97683
I1
g1
(g5
S'\x03\x00\x00\x00'
p208
tp209
Rp210
tp211
a(F121.46483
F25.01975
I1
g1
(g5
S'\x03\x00\x00\x00'
p212
tp213
Rp214
tp215
a(F121.50858
F24.99822
I1
g1
(g5
S'\x00\x00\x00\x00'
p216
tp217
Rp218
tp219
a(F121.4970294
F24.994446
I2
g1
(g5
S'\x00\x00\x00\x00'
p220
tp221
Rp222
tp223
a(F121.50785
F24.98361
I1
g1
(g5
S'\x00\x00\x00\x00'
p224
tp225
Rp226
tp227
a(F121.59195
F25.08898
I1
g1
(g5
S'\x05\x00\x00\x00'
p228
tp229
Rp230
tp231
a(F121.4431
F25.00013
I1
g1
(g5
S'\x03\x00\x00\x00'
p232
tp233
Rp234
tp235
a(F121.46851
F25.05627
I1
g1
(g5
S'\x02\x00\x00\x00'
p236
tp237
Rp238
tp239
a(F121.36924
F24.94833
I1
g1
(g5
S'\x03\x00\x00\x00'
p240
tp241
Rp242
tp243
a(F121.48881
F25.06303
I1
g1
(g5
S'\x02\x00\x00\x00'
p244
tp245
Rp246
tp247
a(F121.4551
F25.00244
I2
g1
(g5
S'\x03\x00\x00\x00'
p248
tp249
Rp250
tp251
a(F121.4602
F25.08253
I1
g1
(g5
S'\x02\x00\x00\x00'
p252
tp253
Rp254
tp255
a(F121.5255815
F24.9399889
I1
g1
(g5
S'\x00\x00\x00\x00'
p256
tp257
Rp258
tp259
a(F121.44812
F25.17716
I1
g1
(g5
S'\x02\x00\x00\x00'
p260
tp261
Rp262
tp263
a(F121.44024
F24.97804
I1
g1
(g5
S'\x03\x00\x00\x00'
p264
tp265
Rp266
tp267
a(F121.51298
F25.00314
I1
g1
(g5
S'\x00\x00\x00\x00'
p268
tp269
Rp270
tp271
a(F121.46959
F25.08059
I2
g1
(g5
S'\x02\x00\x00\x00'
p272
tp273
Rp274
tp275
a(F121.42497
F25.02385
I1
g1
(g5
S'\x03\x00\x00\x00'
p276
tp277
Rp278
tp279
a(F121.54258
F24.98734
I1
g1
(g5
S'\x00\x00\x00\x00'
p280
tp281
Rp282
tp283
a(F121.46024
F25.01353
I3
g1
(g5
S'\x03\x00\x00\x00'
p284
tp285
Rp286
tp287
a(F121.47957
F24.99379
I1
g1
(g5
S'\x03\x00\x00\x00'
p288
tp289
Rp290
tp291
a(F121.64141
F25.06882
I1
g1
(g5
S'\x05\x00\x00\x00'
p292
tp293
Rp294
tp295
a(F121.4458
F25.09393
I1
g1
(g5
S'\x02\x00\x00\x00'
p296
tp297
Rp298
tp299
a(F121.37254
F25.07904
I1
g1
(g5
S'\x02\x00\x00\x00'
p300
tp301
Rp302
tp303
a(F121.45412
F25.0361
I2
g1
(g5
S'\x03\x00\x00\x00'
p304
tp305
Rp306
tp307
a(F121.54044
F24.9691
I1
g1
(g5
S'\x00\x00\x00\x00'
p308
tp309
Rp310
tp311
a(F121.4162
F24.98118
I1
g1
(g5
S'\x03\x00\x00\x00'
p312
tp313
Rp314
tp315
a(F121.51809
F24.99454
I2
g1
(g5
S'\x00\x00\x00\x00'
p316
tp317
Rp318
tp319
a(F121.45672
F25.09014
I1
g1
(g5
S'\x02\x00\x00\x00'
p320
tp321
Rp322
tp323
a(F121.49225
F25.0747
I1
g1
(g5
S'\x02\x00\x00\x00'
p324
tp325
Rp326
tp327
a(F121.48011
F25.07798
I1
g1
(g5
S'\x02\x00\x00\x00'
p328
tp329
Rp330
tp331
a(F121.50129
F25.06531
I1
g1
(g5
S'\x02\x00\x00\x00'
p332
tp333
Rp334
tp335
a(F121.48133
F25.08214
I1
g1
(g5
S'\x02\x00\x00\x00'
p336
tp337
Rp338
tp339
a(F121.34954
F24.95364
I1
g1
(g5
S'\x03\x00\x00\x00'
p340
tp341
Rp342
tp343
a(F121.42401
F25.17446
I1
g1
(g5
S'\x02\x00\x00\x00'
p344
tp345
Rp346
tp347
a(F121.42547
F24.96534
I1
g1
(g5
S'\x03\x00\x00\x00'
p348
tp349
Rp350
tp351
a(F121.44117
F25.18164
I1
g1
(g5
S'\x02\x00\x00\x00'
p352
tp353
Rp354
tp355
a(F121.43351
F25.01208
I1
g1
(g5
S'\x03\x00\x00\x00'
p356
tp357
Rp358
tp359
a(F121.63594
F25.22187
I1
g1
(g5
S'\x05\x00\x00\x00'
p360
tp361
Rp362
tp363
a(F121.46283
F25.01752
I1
g1
(g5
S'\x03\x00\x00\x00'
p364
tp365
Rp366
tp367
a(F121.49038
F25.07118
I1
g1
(g5
S'\x02\x00\x00\x00'
p368
tp369
Rp370
tp371
a(F121.46212
F25.01631
I1
g1
(g5
S'\x03\x00\x00\x00'
p372
tp373
Rp374
tp375
a(F121.47462
F25.00271
I1
g1
(g5
S'\x03\x00\x00\x00'
p376
tp377
Rp378
tp379
a(F121.46789
F25.07819
I1
g1
(g5
S'\x02\x00\x00\x00'
p380
tp381
Rp382
tp383
a(F121.32915
F24.92342
I1
g1
(g5
S'\x03\x00\x00\x00'
p384
tp385
Rp386
tp387
a(F121.48334
F25.07428
I1
g1
(g5
S'\x02\x00\x00\x00'
p388
tp389
Rp390
tp391
a(F121.53867
F24.98149
I1
g1
(g5
S'\x00\x00\x00\x00'
p392
tp393
Rp394
tp395
a(F121.45783
F24.99151
I1
g1
(g5
S'\x03\x00\x00\x00'
p396
tp397
Rp398
tp399
a(F121.45949
F24.99199
I2
g1
(g5
S'\x03\x00\x00\x00'
p400
tp401
Rp402
tp403
a(F121.43295
F24.96602
I1
g1
(g5
S'\x03\x00\x00\x00'
p404
tp405
Rp406
tp407
a(F121.50036
F24.99479
I1
g1
(g5
S'\x00\x00\x00\x00'
p408
tp409
Rp410
tp411
a(F121.48461
F25.05969
I1
g1
(g5
S'\x02\x00\x00\x00'
p412
tp413
Rp414
tp415
a(F121.37299
F25.0705
I1
g1
(g5
S'\x02\x00\x00\x00'
p416
tp417
Rp418
tp419
a(F121.42863
F25.01878
I1
g1
(g5
S'\x03\x00\x00\x00'
p420
tp421
Rp422
tp423
a(F121.51338
F25.0143
I1
g1
(g5
S'\x00\x00\x00\x00'
p424
tp425
Rp426
tp427
a(F121.65785
F25.0606
I1
g1
(g5
S'\x05\x00\x00\x00'
p428
tp429
Rp430
tp431
a(F121.50662
F25.01465
I2
g1
(g5
S'\x00\x00\x00\x00'
p432
tp433
Rp434
tp435
a(F121.52045
F25.00257
I1
g1
(g5
S'\x00\x00\x00\x00'
p436
tp437
Rp438
tp439
a(F121.51943
F25.03184
I1
g1
(g5
S'\x00\x00\x00\x00'
p440
tp441
Rp442
tp443
a(F121.39584
F25.07644
I1
g1
(g5
S'\x02\x00\x00\x00'
p444
tp445
Rp446
tp447
a(F121.3886
F25.07811
I4
g1
(g5
S'\x02\x00\x00\x00'
p448
tp449
Rp450
tp451
a(F121.50468
F24.99381
I1
g1
(g5
S'\x00\x00\x00\x00'
p452
tp453
Rp454
tp455
a(F121.54064
F24.96183
I1
g1
(g5
S'\x00\x00\x00\x00'
p456
tp457
Rp458
tp459
a(F121.46381
F25.02378
I1
g1
(g5
S'\x03\x00\x00\x00'
p460
tp461
Rp462
tp463
a(F121.46636
F24.99809
I1
g1
(g5
S'\x03\x00\x00\x00'
p464
tp465
Rp466
tp467
a(F121.44549
F25.04653
I1
g1
(g5
S'\x03\x00\x00\x00'
p468
tp469
Rp470
tp471
a(F121.49233
F25.07044
I2
g1
(g5
S'\x02\x00\x00\x00'
p472
tp473
Rp474
tp475
a(F121.4570447
F24.9772803
I1
g1
(g5
S'\x03\x00\x00\x00'
p476
tp477
Rp478
tp479
a(F121.43819
F25.08344
I1
g1
(g5
S'\x02\x00\x00\x00'
p480
tp481
Rp482
tp483
a(F121.51586
F25.01039
I1
g1
(g5
S'\x00\x00\x00\x00'
p484
tp485
Rp486
tp487
a(F121.5114
F25.01261
I1
g1
(g5
S'\x00\x00\x00\x00'
p488
tp489
Rp490
tp491
a(F121.50254
F25.06606
I1
g1
(g5
S'\x02\x00\x00\x00'
p492
tp493
Rp494
tp495
a(F121.63959
F25.01206
I1
g1
(g5
S'\x05\x00\x00\x00'
p496
tp497
Rp498
tp499
a(F121.4759
F25.02243
I1
g1
(g5
S'\x03\x00\x00\x00'
p500
tp501
Rp502
tp503
a(F121.45307
F25.04628
I1
g1
(g5
S'\x03\x00\x00\x00'
p504
tp505
Rp506
tp507
a(F121.47984
F25.02669
I1
g1
(g5
S'\x03\x00\x00\x00'
p508
tp509
Rp510
tp511
a(F121.54271
F24.98692
I1
g1
(g5
S'\x00\x00\x00\x00'
p512
tp513
Rp514
tp515
a(F121.42228
F25.02943
I1
g1
(g5
S'\x03\x00\x00\x00'
p516
tp517
Rp518
tp519
a(F121.64173
F25.07
I1
g1
(g5
S'\x05\x00\x00\x00'
p520
tp521
Rp522
tp523
a(F121.51102
F25.00584
I1
g1
(g5
S'\x00\x00\x00\x00'
p524
tp525
Rp526
tp527
a(F121.45133
F25.17305
I1
g1
(g5
S'\x02\x00\x00\x00'
p528
tp529
Rp530
tp531
a(F121.46496
F25.05407
I1
g1
(g5
S'\x02\x00\x00\x00'
p532
tp533
Rp534
tp535
a(F121.49071
F25.07223
I1
g1
(g5
S'\x02\x00\x00\x00'
p536
tp537
Rp538
tp539
a(F121.4634
F25.02927
I1
g1
(g5
S'\x03\x00\x00\x00'
p540
tp541
Rp542
tp543
a(F121.53279
F24.9766
I1
g1
(g5
S'\x00\x00\x00\x00'
p544
tp545
Rp546
tp547
a(F121.47137
F25.00539
I1
g1
(g5
S'\x03\x00\x00\x00'
p548
tp549
Rp550
tp551
a(F121.51107
F24.98119
I1
g1
(g5
S'\x00\x00\x00\x00'
p552
tp553
Rp554
tp555
a(F121.44067
F25.09413
I1
g1
(g5
S'\x02\x00\x00\x00'
p556
tp557
Rp558
tp559
a(F121.48621
F25.05818
I1
g1
(g5
S'\x02\x00\x00\x00'
p560
tp561
Rp562
tp563
a(F121.51241
F24.99396
I1
g1
(g5
S'\x00\x00\x00\x00'
p564
tp565
Rp566
tp567
a(F121.43761
F25.18704
I1
g1
(g5
S'\x02\x00\x00\x00'
p568
tp569
Rp570
tp571
a(F121.51242
F24.99306
I1
g1
(g5
S'\x00\x00\x00\x00'
p572
tp573
Rp574
tp575
a(F121.45856
F25.00993
I1
g1
(g5
S'\x03\x00\x00\x00'
p576
tp577
Rp578
tp579
a(F121.37136
F24.92738
I1
g1
(g5
S'\x03\x00\x00\x00'
p580
tp581
Rp582
tp583
a(F121.46274
F25.15584
I1
g1
(g5
S'\x02\x00\x00\x00'
p584
tp585
Rp586
tp587
a(F121.52375
F24.99845
I2
g1
(g5
S'\x00\x00\x00\x00'
p588
tp589
Rp590
tp591
a(F121.52301
F24.99702
I1
g1
(g5
S'\x00\x00\x00\x00'
p592
tp593
Rp594
tp595
a(F121.51808
F24.97362
I1
g1
(g5
S'\x00\x00\x00\x00'
p596
tp597
Rp598
tp599
a(F121.4983
F24.99459
I1
g1
(g5
S'\x00\x00\x00\x00'
p600
tp601
Rp602
tp603
a(F121.47625
F25.03226
I1
g1
(g5
S'\x03\x00\x00\x00'
p604
tp605
Rp606
tp607
a(F121.76517
F25.10247
I1
g1
(g5
S'\x05\x00\x00\x00'
p608
tp609
Rp610
tp611
a(F121.52683
F24.99529
I1
g1
(g5
S'\x00\x00\x00\x00'
p612
tp613
Rp614
tp615
a(F121.48116
F25.06775
I1
g1
(g5
S'\x02\x00\x00\x00'
p616
tp617
Rp618
tp619
a(F121.44274
F25.17036
I1
g1
(g5
S'\x02\x00\x00\x00'
p620
tp621
Rp622
tp623
a(F121.4927
F24.99305
I1
g1
(g5
S'\x00\x00\x00\x00'
p624
tp625
Rp626
tp627
a(F121.41474
F24.98611
I2
g1
(g5
S'\x03\x00\x00\x00'
p628
tp629
Rp630
tp631
a(F121.50071
F25.06232
I1
g1
(g5
S'\x02\x00\x00\x00'
p632
tp633
Rp634
tp635
a(F121.52666
F24.96186
I1
g1
(g5
S'\x00\x00\x00\x00'
p636
tp637
Rp638
tp639
a(F121.37272
F25.07122
I1
g1
(g5
S'\x02\x00\x00\x00'
p640
tp641
Rp642
tp643
a(F121.43823
F25.18093
I1
g1
(g5
S'\x02\x00\x00\x00'
p644
tp645
Rp646
tp647
a(F121.40822
F24.97888
I1
g1
(g5
S'\x03\x00\x00\x00'
p648
tp649
Rp650
tp651
a(F121.41278
F25.02344
I1
g1
(g5
S'\x03\x00\x00\x00'
p652
tp653
Rp654
tp655
a(F121.43187
F25.04431
I1
g1
(g5
S'\x03\x00\x00\x00'
p656
tp657
Rp658
tp659
a(F121.5335
F24.9771
I1
g1
(g5
S'\x00\x00\x00\x00'
p660
tp661
Rp662
tp663
a(F121.45591
F25.16173
I1
g1
(g5
S'\x02\x00\x00\x00'
p664
tp665
Rp666
tp667
a(F121.60964
F25.11066
I1
g1
(g5
S'\x05\x00\x00\x00'
p668
tp669
Rp670
tp671
a(F121.42062
F25.18402
I1
g1
(g5
S'\x02\x00\x00\x00'
p672
tp673
Rp674
tp675
a(F121.49182
F25.07114
I1
g1
(g5
S'\x02\x00\x00\x00'
p676
tp677
Rp678
tp679
a(F121.45746
F25.04475
I1
g1
(g5
S'\x03\x00\x00\x00'
p680
tp681
Rp682
tp683
a(F121.45719
F25.08478
I2
g1
(g5
S'\x02\x00\x00\x00'
p684
tp685
Rp686
tp687
a(F121.4914
F25.07787
I1
g1
(g5
S'\x02\x00\x00\x00'
p688
tp689
Rp690
tp691
a(F121.58732
F24.93685
I1
g1
(g5
S'\x00\x00\x00\x00'
p692
tp693
Rp694
tp695
a(F121.47966
F25.02433
I1
g1
(g5
S'\x03\x00\x00\x00'
p696
tp697
Rp698
tp699
a(F121.44587
F25.17433
I1
g1
(g5
S'\x02\x00\x00\x00'
p700
tp701
Rp702
tp703
a(F121.47589
F25.00413
I1
g1
(g5
S'\x03\x00\x00\x00'
p704
tp705
Rp706
tp707
a(F121.45636
F25.01031
I1
g1
(g5
S'\x03\x00\x00\x00'
p708
tp709
Rp710
tp711
a(F121.43512
F25.01003
I2
g1
(g5
S'\x03\x00\x00\x00'
p712
tp713
Rp714
tp715
a(F121.44961
F25.01256
I1
g1
(g5
S'\x03\x00\x00\x00'
p716
tp717
Rp718
tp719
a(F121.40658
F25.13388
I1
g1
(g5
S'\x02\x00\x00\x00'
p720
tp721
Rp722
tp723
a(F121.52107
F25.00623
I1
g1
(g5
S'\x00\x00\x00\x00'
p724
tp725
Rp726
tp727
a(F121.4504
F24.99491
I1
g1
(g5
S'\x03\x00\x00\x00'
p728
tp729
Rp730
tp731
a(F121.43793
F25.04769
I1
g1
(g5
S'\x03\x00\x00\x00'
p732
tp733
Rp734
tp735
a(F121.47928
F25.08557
I1
g1
(g5
S'\x02\x00\x00\x00'
p736
tp737
Rp738
tp739
a(F121.65635
F25.0667
I1
g1
(g5
S'\x05\x00\x00\x00'
p740
tp741
Rp742
tp743
a(F121.5482
F24.98119
I1
g1
(g5
S'\x00\x00\x00\x00'
p744
tp745
Rp746
tp747
a(F121.43311
F25.06073
I1
g1
(g5
S'\x02\x00\x00\x00'
p748
tp749
Rp750
tp751
a(F121.42968
F25.09549
I1
g1
(g5
S'\x02\x00\x00\x00'
p752
tp753
Rp754
tp755
a(F121.42151
F25.06303
I1
g1
(g5
S'\x02\x00\x00\x00'
p756
tp757
Rp758
tp759
a(F121.52389
F24.97761
I1
g1
(g5
S'\x00\x00\x00\x00'
p760
tp761
Rp762
tp763
a(F121.65486
F25.06056
I1
g1
(g5
S'\x05\x00\x00\x00'
p764
tp765
Rp766
tp767
a(F121.53174
F24.95097
I1
g1
(g5
S'\x00\x00\x00\x00'
p768
tp769
Rp770
tp771
a(F121.51922
F24.99874
I1
g1
(g5
S'\x00\x00\x00\x00'
p772
tp773
Rp774
tp775
a(F121.63675
F25.07313
I1
g1
(g5
S'\x05\x00\x00\x00'
p776
tp777
Rp778
tp779
a(F121.47513
F25.08842
I1
g1
(g5
S'\x02\x00\x00\x00'
p780
tp781
Rp782
tp783
a(F121.49415
F25.06502
I1
g1
(g5
S'\x02\x00\x00\x00'
p784
tp785
Rp786
tp787
a(F121.42619
F24.99996
I1
g1
(g5
S'\x03\x00\x00\x00'
p788
tp789
Rp790
tp791
a(F121.4098
F25.01537
I1
g1
(g5
S'\x03\x00\x00\x00'
p792
tp793
Rp794
tp795
a(F121.41036
F25.05893
I1
g1
(g5
S'\x02\x00\x00\x00'
p796
tp797
Rp798
tp799
a(F121.48064
F25.03046
I1
g1
(g5
S'\x03\x00\x00\x00'
p800
tp801
Rp802
tp803
a(F121.46167
F25.0556
I1
g1
(g5
S'\x02\x00\x00\x00'
p804
tp805
Rp806
tp807
a(F121.51769
F24.99722
I1
g1
(g5
S'\x00\x00\x00\x00'
p808
tp809
Rp810
tp811
a(F121.53998
F24.97965
I1
g1
(g5
S'\x00\x00\x00\x00'
p812
tp813
Rp814
tp815
a(F121.49625
F25.00137
I1
g1
(g5
S'\x00\x00\x00\x00'
p816
tp817
Rp818
tp819
a(F121.40658
F24.95861
I1
g1
(g5
S'\x03\x00\x00\x00'
p820
tp821
Rp822
tp823
a(F121.4284756
F25.0211328
I1
g1
(g5
S'\x03\x00\x00\x00'
p824
tp825
Rp826
tp827
a(F121.45325
F25.16246
I1
g1
(g5
S'\x02\x00\x00\x00'
p828
tp829
Rp830
tp831
a(F121.45618
F25.0389
I1
g1
(g5
S'\x03\x00\x00\x00'
p832
tp833
Rp834
tp835
a(F121.51648
F24.99947
I1
g1
(g5
S'\x00\x00\x00\x00'
p836
tp837
Rp838
tp839
a(F121.45697
F25.16982
I1
g1
(g5
S'\x02\x00\x00\x00'
p840
tp841
Rp842
tp843
a(F121.5183
F25.00531
I1
g1
(g5
S'\x00\x00\x00\x00'
p844
tp845
Rp846
tp847
a(F121.47914
F25.0224
I1
g1
(g5
S'\x03\x00\x00\x00'
p848
tp849
Rp850
tp851
a(F121.45469
F25.00297
I1
g1
(g5
S'\x03\x00\x00\x00'
p852
tp853
Rp854
tp855
a(F121.35031
F24.95378
I1
g1
(g5
S'\x03\x00\x00\x00'
p856
tp857
Rp858
tp859
a(F121.54462
F24.92425
I1
g1
(g5
S'\x00\x00\x00\x00'
p860
tp861
Rp862
tp863
a(F121.45879
F25.06015
I1
g1
(g5
S'\x02\x00\x00\x00'
p864
tp865
Rp866
tp867
a(F121.52141
F25.00907
I1
g1
(g5
S'\x00\x00\x00\x00'
p868
tp869
Rp870
tp871
a(F121.44722
F25.17973
I1
g1
(g5
S'\x02\x00\x00\x00'
p872
tp873
Rp874
tp875
a(F121.42585
F24.98907
I1
g1
(g5
S'\x03\x00\x00\x00'
p876
tp877
Rp878
tp879
a(F121.48515
F25.02055
I1
g1
(g5
S'\x03\x00\x00\x00'
p880
tp881
Rp882
tp883
a(F121.49651
F25.08148
I1
g1
(g5
S'\x02\x00\x00\x00'
p884
tp885
Rp886
tp887
a(F121.41225
F24.95561
I1
g1
(g5
S'\x03\x00\x00\x00'
p888
tp889
Rp890
tp891
a(F121.54723
F24.96869
I1
g1
(g5
S'\x00\x00\x00\x00'
p892
tp893
Rp894
tp895
a(F121.44341
F25.00249
I1
g1
(g5
S'\x03\x00\x00\x00'
p896
tp897
Rp898
tp899
a(F121.38623
F25.08751
I1
g1
(g5
S'\x02\x00\x00\x00'
p900
tp901
Rp902
tp903
a(F121.4056153
F24.9840028
I1
g1
(g5
S'\x03\x00\x00\x00'
p904
tp905
Rp906
tp907
a(F121.62367
F25.06322
I1
g1
(g5
S'\x05\x00\x00\x00'
p908
tp909
Rp910
tp911
a(F121.54126
F24.98538
I1
g1
(g5
S'\x00\x00\x00\x00'
p912
tp913
Rp914
tp915
a(F121.45714
F25.03999
I1
g1
(g5
S'\x03\x00\x00\x00'
p916
tp917
Rp918
tp919
a(F121.49181
F25.05822
I1
g1
(g5
S'\x02\x00\x00\x00'
p920
tp921
Rp922
tp923
a(F121.15481
F22.75256
I2
g1
(g5
S'\x01\x00\x00\x00'
p924
tp925
Rp926
tp927
a(F121.36881
F24.93419
I1
g1
(g5
S'\x03\x00\x00\x00'
p928
tp929
Rp930
tp931
a(F121.51881
F25.0043
I1
g1
(g5
S'\x00\x00\x00\x00'
p932
tp933
Rp934
tp935
a(F121.51276
F25.00361
I1
g1
(g5
S'\x00\x00\x00\x00'
p936
tp937
Rp938
tp939
a(F121.69012
F24.98275
I1
g1
(g5
S'\x05\x00\x00\x00'
p940
tp941
Rp942
tp943
a(F121.4769
F25.08014
I1
g1
(g5
S'\x02\x00\x00\x00'
p944
tp945
Rp946
tp947
a(F121.41014
F25.15894
I1
g1
(g5
S'\x02\x00\x00\x00'
p948
tp949
Rp950
tp951
a(F121.40735
F24.97673
I1
g1
(g5
S'\x03\x00\x00\x00'
p952
tp953
Rp954
tp955
a(F121.40151
F24.91488
I1
g1
(g5
S'\x03\x00\x00\x00'
p956
tp957
Rp958
tp959
a(F121.51508
F25.00552
I1
g1
(g5
S'\x00\x00\x00\x00'
p960
tp961
Rp962
tp963
a(F121.46101
F25.01423
I1
g1
(g5
S'\x03\x00\x00\x00'
p964
tp965
Rp966
tp967
a(F121.47954
F24.99492
I1
g1
(g5
S'\x03\x00\x00\x00'
p968
tp969
Rp970
tp971
a(F121.47475
F25.02497
I1
g1
(g5
S'\x03\x00\x00\x00'
p972
tp973
Rp974
tp975
a(F121.3942
F25.10331
I1
g1
(g5
S'\x02\x00\x00\x00'
p976
tp977
Rp978
tp979
a(F121.46977
F25.008
I1
g1
(g5
S'\x03\x00\x00\x00'
p980
tp981
Rp982
tp983
a(F121.3608
F24.93694
I1
g1
(g5
S'\x03\x00\x00\x00'
p984
tp985
Rp986
tp987
a(F121.44482
F24.98659
I1
g1
(g5
S'\x03\x00\x00\x00'
p988
tp989
Rp990
tp991
a(F121.45793
F25.00411
I1
g1
(g5
S'\x03\x00\x00\x00'
p992
tp993
Rp994
tp995
a(F121.50148
F24.99477
I1
g1
(g5
S'\x00\x00\x00\x00'
p996
tp997
Rp998
tp999
a(F121.64018
F25.06523
I1
g1
(g5
S'\x05\x00\x00\x00'
p1000
tp1001
Rp1002
tp1003
a(F121.44889
F25.03913
I1
g1
(g5
S'\x03\x00\x00\x00'
p1004
tp1005
Rp1006
tp1007
a(F121.42736
F25.06658
I1
g1
(g5
S'\x02\x00\x00\x00'
p1008
tp1009
Rp1010
tp1011
a(F121.41254
F25.02463
I1
g1
(g5
S'\x03\x00\x00\x00'
p1012
tp1013
Rp1014
tp1015
a(F121.45937
F25.0171
I1
g1
(g5
S'\x03\x00\x00\x00'
p1016
tp1017
Rp1018
tp1019
a(F121.48294
F25.02319
I1
g1
(g5
S'\x03\x00\x00\x00'
p1020
tp1021
Rp1022
tp1023
a(F121.4609
F25.09341
I1
g1
(g5
S'\x02\x00\x00\x00'
p1024
tp1025
Rp1026
tp1027
a(F121.43735
F25.1801
I1
g1
(g5
S'\x02\x00\x00\x00'
p1028
tp1029
Rp1030
tp1031
a(F121.53341
F24.98155
I1
g1
(g5
S'\x00\x00\x00\x00'
p1032
tp1033
Rp1034
tp1035
a(F121.50303
F24.98362
I1
g1
(g5
S'\x00\x00\x00\x00'
p1036
tp1037
Rp1038
tp1039
a(F121.53305
F24.97177
I1
g1
(g5
S'\x00\x00\x00\x00'
p1040
tp1041
Rp1042
tp1043
a(F121.44447
F25.04056
I1
g1
(g5
S'\x03\x00\x00\x00'
p1044
tp1045
Rp1046
tp1047
a(F121.50617
F24.97865
I1
g1
(g5
S'\x00\x00\x00\x00'
p1048
tp1049
Rp1050
tp1051
a(F121.3832
F25.07353
I1
g1
(g5
S'\x02\x00\x00\x00'
p1052
tp1053
Rp1054
tp1055
a(F121.50803
F24.99889
I1
g1
(g5
S'\x00\x00\x00\x00'
p1056
tp1057
Rp1058
tp1059
a(F121.66447
F25.06339
I1
g1
(g5
S'\x05\x00\x00\x00'
p1060
tp1061
Rp1062
tp1063
a(F121.44757
F25.00845
I1
g1
(g5
S'\x03\x00\x00\x00'
p1064
tp1065
Rp1066
tp1067
a(F121.5214
F24.99668
I1
g1
(g5
S'\x00\x00\x00\x00'
p1068
tp1069
Rp1070
tp1071
a(F121.46191
F25.13221
I1
g1
(g5
S'\x02\x00\x00\x00'
p1072
tp1073
Rp1074
tp1075
a(F121.50037
F25.06341
I1
g1
(g5
S'\x02\x00\x00\x00'
p1076
tp1077
Rp1078
tp1079
a(F121.4617
F25.01883
I1
g1
(g5
S'\x03\x00\x00\x00'
p1080
tp1081
Rp1082
tp1083
a(F121.42137
F25.1819
I1
g1
(g5
S'\x02\x00\x00\x00'
p1084
tp1085
Rp1086
tp1087
a(F121.39077
F25.08074
I1
g1
(g5
S'\x02\x00\x00\x00'
p1088
tp1089
Rp1090
tp1091
a(F121.65399
F25.06322
I1
g1
(g5
S'\x05\x00\x00\x00'
p1092
tp1093
Rp1094
tp1095
a(F121.5013
F24.99854
I1
g1
(g5
S'\x00\x00\x00\x00'
p1096
tp1097
Rp1098
tp1099
a(F121.48384
F25.02225
I1
g1
(g5
S'\x03\x00\x00\x00'
p1100
tp1101
Rp1102
tp1103
a(F121.5267
F25.00464
I1
g1
(g5
S'\x00\x00\x00\x00'
p1104
tp1105
Rp1106
tp1107
a(F121.42219
F25.12682
I1
g1
(g5
S'\x02\x00\x00\x00'
p1108
tp1109
Rp1110
tp1111
a(F121.45404
F25.01718
I1
g1
(g5
S'\x03\x00\x00\x00'
p1112
tp1113
Rp1114
tp1115
a(F121.46377
F25.13508
I1
g1
(g5
S'\x02\x00\x00\x00'
p1116
tp1117
Rp1118
tp1119
a(F121.44511
F25.05009
I1
g1
(g5
S'\x03\x00\x00\x00'
p1120
tp1121
Rp1122
tp1123
a(F121.47377
F25.03105
I1
g1
(g5
S'\x03\x00\x00\x00'
p1124
tp1125
Rp1126
tp1127
a(F121.43049
F25.05802
I1
g1
(g5
S'\x02\x00\x00\x00'
p1128
tp1129
Rp1130
tp1131
a(F121.48814
F25.06072
I1
g1
(g5
S'\x02\x00\x00\x00'
p1132
tp1133
Rp1134
tp1135
a(F121.6831
F25.0743
I1
g1
(g5
S'\x05\x00\x00\x00'
p1136
tp1137
Rp1138
tp1139
a(F121.41219
F24.95195
I1
g1
(g5
S'\x03\x00\x00\x00'
p1140
tp1141
Rp1142
tp1143
a(F121.4664
F25.0578
I1
g1
(g5
S'\x02\x00\x00\x00'
p1144
tp1145
Rp1146
tp1147
a(F121.49809
F24.94711
I1
g1
(g5
S'\x00\x00\x00\x00'
p1148
tp1149
Rp1150
tp1151
a(F121.36766
F24.93803
I1
g1
(g5
S'\x03\x00\x00\x00'
p1152
tp1153
Rp1154
tp1155
a(F121.50252
F25.00893
I1
g1
(g5
S'\x00\x00\x00\x00'
p1156
tp1157
Rp1158
tp1159
a(F121.53457
F24.97301
I1
g1
(g5
S'\x00\x00\x00\x00'
p1160
tp1161
Rp1162
tp1163
a(F121.46278
F25.03115
I2
g1
(g5
S'\x03\x00\x00\x00'
p1164
tp1165
Rp1166
tp1167
a(F121.62293
F25.26436
I1
g1
(g5
S'\x05\x00\x00\x00'
p1168
tp1169
Rp1170
tp1171
a(F121.43525
F25.10559
I1
g1
(g5
S'\x02\x00\x00\x00'
p1172
tp1173
Rp1174
tp1175
a(F121.46596
F25.00069
I1
g1
(g5
S'\x03\x00\x00\x00'
p1176
tp1177
Rp1178
tp1179
a(F121.43857
F25.17805
I1
g1
(g5
S'\x02\x00\x00\x00'
p1180
tp1181
Rp1182
tp1183
a(F121.5365
F24.97063
I1
g1
(g5
S'\x00\x00\x00\x00'
p1184
tp1185
Rp1186
tp1187
a(F121.4635
F25.00437
I1
g1
(g5
S'\x03\x00\x00\x00'
p1188
tp1189
Rp1190
tp1191
a(F121.90864
F25.02043
I1
g1
(g5
S'\x05\x00\x00\x00'
p1192
tp1193
Rp1194
tp1195
a(F121.50932
F24.98924
I2
g1
(g5
S'\x00\x00\x00\x00'
p1196
tp1197
Rp1198
tp1199
a(F121.51612
F24.99622
I1
g1
(g5
S'\x00\x00\x00\x00'
p1200
tp1201
Rp1202
tp1203
a(F121.41938
F25.01752
I1
g1
(g5
S'\x03\x00\x00\x00'
p1204
tp1205
Rp1206
tp1207
a(F121.50059
F25.00751
I1
g1
(g5
S'\x00\x00\x00\x00'
p1208
tp1209
Rp1210
tp1211
a(F121.44875
F25.17978
I2
g1
(g5
S'\x02\x00\x00\x00'
p1212
tp1213
Rp1214
tp1215
a(F121.51639
F25.00467
I1
g1
(g5
S'\x00\x00\x00\x00'
p1216
tp1217
Rp1218
tp1219
a(F121.47344
F25.08465
I1
g1
(g5
S'\x02\x00\x00\x00'
p1220
tp1221
Rp1222
tp1223
a(F120.32446
F22.60882
I1
g1
(g5
S'\x06\x00\x00\x00'
p1224
tp1225
Rp1226
tp1227
a(F121.49527
F24.94763
I1
g1
(g5
S'\x00\x00\x00\x00'
p1228
tp1229
Rp1230
tp1231
a(F121.45584
F25.04459
I1
g1
(g5
S'\x03\x00\x00\x00'
p1232
tp1233
Rp1234
tp1235
a(F121.51451
F24.98728
I1
g1
(g5
S'\x00\x00\x00\x00'
p1236
tp1237
Rp1238
tp1239
a(F121.52313
F25.10493
I1
g1
(g5
S'\x02\x00\x00\x00'
p1240
tp1241
Rp1242
tp1243
a(F121.49473
F25.00478
I1
g1
(g5
S'\x00\x00\x00\x00'
p1244
tp1245
Rp1246
tp1247
a(F121.48033
F25.0098
I1
g1
(g5
S'\x03\x00\x00\x00'
p1248
tp1249
Rp1250
tp1251
a(F121.51056
F24.98895
I1
g1
(g5
S'\x00\x00\x00\x00'
p1252
tp1253
Rp1254
tp1255
a(F121.47575
F25.08028
I1
g1
(g5
S'\x02\x00\x00\x00'
p1256
tp1257
Rp1258
tp1259
a(F121.48108
F25.06711
I1
g1
(g5
S'\x02\x00\x00\x00'
p1260
tp1261
Rp1262
tp1263
a(F121.46861
F25.02351
I1
g1
(g5
S'\x03\x00\x00\x00'
p1264
tp1265
Rp1266
tp1267
a(F121.48893
F25.05027
I1
g1
(g5
S'\x02\x00\x00\x00'
p1268
tp1269
Rp1270
tp1271
a(F121.89566
F25.05153
I1
g1
(g5
S'\x05\x00\x00\x00'
p1272
tp1273
Rp1274
tp1275
a(F121.55569
F24.85008
I2
g1
(g5
S'\x00\x00\x00\x00'
p1276
tp1277
Rp1278
tp1279
a(F121.51075
F25.00705
I1
g1
(g5
S'\x00\x00\x00\x00'
p1280
tp1281
Rp1282
tp1283
a(F121.47605
F25.0115
I2
g1
(g5
S'\x03\x00\x00\x00'
p1284
tp1285
Rp1286
tp1287
a(F121.46014
F25.01966
I1
g1
(g5
S'\x03\x00\x00\x00'
p1288
tp1289
Rp1290
tp1291
a(F121.54184
F24.97679
I1
g1
(g5
S'\x00\x00\x00\x00'
p1292
tp1293
Rp1294
tp1295
a(F121.51056
F25.01048
I1
g1
(g5
S'\x00\x00\x00\x00'
p1296
tp1297
Rp1298
tp1299
a(F121.50775
F24.98627
I1
g1
(g5
S'\x00\x00\x00\x00'
p1300
tp1301
Rp1302
tp1303
a(F121.45677
F25.08428
I1
g1
(g5
S'\x02\x00\x00\x00'
p1304
tp1305
Rp1306
tp1307
a(F121.4482
F25.04994
I1
g1
(g5
S'\x03\x00\x00\x00'
p1308
tp1309
Rp1310
tp1311
a(F121.61343
F25.01735
I1
g1
(g5
S'\x05\x00\x00\x00'
p1312
tp1313
Rp1314
tp1315
a(F121.5152
F25.00618
I1
g1
(g5
S'\x00\x00\x00\x00'
p1316
tp1317
Rp1318
tp1319
a(F121.51839
F24.97
I1
g1
(g5
S'\x00\x00\x00\x00'
p1320
tp1321
Rp1322
tp1323
a(F121.4846
F25.05926
I1
g1
(g5
S'\x02\x00\x00\x00'
p1324
tp1325
Rp1326
tp1327
a(F121.49722
F25.06762
I1
g1
(g5
S'\x02\x00\x00\x00'
p1328
tp1329
Rp1330
tp1331
a(F121.47446
F25.02869
I1
g1
(g5
S'\x03\x00\x00\x00'
p1332
tp1333
Rp1334
tp1335
a(F121.45967
F25.15306
I1
g1
(g5
S'\x02\x00\x00\x00'
p1336
tp1337
Rp1338
tp1339
a(F121.47931
F25.19441
I2
g1
(g5
S'\x02\x00\x00\x00'
p1340
tp1341
Rp1342
tp1343
a(F121.6619
F25.07364
I1
g1
(g5
S'\x05\x00\x00\x00'
p1344
tp1345
Rp1346
tp1347
a(F121.37592
F24.93586
I1
g1
(g5
S'\x03\x00\x00\x00'
p1348
tp1349
Rp1350
tp1351
a(F121.42561
F24.99932
I1
g1
(g5
S'\x03\x00\x00\x00'
p1352
tp1353
Rp1354
tp1355
a(F121.42848
F25.0202
I1
g1
(g5
S'\x03\x00\x00\x00'
p1356
tp1357
Rp1358
tp1359
a(F121.45801
F25.01614
I1
g1
(g5
S'\x03\x00\x00\x00'
p1360
tp1361
Rp1362
tp1363
a(F121.48583
F25.08738
I1
g1
(g5
S'\x02\x00\x00\x00'
p1364
tp1365
Rp1366
tp1367
a(F121.45428
F25.03531
I1
g1
(g5
S'\x03\x00\x00\x00'
p1368
tp1369
Rp1370
tp1371
a(F121.36248
F25.06533
I1
g1
(g5
S'\x02\x00\x00\x00'
p1372
tp1373
Rp1374
tp1375
a(F121.5427
F24.9857
I1
g1
(g5
S'\x00\x00\x00\x00'
p1376
tp1377
Rp1378
tp1379
a(F121.49984
F24.98882
I1
g1
(g5
S'\x00\x00\x00\x00'
p1380
tp1381
Rp1382
tp1383
a(F121.49138
F24.99757
I1
g1
(g5
S'\x00\x00\x00\x00'
p1384
tp1385
Rp1386
tp1387
a(F121.51954
F24.992
I1
g1
(g5
S'\x00\x00\x00\x00'
p1388
tp1389
Rp1390
tp1391
a(F121.45999
F25.15364
I2
g1
(g5
S'\x02\x00\x00\x00'
p1392
tp1393
Rp1394
tp1395
a(F121.4172
F25.10237
I1
g1
(g5
S'\x02\x00\x00\x00'
p1396
tp1397
Rp1398
tp1399
a(F121.38417
F25.07266
I2
g1
(g5
S'\x02\x00\x00\x00'
p1400
tp1401
Rp1402
tp1403
a(F121.63463
F25.22532
I1
g1
(g5
S'\x05\x00\x00\x00'
p1404
tp1405
Rp1406
tp1407
a(F121.51598
F25.00445
I1
g1
(g5
S'\x00\x00\x00\x00'
p1408
tp1409
Rp1410
tp1411
a(F121.50931
F24.98074
I1
g1
(g5
S'\x00\x00\x00\x00'
p1412
tp1413
Rp1414
tp1415
a(F121.48126
F25.02437
I1
g1
(g5
S'\x03\x00\x00\x00'
p1416
tp1417
Rp1418
tp1419
a(F121.45635
F24.98691
I1
g1
(g5
S'\x03\x00\x00\x00'
p1420
tp1421
Rp1422
tp1423
a(F121.388
F25.07298
I1
g1
(g5
S'\x02\x00\x00\x00'
p1424
tp1425
Rp1426
tp1427
a(F121.48314
F25.00006
I1
g1
(g5
S'\x00\x00\x00\x00'
p1428
tp1429
Rp1430
tp1431
a(F121.51787
F24.99903
I1
g1
(g5
S'\x00\x00\x00\x00'
p1432
tp1433
Rp1434
tp1435
a(F121.47594
F25.02707
I1
g1
(g5
S'\x03\x00\x00\x00'
p1436
tp1437
Rp1438
tp1439
a(F121.68543
F25.06736
I1
g1
(g5
S'\x05\x00\x00\x00'
p1440
tp1441
Rp1442
tp1443
a(F121.44508
F25.0512
I2
g1
(g5
S'\x03\x00\x00\x00'
p1444
tp1445
Rp1446
tp1447
a(F121.50325
F24.9927
I1
g1
(g5
S'\x00\x00\x00\x00'
p1448
tp1449
Rp1450
tp1451
a(F121.52179
F24.99105
I1
g1
(g5
S'\x00\x00\x00\x00'
p1452
tp1453
Rp1454
tp1455
a(F121.66765
F25.08285
I1
g1
(g5
S'\x05\x00\x00\x00'
p1456
tp1457
Rp1458
tp1459
a(F121.84599
F25.10772
I1
g1
(g5
S'\x05\x00\x00\x00'
p1460
tp1461
Rp1462
tp1463
a(F121.41348
F24.99877
I1
g1
(g5
S'\x03\x00\x00\x00'
p1464
tp1465
Rp1466
tp1467
a(F121.51411
F25.01594
I1
g1
(g5
S'\x00\x00\x00\x00'
p1468
tp1469
Rp1470
tp1471
a(F121.52203
F25.00684
I1
g1
(g5
S'\x00\x00\x00\x00'
p1472
tp1473
Rp1474
tp1475
a(F121.44931
F24.98134
I1
g1
(g5
S'\x03\x00\x00\x00'
p1476
tp1477
Rp1478
tp1479
a(F121.50214
F24.99597
I1
g1
(g5
S'\x00\x00\x00\x00'
p1480
tp1481
Rp1482
tp1483
a(F121.47516
F24.99943
I1
g1
(g5
S'\x03\x00\x00\x00'
p1484
tp1485
Rp1486
tp1487
a(F121.50538
F24.99251
I1
g1
(g5
S'\x00\x00\x00\x00'
p1488
tp1489
Rp1490
tp1491
a(F121.6576
F25.06133
I1
g1
(g5
S'\x05\x00\x00\x00'
p1492
tp1493
Rp1494
tp1495
a(F121.62511
F25.06244
I1
g1
(g5
S'\x05\x00\x00\x00'
p1496
tp1497
Rp1498
tp1499
a(F121.47087
F25.09046
I3
g1
(g5
S'\x02\x00\x00\x00'
p1500
tp1501
Rp1502
tp1503
a(F121.44101
F25.16942
I2
g1
(g5
S'\x02\x00\x00\x00'
p1504
tp1505
Rp1506
tp1507
a(F121.43569
F25.05136
I1
g1
(g5
S'\x03\x00\x00\x00'
p1508
tp1509
Rp1510
tp1511
a(F121.44436
F24.99615
I2
g1
(g5
S'\x03\x00\x00\x00'
p1512
tp1513
Rp1514
tp1515
a(F121.483
F25.06235
I2
g1
(g5
S'\x02\x00\x00\x00'
p1516
tp1517
Rp1518
tp1519
a(F121.49269
F25.05683
I2
g1
(g5
S'\x02\x00\x00\x00'
p1520
tp1521
Rp1522
tp1523
a(F121.50998
F25.00114
I1
g1
(g5
S'\x00\x00\x00\x00'
p1524
tp1525
Rp1526
tp1527
a(F121.66
F25.06227
I1
g1
(g5
S'\x05\x00\x00\x00'
p1528
tp1529
Rp1530
tp1531
a(F121.42664
F25.01747
I1
g1
(g5
S'\x03\x00\x00\x00'
p1532
tp1533
Rp1534
tp1535
a(F121.50904
F24.99553
I1
g1
(g5
S'\x00\x00\x00\x00'
p1536
tp1537
Rp1538
tp1539
a(F121.46811
F25.05823
I1
g1
(g5
S'\x02\x00\x00\x00'
p1540
tp1541
Rp1542
tp1543
a(F121.41363
F25.10771
I1
g1
(g5
S'\x02\x00\x00\x00'
p1544
tp1545
Rp1546
tp1547
a(F121.45095
F25.16548
I2
g1
(g5
S'\x02\x00\x00\x00'
p1548
tp1549
Rp1550
tp1551
a(F121.46671
F25.01959
I1
g1
(g5
S'\x03\x00\x00\x00'
p1552
tp1553
Rp1554
tp1555
a(F121.48752
F25.04867
I1
g1
(g5
S'\x02\x00\x00\x00'
p1556
tp1557
Rp1558
tp1559
a(F121.52929
F24.97379
I1
g1
(g5
S'\x00\x00\x00\x00'
p1560
tp1561
Rp1562
tp1563
a(F121.53847
F24.98343
I1
g1
(g5
S'\x00\x00\x00\x00'
p1564
tp1565
Rp1566
tp1567
a(F121.55536
F24.93303
I1
g1
(g5
S'\x00\x00\x00\x00'
p1568
tp1569
Rp1570
tp1571
a(F121.47024
F25.00739
I1
g1
(g5
S'\x03\x00\x00\x00'
p1572
tp1573
Rp1574
tp1575
a(F121.42716
F24.99387
I1
g1
(g5
S'\x03\x00\x00\x00'
p1576
tp1577
Rp1578
tp1579
a(F121.44868
F24.9826
I1
g1
(g5
S'\x03\x00\x00\x00'
p1580
tp1581
Rp1582
tp1583
a(F121.4813
F25.0196
I1
g1
(g5
S'\x03\x00\x00\x00'
p1584
tp1585
Rp1586
tp1587
a(F121.43296
F25.05468
I1
g1
(g5
S'\x02\x00\x00\x00'
p1588
tp1589
Rp1590
tp1591
a(F121.49703
F25.07363
I1
g1
(g5
S'\x02\x00\x00\x00'
p1592
tp1593
Rp1594
tp1595
a(F121.47732
F25.08564
I1
g1
(g5
S'\x02\x00\x00\x00'
p1596
tp1597
Rp1598
tp1599
a(F121.46007
F24.97438
I1
g1
(g5
S'\x03\x00\x00\x00'
p1600
tp1601
Rp1602
tp1603
a(F121.48212
F25.07993
I1
g1
(g5
S'\x02\x00\x00\x00'
p1604
tp1605
Rp1606
tp1607
a(F121.49886
F25.0024
I1
g1
(g5
S'\x00\x00\x00\x00'
p1608
tp1609
Rp1610
tp1611
a(F121.37339
F25.06878
I1
g1
(g5
S'\x02\x00\x00\x00'
p1612
tp1613
Rp1614
tp1615
a(F121.51243
F24.95784
I1
g1
(g5
S'\x00\x00\x00\x00'
p1616
tp1617
Rp1618
tp1619
a(F121.48524
F25.05898
I1
g1
(g5
S'\x02\x00\x00\x00'
p1620
tp1621
Rp1622
tp1623
a(F121.46003
F25.00763
I1
g1
(g5
S'\x03\x00\x00\x00'
p1624
tp1625
Rp1626
tp1627
a(F121.47824
F25.00792
I1
g1
(g5
S'\x03\x00\x00\x00'
p1628
tp1629
Rp1630
tp1631
a(F121.42028
F24.98555
I1
g1
(g5
S'\x03\x00\x00\x00'
p1632
tp1633
Rp1634
tp1635
a(F121.48477
F24.99919
I1
g1
(g5
S'\x00\x00\x00\x00'
p1636
tp1637
Rp1638
tp1639
a(F121.50244
F24.99739
I1
g1
(g5
S'\x00\x00\x00\x00'
p1640
tp1641
Rp1642
tp1643
a(F121.65007
F25.08292
I1
g1
(g5
S'\x05\x00\x00\x00'
p1644
tp1645
Rp1646
tp1647
a(F121.37364
F24.9338
I1
g1
(g5
S'\x03\x00\x00\x00'
p1648
tp1649
Rp1650
tp1651
a(F121.47531
F25.01669
I1
g1
(g5
S'\x03\x00\x00\x00'
p1652
tp1653
Rp1654
tp1655
a(F121.53085
F25.0009
I1
g1
(g5
S'\x00\x00\x00\x00'
p1656
tp1657
Rp1658
tp1659
a(F121.9272
F25.04278
I1
g1
(g5
S'\x05\x00\x00\x00'
p1660
tp1661
Rp1662
tp1663
a(F121.37388
F24.94394
I1
g1
(g5
S'\x03\x00\x00\x00'
p1664
tp1665
Rp1666
tp1667
a(F121.48757
F25.07976
I1
g1
(g5
S'\x02\x00\x00\x00'
p1668
tp1669
Rp1670
tp1671
a(F121.60656
F25.00192
I1
g1
(g5
S'\x00\x00\x00\x00'
p1672
tp1673
Rp1674
tp1675
a(F121.47315
F25.0807
I1
g1
(g5
S'\x02\x00\x00\x00'
p1676
tp1677
Rp1678
tp1679
a(F121.46354
F25.13671
I1
g1
(g5
S'\x02\x00\x00\x00'
p1680
tp1681
Rp1682
tp1683
a(F121.46441
F24.99827
I1
g1
(g5
S'\x03\x00\x00\x00'
p1684
tp1685
Rp1686
tp1687
a(F121.48069
F25.08608
I1
g1
(g5
S'\x02\x00\x00\x00'
p1688
tp1689
Rp1690
tp1691
a(F121.51001
F25.00737
I2
g1
(g5
S'\x00\x00\x00\x00'
p1692
tp1693
Rp1694
tp1695
a(F121.68638
F25.20096
I1
g1
(g5
S'\x05\x00\x00\x00'
p1696
tp1697
Rp1698
tp1699
a(F121.51335
F24.9982
I1
g1
(g5
S'\x00\x00\x00\x00'
p1700
tp1701
Rp1702
tp1703
a(F121.43318
F25.05526
I1
g1
(g5
S'\x02\x00\x00\x00'
p1704
tp1705
Rp1706
tp1707
a(F121.5191
F24.98755
I1
g1
(g5
S'\x00\x00\x00\x00'
p1708
tp1709
Rp1710
tp1711
a(F121.63047
F25.07785
I1
g1
(g5
S'\x05\x00\x00\x00'
p1712
tp1713
Rp1714
tp1715
a(F121.45684
F25.1981
I1
g1
(g5
S'\x02\x00\x00\x00'
p1716
tp1717
Rp1718
tp1719
a(F121.54225
F24.98337
I1
g1
(g5
S'\x00\x00\x00\x00'
p1720
tp1721
Rp1722
tp1723
a(F121.52148
F25.00948
I1
g1
(g5
S'\x00\x00\x00\x00'
p1724
tp1725
Rp1726
tp1727
a(F121.47244
F25.08799
I1
g1
(g5
S'\x02\x00\x00\x00'
p1728
tp1729
Rp1730
tp1731
a(F121.48166
F25.08653
I1
g1
(g5
S'\x02\x00\x00\x00'
p1732
tp1733
Rp1734
tp1735
a(F121.47811
F24.99947
I1
g1
(g5
S'\x03\x00\x00\x00'
p1736
tp1737
Rp1738
tp1739
a(F121.67099
F25.06909
I2
g1
(g5
S'\x05\x00\x00\x00'
p1740
tp1741
Rp1742
tp1743
a(F121.48046
F25.01821
I1
g1
(g5
S'\x03\x00\x00\x00'
p1744
tp1745
Rp1746
tp1747
a(F121.5078
F24.99425
I1
g1
(g5
S'\x00\x00\x00\x00'
p1748
tp1749
Rp1750
tp1751
a(F121.4856066
F25.060808
I1
g1
(g5
S'\x02\x00\x00\x00'
p1752
tp1753
Rp1754
tp1755
a(F121.44767
F25.03136
I1
g1
(g5
S'\x03\x00\x00\x00'
p1756
tp1757
Rp1758
tp1759
a(F121.37874
F25.09198
I1
g1
(g5
S'\x02\x00\x00\x00'
p1760
tp1761
Rp1762
tp1763
a(F121.45148
F25.17359
I1
g1
(g5
S'\x02\x00\x00\x00'
p1764
tp1765
Rp1766
tp1767
a(F121.45403
F25.05111
I1
g1
(g5
S'\x03\x00\x00\x00'
p1768
tp1769
Rp1770
tp1771
a(F121.54046
F24.97088
I1
g1
(g5
S'\x00\x00\x00\x00'
p1772
tp1773
Rp1774
tp1775
a(F121.46475
F25.01764
I1
g1
(g5
S'\x03\x00\x00\x00'
p1776
tp1777
Rp1778
tp1779
a(F121.50551
F24.99312
I3
g1
(g5
S'\x00\x00\x00\x00'
p1780
tp1781
Rp1782
tp1783
a(F121.46626
F25.03141
I1
g1
(g5
S'\x03\x00\x00\x00'
p1784
tp1785
Rp1786
tp1787
a(F121.45161
F25.17228
I1
g1
(g5
S'\x02\x00\x00\x00'
p1788
tp1789
Rp1790
tp1791
a(F121.50707
F25.00208
I1
g1
(g5
S'\x00\x00\x00\x00'
p1792
tp1793
Rp1794
tp1795
a(F121.47582
F25.0083
I1
g1
(g5
S'\x03\x00\x00\x00'
p1796
tp1797
Rp1798
tp1799
a(F121.45329
F24.98794
I1
g1
(g5
S'\x03\x00\x00\x00'
p1800
tp1801
Rp1802
tp1803
a(F121.43408
F25.04263
I1
g1
(g5
S'\x03\x00\x00\x00'
p1804
tp1805
Rp1806
tp1807
a(F121.44972
F25.04997
I1
g1
(g5
S'\x03\x00\x00\x00'
p1808
tp1809
Rp1810
tp1811
a(F121.47919
F23.84656
I1
g1
(g5
S'\x04\x00\x00\x00'
p1812
tp1813
Rp1814
tp1815
a(F121.36638
F24.93612
I1
g1
(g5
S'\x03\x00\x00\x00'
p1816
tp1817
Rp1818
tp1819
a(F121.48192
F25.06168
I1
g1
(g5
S'\x02\x00\x00\x00'
p1820
tp1821
Rp1822
tp1823
a(F121.4549
F24.99246
I1
g1
(g5
S'\x03\x00\x00\x00'
p1824
tp1825
Rp1826
tp1827
a(F121.44775
F25.16769
I1
g1
(g5
S'\x02\x00\x00\x00'
p1828
tp1829
Rp1830
tp1831
a(F121.44496
F25.09235
I1
g1
(g5
S'\x02\x00\x00\x00'
p1832
tp1833
Rp1834
tp1835
a(F121.63297
F25.0646
I1
g1
(g5
S'\x05\x00\x00\x00'
p1836
tp1837
Rp1838
tp1839
a(F121.5987
F25.07915
I1
g1
(g5
S'\x05\x00\x00\x00'
p1840
tp1841
Rp1842
tp1843
a(F121.54236
F24.97405
I1
g1
(g5
S'\x00\x00\x00\x00'
p1844
tp1845
Rp1846
tp1847
a(F121.49929
F25.07422
I1
g1
(g5
S'\x02\x00\x00\x00'
p1848
tp1849
Rp1850
tp1851
a(F121.46146
F25.02467
I1
g1
(g5
S'\x03\x00\x00\x00'
p1852
tp1853
Rp1854
tp1855
a(F121.6306
F25.06994
I2
g1
(g5
S'\x05\x00\x00\x00'
p1856
tp1857
Rp1858
tp1859
a(F121.48936
F25.08275
I1
g1
(g5
S'\x02\x00\x00\x00'
p1860
tp1861
Rp1862
tp1863
a(F121.49577
F25.07047
I1
g1
(g5
S'\x02\x00\x00\x00'
p1864
tp1865
Rp1866
tp1867
a(F121.45157
F25.0675
I1
g1
(g5
S'\x02\x00\x00\x00'
p1868
tp1869
Rp1870
tp1871
a(F121.51851
F25.01105
I1
g1
(g5
S'\x00\x00\x00\x00'
p1872
tp1873
Rp1874
tp1875
a(F121.50938
F25.0095
I1
g1
(g5
S'\x00\x00\x00\x00'
p1876
tp1877
Rp1878
tp1879
a(F121.47175
F25.0846
I1
g1
(g5
S'\x02\x00\x00\x00'
p1880
tp1881
Rp1882
tp1883
a(F121.43502
F24.96703
I1
g1
(g5
S'\x03\x00\x00\x00'
p1884
tp1885
Rp1886
tp1887
a(F121.47688
F25.03202
I1
g1
(g5
S'\x03\x00\x00\x00'
p1888
tp1889
Rp1890
tp1891
a(F121.49185
F25.06836
I2
g1
(g5
S'\x02\x00\x00\x00'
p1892
tp1893
Rp1894
tp1895
a(F121.43284
F24.9888
I1
g1
(g5
S'\x03\x00\x00\x00'
p1896
tp1897
Rp1898
tp1899
a(F121.49769
F25.05766
I2
g1
(g5
S'\x02\x00\x00\x00'
p1900
tp1901
Rp1902
tp1903
a(F121.44859
F25.034
I1
g1
(g5
S'\x03\x00\x00\x00'
p1904
tp1905
Rp1906
tp1907
a(F121.49202
F25.0732
I2
g1
(g5
S'\x02\x00\x00\x00'
p1908
tp1909
Rp1910
tp1911
a(F121.48774
F24.998
I1
g1
(g5
S'\x00\x00\x00\x00'
p1912
tp1913
Rp1914
tp1915
a(F121.48892
F24.98175
I1
g1
(g5
S'\x00\x00\x00\x00'
p1916
tp1917
Rp1918
tp1919
a(F121.47321
F25.00951
I1
g1
(g5
S'\x03\x00\x00\x00'
p1920
tp1921
Rp1922
tp1923
a(F121.42297
F25.06417
I1
g1
(g5
S'\x02\x00\x00\x00'
p1924
tp1925
Rp1926
tp1927
a(F121.54271
F24.98332
I1
g1
(g5
S'\x00\x00\x00\x00'
p1928
tp1929
Rp1930
tp1931
a(F121.50838
F25.00299
I1
g1
(g5
S'\x00\x00\x00\x00'
p1932
tp1933
Rp1934
tp1935
a(F121.47611
F25.08983
I1
g1
(g5
S'\x02\x00\x00\x00'
p1936
tp1937
Rp1938
tp1939
a(F121.48309
F25.00336
I1
g1
(g5
S'\x00\x00\x00\x00'
p1940
tp1941
Rp1942
tp1943
a(F121.48836
F25.07475
I1
g1
(g5
S'\x02\x00\x00\x00'
p1944
tp1945
Rp1946
tp1947
a(F121.40995
F25.11347
I1
g1
(g5
S'\x02\x00\x00\x00'
p1948
tp1949
Rp1950
tp1951
a(F121.41711
F25.04157
I1
g1
(g5
S'\x03\x00\x00\x00'
p1952
tp1953
Rp1954
tp1955
a(F121.32544
F24.97332
I1
g1
(g5
S'\x03\x00\x00\x00'
p1956
tp1957
Rp1958
tp1959
a(F121.80725
F25.10606
I1
g1
(g5
S'\x05\x00\x00\x00'
p1960
tp1961
Rp1962
tp1963
a(F121.45908
F25.08211
I1
g1
(g5
S'\x02\x00\x00\x00'
p1964
tp1965
Rp1966
tp1967
a(F121.3797
F24.9316
I1
g1
(g5
S'\x03\x00\x00\x00'
p1968
tp1969
Rp1970
tp1971
a(F121.33757
F24.95546
I1
g1
(g5
S'\x03\x00\x00\x00'
p1972
tp1973
Rp1974
tp1975
a(F121.49674
F25.05999
I1
g1
(g5
S'\x02\x00\x00\x00'
p1976
tp1977
Rp1978
tp1979
a(F121.47815
F25.02988
I1
g1
(g5
S'\x03\x00\x00\x00'
p1980
tp1981
Rp1982
tp1983
a(F121.43201
F24.99214
I1
g1
(g5
S'\x03\x00\x00\x00'
p1984
tp1985
Rp1986
tp1987
a(F121.44754
F25.10464
I1
g1
(g5
S'\x02\x00\x00\x00'
p1988
tp1989
Rp1990
tp1991
a(F121.34009
F24.97262
I1
g1
(g5
S'\x03\x00\x00\x00'
p1992
tp1993
Rp1994
tp1995
a(F121.62409
F25.04234
I1
g1
(g5
S'\x05\x00\x00\x00'
p1996
tp1997
Rp1998
tp1999
a(F121.53917
F24.97703
I1
g1
(g5
S'\x00\x00\x00\x00'
p2000
tp2001
Rp2002
tp2003
a(F121.5254
F25.00367
I1
g1
(g5
S'\x00\x00\x00\x00'
p2004
tp2005
Rp2006
tp2007
a(F121.46915
F25.08562
I1
g1
(g5
S'\x02\x00\x00\x00'
p2008
tp2009
Rp2010
tp2011
a(F121.49405
F25.08632
I2
g1
(g5
S'\x02\x00\x00\x00'
p2012
tp2013
Rp2014
tp2015
a(F121.54216
F24.98708
I1
g1
(g5
S'\x00\x00\x00\x00'
p2016
tp2017
Rp2018
tp2019
a(F121.49332
F25.08045
I1
g1
(g5
S'\x02\x00\x00\x00'
p2020
tp2021
Rp2022
tp2023
a(F121.50251
F24.99926
I2
g1
(g5
S'\x00\x00\x00\x00'
p2024
tp2025
Rp2026
tp2027
a(F121.449
F25.04891
I1
g1
(g5
S'\x03\x00\x00\x00'
p2028
tp2029
Rp2030
tp2031
a(F121.43953
F25.19121
I1
g1
(g5
S'\x02\x00\x00\x00'
p2032
tp2033
Rp2034
tp2035
a(F120.64714
F24.0118
I1
g1
(g5
S'\x04\x00\x00\x00'
p2036
tp2037
Rp2038
tp2039
a(F121.54779
F24.95016
I1
g1
(g5
S'\x00\x00\x00\x00'
p2040
tp2041
Rp2042
tp2043
a(F121.44845
F25.03566
I1
g1
(g5
S'\x03\x00\x00\x00'
p2044
tp2045
Rp2046
tp2047
a(F121.51785
F25.00293
I1
g1
(g5
S'\x00\x00\x00\x00'
p2048
tp2049
Rp2050
tp2051
a(F121.50042
F24.99387
I1
g1
(g5
S'\x00\x00\x00\x00'
p2052
tp2053
Rp2054
tp2055
a(F121.46009
F25.14175
I1
g1
(g5
S'\x02\x00\x00\x00'
p2056
tp2057
Rp2058
tp2059
a(F121.47554
F25.00532
I1
g1
(g5
S'\x03\x00\x00\x00'
p2060
tp2061
Rp2062
tp2063
a(F121.45196
F24.98445
I2
g1
(g5
S'\x03\x00\x00\x00'
p2064
tp2065
Rp2066
tp2067
a(F121.45498
F25.04741
I1
g1
(g5
S'\x03\x00\x00\x00'
p2068
tp2069
Rp2070
tp2071
a(F121.51571
F25.01678
I1
g1
(g5
S'\x00\x00\x00\x00'
p2072
tp2073
Rp2074
tp2075
a(F121.513
F25.00419
I1
g1
(g5
S'\x00\x00\x00\x00'
p2076
tp2077
Rp2078
tp2079
a(F121.50409
F24.98402
I1
g1
(g5
S'\x00\x00\x00\x00'
p2080
tp2081
Rp2082
tp2083
a(F121.45528
F24.99214
I1
g1
(g5
S'\x03\x00\x00\x00'
p2084
tp2085
Rp2086
tp2087
a(F121.42387
F25.01265
I1
g1
(g5
S'\x03\x00\x00\x00'
p2088
tp2089
Rp2090
tp2091
a(F121.50201
F24.97556
I1
g1
(g5
S'\x00\x00\x00\x00'
p2092
tp2093
Rp2094
tp2095
a(F121.361
F25.07217
I1
g1
(g5
S'\x02\x00\x00\x00'
p2096
tp2097
Rp2098
tp2099
a(F121.79111
F25.09389
I1
g1
(g5
S'\x05\x00\x00\x00'
p2100
tp2101
Rp2102
tp2103
a(F121.52822
F25.00176
I1
g1
(g5
S'\x00\x00\x00\x00'
p2104
tp2105
Rp2106
tp2107
a(F121.43242
F25.02898
I1
g1
(g5
S'\x03\x00\x00\x00'
p2108
tp2109
Rp2110
tp2111
a(F121.5236
F24.99625
I1
g1
(g5
S'\x00\x00\x00\x00'
p2112
tp2113
Rp2114
tp2115
a(F121.49085
F25.07866
I1
g1
(g5
S'\x02\x00\x00\x00'
p2116
tp2117
Rp2118
tp2119
a(F121.46184
F25.12853
I2
g1
(g5
S'\x02\x00\x00\x00'
p2120
tp2121
Rp2122
tp2123
a(F121.44383
F25.09075
I4
g1
(g5
S'\x02\x00\x00\x00'
p2124
tp2125
Rp2126
tp2127
a(F121.49507
F25.06787
I1
g1
(g5
S'\x02\x00\x00\x00'
p2128
tp2129
Rp2130
tp2131
a(F121.51799
F24.99529
I2
g1
(g5
S'\x00\x00\x00\x00'
p2132
tp2133
Rp2134
tp2135
a(F121.47638
F25.07265
I1
g1
(g5
S'\x02\x00\x00\x00'
p2136
tp2137
Rp2138
tp2139
a(F121.54139
F24.96455
I1
g1
(g5
S'\x00\x00\x00\x00'
p2140
tp2141
Rp2142
tp2143
a(F121.43474
F25.02024
I1
g1
(g5
S'\x03\x00\x00\x00'
p2144
tp2145
Rp2146
tp2147
a(F121.46028
F25.00052
I1
g1
(g5
S'\x03\x00\x00\x00'
p2148
tp2149
Rp2150
tp2151
a(F121.46839
F25.08118
I1
g1
(g5
S'\x02\x00\x00\x00'
p2152
tp2153
Rp2154
tp2155
a(F121.52781
F24.97371
I1
g1
(g5
S'\x00\x00\x00\x00'
p2156
tp2157
Rp2158
tp2159
a(F121.44326
F25.00223
I1
g1
(g5
S'\x03\x00\x00\x00'
p2160
tp2161
Rp2162
tp2163
a(F121.66737
F25.08034
I1
g1
(g5
S'\x05\x00\x00\x00'
p2164
tp2165
Rp2166
tp2167
a(F121.45902
F25.13628
I1
g1
(g5
S'\x02\x00\x00\x00'
p2168
tp2169
Rp2170
tp2171
a(F121.41313
F25.02172
I1
g1
(g5
S'\x03\x00\x00\x00'
p2172
tp2173
Rp2174
tp2175
a(F121.44261
F25.09143
I9
g1
(g5
S'\x02\x00\x00\x00'
p2176
tp2177
Rp2178
tp2179
a(F121.65605
F25.06293
I1
g1
(g5
S'\x05\x00\x00\x00'
p2180
tp2181
Rp2182
tp2183
a(F121.50224
F25.25767
I1
g1
(g5
S'\x02\x00\x00\x00'
p2184
tp2185
Rp2186
tp2187
a(F121.45024
F25.18036
I1
g1
(g5
S'\x02\x00\x00\x00'
p2188
tp2189
Rp2190
tp2191
a(F121.42166
F25.02778
I1
g1
(g5
S'\x03\x00\x00\x00'
p2192
tp2193
Rp2194
tp2195
a(F121.49307
F25.06526
I1
g1
(g5
S'\x02\x00\x00\x00'
p2196
tp2197
Rp2198
tp2199
a(F121.36993
F24.94596
I1
g1
(g5
S'\x03\x00\x00\x00'
p2200
tp2201
Rp2202
tp2203
a(F121.518
F25.01272
I1
g1
(g5
S'\x00\x00\x00\x00'
p2204
tp2205
Rp2206
tp2207
a(F121.41213
F25.0035
I1
g1
(g5
S'\x03\x00\x00\x00'
p2208
tp2209
Rp2210
tp2211
a(F121.45372
F24.99488
I1
g1
(g5
S'\x03\x00\x00\x00'
p2212
tp2213
Rp2214
tp2215
a(F121.50762
F24.99924
I1
g1
(g5
S'\x00\x00\x00\x00'
p2216
tp2217
Rp2218
tp2219
a(F121.42224
F24.98237
I1
g1
(g5
S'\x03\x00\x00\x00'
p2220
tp2221
Rp2222
tp2223
a(F121.37522
F24.93572
I1
g1
(g5
S'\x03\x00\x00\x00'
p2224
tp2225
Rp2226
tp2227
a(F121.45795
F25.03951
I1
g1
(g5
S'\x03\x00\x00\x00'
p2228
tp2229
Rp2230
tp2231
a(F121.51315
F24.98744
I1
g1
(g5
S'\x00\x00\x00\x00'
p2232
tp2233
Rp2234
tp2235
a(F121.46806
F25.0128
I2
g1
(g5
S'\x03\x00\x00\x00'
p2236
tp2237
Rp2238
tp2239
a(F121.44577
F25.03012
I1
g1
(g5
S'\x03\x00\x00\x00'
p2240
tp2241
Rp2242
tp2243
a(F121.47434
F25.0301
I1
g1
(g5
S'\x03\x00\x00\x00'
p2244
tp2245
Rp2246
tp2247
a(F121.29335
F25.11169
I1
g1
(g5
S'\x02\x00\x00\x00'
p2248
tp2249
Rp2250
tp2251
a(F121.634
F25.08334
I2
g1
(g5
S'\x05\x00\x00\x00'
p2252
tp2253
Rp2254
tp2255
a(F121.45203
F24.99265
I1
g1
(g5
S'\x03\x00\x00\x00'
p2256
tp2257
Rp2258
tp2259
a(F121.44796
F25.18326
I3
g1
(g5
S'\x02\x00\x00\x00'
p2260
tp2261
Rp2262
tp2263
a(F121.6191
F25.04969
I1
g1
(g5
S'\x05\x00\x00\x00'
p2264
tp2265
Rp2266
tp2267
a(F121.41606
F25.02882
I1
g1
(g5
S'\x03\x00\x00\x00'
p2268
tp2269
Rp2270
tp2271
a(F121.47017
F25.00171
I1
g1
(g5
S'\x03\x00\x00\x00'
p2272
tp2273
Rp2274
tp2275
a(F121.46875
F25.02259
I1
g1
(g5
S'\x03\x00\x00\x00'
p2276
tp2277
Rp2278
tp2279
a(F121.371
F25.07055
I1
g1
(g5
S'\x02\x00\x00\x00'
p2280
tp2281
Rp2282
tp2283
a(F121.50466
F24.98435
I1
g1
(g5
S'\x00\x00\x00\x00'
p2284
tp2285
Rp2286
tp2287
a(F121.43156
F25.02166
I1
g1
(g5
S'\x03\x00\x00\x00'
p2288
tp2289
Rp2290
tp2291
a(F121.75232
F24.75207
I1
g1
(g5
S'\x05\x00\x00\x00'
p2292
tp2293
Rp2294
tp2295
a(F121.59972
F25.00353
I1
g1
(g5
S'\x00\x00\x00\x00'
p2296
tp2297
Rp2298
tp2299
a(F121.4195
F24.98632
I1
g1
(g5
S'\x03\x00\x00\x00'
p2300
tp2301
Rp2302
tp2303
a(F121.43346
F25.1763
I1
g1
(g5
S'\x02\x00\x00\x00'
p2304
tp2305
Rp2306
tp2307
a(F121.57568
F25.04121
I1
g1
(g5
S'\x00\x00\x00\x00'
p2308
tp2309
Rp2310
tp2311
a(F121.48217
F25.06102
I1
g1
(g5
S'\x02\x00\x00\x00'
p2312
tp2313
Rp2314
tp2315
a(F121.4939
F24.99464
I1
g1
(g5
S'\x00\x00\x00\x00'
p2316
tp2317
Rp2318
tp2319
a(F121.44333
F25.17784
I1
g1
(g5
S'\x02\x00\x00\x00'
p2320
tp2321
Rp2322
tp2323
a(F121.39436
F25.07634
I1
g1
(g5
S'\x02\x00\x00\x00'
p2324
tp2325
Rp2326
tp2327
a(F121.44401
F25.21965
I1
g1
(g5
S'\x02\x00\x00\x00'
p2328
tp2329
Rp2330
tp2331
a(F121.4607
F25.08876
I1
g1
(g5
S'\x02\x00\x00\x00'
p2332
tp2333
Rp2334
tp2335
a(F121.4701
F25.09345
I1
g1
(g5
S'\x02\x00\x00\x00'
p2336
tp2337
Rp2338
tp2339
a(F121.4627576
F25.0130994
I1
g1
(g5
S'\x03\x00\x00\x00'
p2340
tp2341
Rp2342
tp2343
a(F121.36691
F24.90814
I1
g1
(g5
S'\x03\x00\x00\x00'
p2344
tp2345
Rp2346
tp2347
a(F121.98271
F25.00652
I1
g1
(g5
S'\x05\x00\x00\x00'
p2348
tp2349
Rp2350
tp2351
a(F121.80144
F25.10718
I1
g1
(g5
S'\x05\x00\x00\x00'
p2352
tp2353
Rp2354
tp2355
a(F121.42409
F25.0198
I1
g1
(g5
S'\x03\x00\x00\x00'
p2356
tp2357
Rp2358
tp2359
a(F121.51131
F24.95929
I1
g1
(g5
S'\x00\x00\x00\x00'
p2360
tp2361
Rp2362
tp2363
a(F121.46016
F25.15522
I1
g1
(g5
S'\x02\x00\x00\x00'
p2364
tp2365
Rp2366
tp2367
a(F121.6469
F25.08976
I1
g1
(g5
S'\x05\x00\x00\x00'
p2368
tp2369
Rp2370
tp2371
a(F121.44589
F25.1752
I1
g1
(g5
S'\x02\x00\x00\x00'
p2372
tp2373
Rp2374
tp2375
a(F121.55121
F24.97226
I2
g1
(g5
S'\x00\x00\x00\x00'
p2376
tp2377
Rp2378
tp2379
a(F121.3786
F25.0703
I1
g1
(g5
S'\x02\x00\x00\x00'
p2380
tp2381
Rp2382
tp2383
a(F121.46793
F24.99857
I1
g1
(g5
S'\x03\x00\x00\x00'
p2384
tp2385
Rp2386
tp2387
a(F121.47912
F25.00504
I1
g1
(g5
S'\x03\x00\x00\x00'
p2388
tp2389
Rp2390
tp2391
a(F121.46452
F24.99639
I1
g1
(g5
S'\x03\x00\x00\x00'
p2392
tp2393
Rp2394
tp2395
a(F121.45517
F25.01047
I1
g1
(g5
S'\x03\x00\x00\x00'
p2396
tp2397
Rp2398
tp2399
a(F121.40446
F25.01568
I1
g1
(g5
S'\x03\x00\x00\x00'
p2400
tp2401
Rp2402
tp2403
a(F121.43871
F25.08373
I1
g1
(g5
S'\x02\x00\x00\x00'
p2404
tp2405
Rp2406
tp2407
a(F121.47577
F25.01651
I1
g1
(g5
S'\x03\x00\x00\x00'
p2408
tp2409
Rp2410
tp2411
a(F121.68271
F25.07465
I1
g1
(g5
S'\x05\x00\x00\x00'
p2412
tp2413
Rp2414
tp2415
a(F121.49848
F24.98901
I1
g1
(g5
S'\x00\x00\x00\x00'
p2416
tp2417
Rp2418
tp2419
a(F121.49159
F25.08235
I1
g1
(g5
S'\x02\x00\x00\x00'
p2420
tp2421
Rp2422
tp2423
a(F121.43234
F25.05609
I2
g1
(g5
S'\x02\x00\x00\x00'
p2424
tp2425
Rp2426
tp2427
a(F121.42872
F24.98734
I1
g1
(g5
S'\x03\x00\x00\x00'
p2428
tp2429
Rp2430
tp2431
a(F121.47558
F25.02129
I1
g1
(g5
S'\x03\x00\x00\x00'
p2432
tp2433
Rp2434
tp2435
a(F121.54176
F24.97036
I1
g1
(g5
S'\x00\x00\x00\x00'
p2436
tp2437
Rp2438
tp2439
a(F121.63444
F25.0639
I1
g1
(g5
S'\x05\x00\x00\x00'
p2440
tp2441
Rp2442
tp2443
a(F121.52212
F25.01073
I1
g1
(g5
S'\x00\x00\x00\x00'
p2444
tp2445
Rp2446
tp2447
a(F121.47246
F25.01745
I1
g1
(g5
S'\x03\x00\x00\x00'
p2448
tp2449
Rp2450
tp2451
a(F121.41426
F25.02143
I1
g1
(g5
S'\x03\x00\x00\x00'
p2452
tp2453
Rp2454
tp2455
a(F121.92895
F25.05501
I1
g1
(g5
S'\x05\x00\x00\x00'
p2456
tp2457
Rp2458
tp2459
a(F121.47747
F25.02646
I1
g1
(g5
S'\x03\x00\x00\x00'
p2460
tp2461
Rp2462
tp2463
a(F121.49019
F25.06985
I1
g1
(g5
S'\x02\x00\x00\x00'
p2464
tp2465
Rp2466
tp2467
a(F121.52521
F24.99378
I1
g1
(g5
S'\x00\x00\x00\x00'
p2468
tp2469
Rp2470
tp2471
a(F121.4081
F25.09071
I1
g1
(g5
S'\x02\x00\x00\x00'
p2472
tp2473
Rp2474
tp2475
a.