(lp0
(F119.55
F23.5666666667
I117
cnumpy.core.multiarray
scalar
p1
(cnumpy
dtype
p2
(S'i4'
p3
I0
I1
tp4
Rp5
(I3
S'<'
p6
NNNI-1
I-1
I0
tp7
bS'\x00\x00\x00\x00'
p8
tp9
Rp10
tp11
a(F119.67036
F23.58313
I1
g1
(g5
S'\x02\x00\x00\x00'
p12
tp13
Rp14
tp15
a(F119.65295
F23.599
I6
g1
(g5
S'\x02\x00\x00\x00'
p16
tp17
Rp18
tp19
a(F119.4166666667
F23.2
I5
g1
(g5
S'\x01\x00\x00\x00'
p20
tp21
Rp22
tp23
a(F119.67351
F23.57806
I1
g1
(g5
S'\x02\x00\x00\x00'
p24
tp25
Rp26
tp27
a(F119.5
F23.3666666667
I3
g1
(g5
S'\x03\x00\x00\x00'
p28
tp29
Rp30
tp31
a(F119.5972
F23.79586
I1
g1
(g5
S'\x05\x00\x00\x00'
p32
tp33
Rp34
tp35
a(F119.5136711
F23.6054584
I1
g1
(g5
S'\x06\x00\x00\x00'
p36
tp37
Rp38
tp39
a(F119.65
F23.5833333333
I7
g1
(g5
S'\x02\x00\x00\x00'
p40
tp41
Rp42
tp43
a(F119.5833333333
F23.6666666667
I6
g1
(g5
S'\x04\x00\x00\x00'
p44
tp45
Rp46
tp47
a(F119.63355
F23.64522
I1
g1
(g5
S'\x04\x00\x00\x00'
p48
tp49
Rp50
tp51
a.