(lp0
(F120.59928
F22.67342
I1
cnumpy.core.multiarray
scalar
p1
(cnumpy
dtype
p2
(S'i4'
p3
I0
I1
tp4
Rp5
(I3
S'<'
p6
NNNI-1
I-1
I0
tp7
bS'\x06\x00\x00\x00'
p8
tp9
Rp10
tp11
a(F120.49231
F22.59138
I2
g1
(g5
S'\x00\x00\x00\x00'
p12
tp13
Rp14
tp15
a(F120.44217
F22.47347
I1
g1
(g5
S'\x01\x00\x00\x00'
p16
tp17
Rp18
tp19
a(F120.36284
F22.33223
I1
g1
(g5
S'\x01\x00\x00\x00'
p20
tp21
Rp22
tp23
a(F120.59856
F22.38049
I1
g1
(g5
S'\x05\x00\x00\x00'
p24
tp25
Rp26
tp27
a(F120.49796
F22.6617
I1
g1
(g5
S'\x03\x00\x00\x00'
p28
tp29
Rp30
tp31
a(F120.44601
F22.46234
I3
g1
(g5
S'\x01\x00\x00\x00'
p32
tp33
Rp34
tp35
a(F120.49192
F22.66371
I2
g1
(g5
S'\x03\x00\x00\x00'
p36
tp37
Rp38
tp39
a(F120.52436
F22.63433
I1
g1
(g5
S'\x03\x00\x00\x00'
p40
tp41
Rp42
tp43
a(F120.49254
F22.69064
I1
g1
(g5
S'\x03\x00\x00\x00'
p44
tp45
Rp46
tp47
a(F120.47467
F22.68366
I1
g1
(g5
S'\x03\x00\x00\x00'
p48
tp49
Rp50
tp51
a(F120.49638
F22.67136
I13
g1
(g5
S'\x03\x00\x00\x00'
p52
tp53
Rp54
tp55
a(F120.58856
F22.63739
I1
g1
(g5
S'\x00\x00\x00\x00'
p56
tp57
Rp58
tp59
a(F120.52425
F22.83076
I1
g1
(g5
S'\x06\x00\x00\x00'
p60
tp61
Rp62
tp63
a(F120.54257
F22.69175
I1
g1
(g5
S'\x06\x00\x00\x00'
p64
tp65
Rp66
tp67
a(F120.48939
F22.59104
I6
g1
(g5
S'\x00\x00\x00\x00'
p68
tp69
Rp70
tp71
a(F120.48114
F22.61155
I1
g1
(g5
S'\x00\x00\x00\x00'
p72
tp73
Rp74
tp75
a(F120.61312
F22.58874
I1
g1
(g5
S'\x00\x00\x00\x00'
p76
tp77
Rp78
tp79
a(F120.46114
F22.65236
I1
g1
(g5
S'\x03\x00\x00\x00'
p80
tp81
Rp82
tp83
a(F120.50018
F22.68085
I1
g1
(g5
S'\x03\x00\x00\x00'
p84
tp85
Rp86
tp87
a(F120.4906
F22.66526
I2
g1
(g5
S'\x03\x00\x00\x00'
p88
tp89
Rp90
tp91
a(F120.55226
F22.54591
I1
g1
(g5
S'\x00\x00\x00\x00'
p92
tp93
Rp94
tp95
a(F120.5356
F22.69442
I1
g1
(g5
S'\x06\x00\x00\x00'
p96
tp97
Rp98
tp99
a(F121.51923
F24.99678
I1
g1
(g5
S'\x02\x00\x00\x00'
p100
tp101
Rp102
tp103
a(F120.50148
F22.66663
I1
g1
(g5
S'\x03\x00\x00\x00'
p104
tp105
Rp106
tp107
a(F120.50232
F22.68119
I1
g1
(g5
S'\x03\x00\x00\x00'
p108
tp109
Rp110
tp111
a(F120.52142
F22.71593
I1
g1
(g5
S'\x06\x00\x00\x00'
p112
tp113
Rp114
tp115
a(F120.5103
F22.67461
I1
g1
(g5
S'\x03\x00\x00\x00'
p116
tp117
Rp118
tp119
a(F120.45528
F22.46792
I1
g1
(g5
S'\x01\x00\x00\x00'
p120
tp121
Rp122
tp123
a(F120.56295
F22.46711
I1
g1
(g5
S'\x05\x00\x00\x00'
p124
tp125
Rp126
tp127
a(F120.47305
F22.6795
I1
g1
(g5
S'\x03\x00\x00\x00'
p128
tp129
Rp130
tp131
a(F120.47704
F22.67927
I1
g1
(g5
S'\x03\x00\x00\x00'
p132
tp133
Rp134
tp135
a(F120.50886
F22.68282
I2
g1
(g5
S'\x03\x00\x00\x00'
p136
tp137
Rp138
tp139
a(F120.49472
F22.6858
I3
g1
(g5
S'\x03\x00\x00\x00'
p140
tp141
Rp142
tp143
a(F120.59758
F22.35909
I2
g1
(g5
S'\x05\x00\x00\x00'
p144
tp145
Rp146
tp147
a(F120.47107
F22.65643
I3
g1
(g5
S'\x03\x00\x00\x00'
p148
tp149
Rp150
tp151
a(F120.50918
F22.67856
I1
g1
(g5
S'\x03\x00\x00\x00'
p152
tp153
Rp154
tp155
a(F120.62889
F22.6982
I1
g1
(g5
S'\x06\x00\x00\x00'
p156
tp157
Rp158
tp159
a(F120.49605
F22.67977
I1
g1
(g5
S'\x03\x00\x00\x00'
p160
tp161
Rp162
tp163
a(F120.52412
F22.67869
I2
g1
(g5
S'\x03\x00\x00\x00'
p164
tp165
Rp166
tp167
a(F120.48138
F22.65636
I2
g1
(g5
S'\x03\x00\x00\x00'
p168
tp169
Rp170
tp171
a(F120.48177
F22.67956
I2
g1
(g5
S'\x03\x00\x00\x00'
p172
tp173
Rp174
tp175
a(F120.51378
F22.66316
I1
g1
(g5
S'\x03\x00\x00\x00'
p176
tp177
Rp178
tp179
a(F120.47759
F22.6608
I1
g1
(g5
S'\x03\x00\x00\x00'
p180
tp181
Rp182
tp183
a(F120.43991
F22.53626
I1
g1
(g5
S'\x01\x00\x00\x00'
p184
tp185
Rp186
tp187
a(F120.59429
F22.69284
I1
g1
(g5
S'\x06\x00\x00\x00'
p188
tp189
Rp190
tp191
a(F120.4639
F22.59828
I1
g1
(g5
S'\x00\x00\x00\x00'
p192
tp193
Rp194
tp195
a(F120.50206
F22.66878
I2
g1
(g5
S'\x03\x00\x00\x00'
p196
tp197
Rp198
tp199
a(F120.47557
F22.65728
I1
g1
(g5
S'\x03\x00\x00\x00'
p200
tp201
Rp202
tp203
a(F120.50597
F22.65684
I1
g1
(g5
S'\x03\x00\x00\x00'
p204
tp205
Rp206
tp207
a(F120.48552
F22.67005
I5
g1
(g5
S'\x03\x00\x00\x00'
p208
tp209
Rp210
tp211
a(F120.47757
F22.68255
I2
g1
(g5
S'\x03\x00\x00\x00'
p212
tp213
Rp214
tp215
a(F120.46837
F22.54981
I1
g1
(g5
S'\x00\x00\x00\x00'
p216
tp217
Rp218
tp219
a(F120.52304
F22.70615
I1
g1
(g5
S'\x06\x00\x00\x00'
p220
tp221
Rp222
tp223
a(F120.59779
F22.56983
I1
g1
(g5
S'\x00\x00\x00\x00'
p224
tp225
Rp226
tp227
a(F120.54315
F22.54387
I1
g1
(g5
S'\x00\x00\x00\x00'
p228
tp229
Rp230
tp231
a(F120.48987
F22.6768
I2
g1
(g5
S'\x03\x00\x00\x00'
p232
tp233
Rp234
tp235
a(F120.56027
F22.58634
I1
g1
(g5
S'\x00\x00\x00\x00'
p236
tp237
Rp238
tp239
a(F120.51821
F22.61118
I1
g1
(g5
S'\x00\x00\x00\x00'
p240
tp241
Rp242
tp243
a(F120.48895
F22.58903
I10
g1
(g5
S'\x00\x00\x00\x00'
p244
tp245
Rp246
tp247
a(F120.52413
F22.42228
I1
g1
(g5
S'\x01\x00\x00\x00'
p248
tp249
Rp250
tp251
a(F120.48885
F22.66965
I1
g1
(g5
S'\x03\x00\x00\x00'
p252
tp253
Rp254
tp255
a(F120.62954
F22.55118
I1
g1
(g5
S'\x00\x00\x00\x00'
p256
tp257
Rp258
tp259
a(F120.44406
F22.4644
I1
g1
(g5
S'\x01\x00\x00\x00'
p260
tp261
Rp262
tp263
a(F120.48215
F22.66767
I3
g1
(g5
S'\x03\x00\x00\x00'
p264
tp265
Rp266
tp267
a(F120.49684
F22.67421
I1
g1
(g5
S'\x03\x00\x00\x00'
p268
tp269
Rp270
tp271
a(F120.46786
F22.47681
I1
g1
(g5
S'\x01\x00\x00\x00'
p272
tp273
Rp274
tp275
a(F120.50688
F22.67792
I1
g1
(g5
S'\x03\x00\x00\x00'
p276
tp277
Rp278
tp279
a(F120.57074
F22.60921
I2
g1
(g5
S'\x00\x00\x00\x00'
p280
tp281
Rp282
tp283
a(F120.48014
F22.63465
I1
g1
(g5
S'\x03\x00\x00\x00'
p284
tp285
Rp286
tp287
a(F120.49675
F22.6877
I1
g1
(g5
S'\x03\x00\x00\x00'
p288
tp289
Rp290
tp291
a(F120.48215
F22.66581
I6
g1
(g5
S'\x03\x00\x00\x00'
p292
tp293
Rp294
tp295
a(F120.49301
F22.67119
I2
g1
(g5
S'\x03\x00\x00\x00'
p296
tp297
Rp298
tp299
a(F120.59748
F22.36149
I2
g1
(g5
S'\x05\x00\x00\x00'
p300
tp301
Rp302
tp303
a(F120.5181
F22.65398
I3
g1
(g5
S'\x03\x00\x00\x00'
p304
tp305
Rp306
tp307
a(F120.544
F22.54597
I2
g1
(g5
S'\x00\x00\x00\x00'
p308
tp309
Rp310
tp311
a(F120.57661
F22.55098
I2
g1
(g5
S'\x00\x00\x00\x00'
p312
tp313
Rp314
tp315
a(F120.48118
F22.67408
I7
g1
(g5
S'\x03\x00\x00\x00'
p316
tp317
Rp318
tp319
a(F120.48706
F22.6854
I1
g1
(g5
S'\x03\x00\x00\x00'
p320
tp321
Rp322
tp323
a(F120.44946
F22.46254
I1
g1
(g5
S'\x01\x00\x00\x00'
p324
tp325
Rp326
tp327
a(F120.48727
F22.68151
I1
g1
(g5
S'\x03\x00\x00\x00'
p328
tp329
Rp330
tp331
a(F120.54735
F22.49369
I1
g1
(g5
S'\x00\x00\x00\x00'
p332
tp333
Rp334
tp335
a(F120.45482
F22.52897
I1
g1
(g5
S'\x01\x00\x00\x00'
p336
tp337
Rp338
tp339
a(F120.49804
F22.67415
I1
g1
(g5
S'\x03\x00\x00\x00'
p340
tp341
Rp342
tp343
a(F120.47321
F22.66582
I1
g1
(g5
S'\x03\x00\x00\x00'
p344
tp345
Rp346
tp347
a(F120.44575
F22.46709
I2
g1
(g5
S'\x01\x00\x00\x00'
p348
tp349
Rp350
tp351
a(F120.48141
F22.66284
I5
g1
(g5
S'\x03\x00\x00\x00'
p352
tp353
Rp354
tp355
a(F120.48928
F22.58729
I2
g1
(g5
S'\x00\x00\x00\x00'
p356
tp357
Rp358
tp359
a(F120.55475
F22.73809
I1
g1
(g5
S'\x06\x00\x00\x00'
p360
tp361
Rp362
tp363
a(F120.60848
F22.6465
I8
g1
(g5
S'\x06\x00\x00\x00'
p364
tp365
Rp366
tp367
a(F120.48387
F22.67371
I1
g1
(g5
S'\x03\x00\x00\x00'
p368
tp369
Rp370
tp371
a(F120.63333
F22.49107
I1
g1
(g5
S'\x05\x00\x00\x00'
p372
tp373
Rp374
tp375
a(F120.49061
F22.67286
I2
g1
(g5
S'\x03\x00\x00\x00'
p376
tp377
Rp378
tp379
a(F120.47856
F22.67571
I1
g1
(g5
S'\x03\x00\x00\x00'
p380
tp381
Rp382
tp383
a(F120.54384
F22.54141
I1
g1
(g5
S'\x00\x00\x00\x00'
p384
tp385
Rp386
tp387
a(F120.51096
F22.5172
I1
g1
(g5
S'\x00\x00\x00\x00'
p388
tp389
Rp390
tp391
a(F120.51672
F22.43728
I1
g1
(g5
S'\x01\x00\x00\x00'
p392
tp393
Rp394
tp395
a(F120.57519
F22.75235
I1
g1
(g5
S'\x06\x00\x00\x00'
p396
tp397
Rp398
tp399
a(F120.5975
F22.38266
I1
g1
(g5
S'\x05\x00\x00\x00'
p400
tp401
Rp402
tp403
a(F120.45767
F22.46953
I1
g1
(g5
S'\x01\x00\x00\x00'
p404
tp405
Rp406
tp407
a(F120.56238
F22.43512
I1
g1
(g5
S'\x05\x00\x00\x00'
p408
tp409
Rp410
tp411
a(F120.48031
F22.68884
I1
g1
(g5
S'\x03\x00\x00\x00'
p412
tp413
Rp414
tp415
a(F120.47674
F22.50725
I1
g1
(g5
S'\x01\x00\x00\x00'
p416
tp417
Rp418
tp419
a(F120.5675
F22.60406
I1
g1
(g5
S'\x00\x00\x00\x00'
p420
tp421
Rp422
tp423
a(F120.54451
F22.54487
I1
g1
(g5
S'\x00\x00\x00\x00'
p424
tp425
Rp426
tp427
a(F120.56373
F22.6198
I1
g1
(g5
S'\x00\x00\x00\x00'
p428
tp429
Rp430
tp431
a(F120.49942
F22.68479
I1
g1
(g5
S'\x03\x00\x00\x00'
p432
tp433
Rp434
tp435
a(F120.56567
F22.42975
I1
g1
(g5
S'\x05\x00\x00\x00'
p436
tp437
Rp438
tp439
a(F120.49389
F22.67897
I1
g1
(g5
S'\x03\x00\x00\x00'
p440
tp441
Rp442
tp443
a(F120.62963
F22.32236
I1
g1
(g5
S'\x05\x00\x00\x00'
p444
tp445
Rp446
tp447
a(F120.46982
F22.55409
I1
g1
(g5
S'\x00\x00\x00\x00'
p448
tp449
Rp450
tp451
a(F120.49432
F22.66981
I4
g1
(g5
S'\x03\x00\x00\x00'
p452
tp453
Rp454
tp455
a(F120.49344
F22.66495
I1
g1
(g5
S'\x03\x00\x00\x00'
p456
tp457
Rp458
tp459
a(F120.51738
F22.56601
I1
g1
(g5
S'\x00\x00\x00\x00'
p460
tp461
Rp462
tp463
a(F120.48706
F22.67485
I1
g1
(g5
S'\x03\x00\x00\x00'
p464
tp465
Rp466
tp467
a(F120.53885
F22.55856
I2
g1
(g5
S'\x00\x00\x00\x00'
p468
tp469
Rp470
tp471
a(F120.76924
F22.07677
I1
g1
(g5
S'\x04\x00\x00\x00'
p472
tp473
Rp474
tp475
a(F120.44762
F22.52902
I1
g1
(g5
S'\x01\x00\x00\x00'
p476
tp477
Rp478
tp479
a(F120.52233
F22.4393
I1
g1
(g5
S'\x01\x00\x00\x00'
p480
tp481
Rp482
tp483
a(F120.58413
F22.7378
I1
g1
(g5
S'\x06\x00\x00\x00'
p484
tp485
Rp486
tp487
a(F120.49787
F22.67534
I2
g1
(g5
S'\x03\x00\x00\x00'
p488
tp489
Rp490
tp491
a(F120.52286
F22.63651
I1
g1
(g5
S'\x03\x00\x00\x00'
p492
tp493
Rp494
tp495
a(F120.49027
F22.67027
I1
g1
(g5
S'\x03\x00\x00\x00'
p496
tp497
Rp498
tp499
a(F120.51619
F22.4346
I1
g1
(g5
S'\x01\x00\x00\x00'
p500
tp501
Rp502
tp503
a(F120.53924
F22.55681
I2
g1
(g5
S'\x00\x00\x00\x00'
p504
tp505
Rp506
tp507
a(F120.48769
F22.68921
I1
g1
(g5
S'\x03\x00\x00\x00'
p508
tp509
Rp510
tp511
a(F120.45364
F22.46639
I7
g1
(g5
S'\x01\x00\x00\x00'
p512
tp513
Rp514
tp515
a(F120.54614
F22.47848
I1
g1
(g5
S'\x01\x00\x00\x00'
p516
tp517
Rp518
tp519
a(F120.4696
F22.61454
I1
g1
(g5
S'\x00\x00\x00\x00'
p520
tp521
Rp522
tp523
a(F120.50724
F22.703
I1
g1
(g5
S'\x03\x00\x00\x00'
p524
tp525
Rp526
tp527
a(F120.47014
F22.66041
I1
g1
(g5
S'\x03\x00\x00\x00'
p528
tp529
Rp530
tp531
a(F120.56694
F22.548
I1
g1
(g5
S'\x00\x00\x00\x00'
p532
tp533
Rp534
tp535
a(F120.54598
F22.62292
I1
g1
(g5
S'\x00\x00\x00\x00'
p536
tp537
Rp538
tp539
a(F120.46488
F22.48014
I1
g1
(g5
S'\x01\x00\x00\x00'
p540
tp541
Rp542
tp543
a(F120.49147
F22.66524
I1
g1
(g5
S'\x03\x00\x00\x00'
p544
tp545
Rp546
tp547
a(F120.47832
F22.68332
I1
g1
(g5
S'\x03\x00\x00\x00'
p548
tp549
Rp550
tp551
a(F120.59273
F22.36794
I2
g1
(g5
S'\x05\x00\x00\x00'
p552
tp553
Rp554
tp555
a(F120.5181
F22.68055
I1
g1
(g5
S'\x03\x00\x00\x00'
p556
tp557
Rp558
tp559
a(F120.47398
F22.67896
I2
g1
(g5
S'\x03\x00\x00\x00'
p560
tp561
Rp562
tp563
a(F120.47188
F22.58564
I1
g1
(g5
S'\x00\x00\x00\x00'
p564
tp565
Rp566
tp567
a(F120.54475
F22.72704
I2
g1
(g5
S'\x06\x00\x00\x00'
p568
tp569
Rp570
tp571
a(F120.44741
F22.46068
I2
g1
(g5
S'\x01\x00\x00\x00'
p572
tp573
Rp574
tp575
a(F120.57843
F22.40298
I1
g1
(g5
S'\x05\x00\x00\x00'
p576
tp577
Rp578
tp579
a(F120.4905
F22.59172
I2
g1
(g5
S'\x00\x00\x00\x00'
p580
tp581
Rp582
tp583
a(F120.57893
F22.75292
I1
g1
(g5
S'\x06\x00\x00\x00'
p584
tp585
Rp586
tp587
a(F120.45022
F22.46938
I6
g1
(g5
S'\x01\x00\x00\x00'
p588
tp589
Rp590
tp591
a(F120.55797
F22.59902
I3
g1
(g5
S'\x00\x00\x00\x00'
p592
tp593
Rp594
tp595
a(F120.7659
F22.11899
I1
g1
(g5
S'\x04\x00\x00\x00'
p596
tp597
Rp598
tp599
a(F120.48532
F22.65682
I1
g1
(g5
S'\x03\x00\x00\x00'
p600
tp601
Rp602
tp603
a(F120.46172
F22.59888
I1
g1
(g5
S'\x00\x00\x00\x00'
p604
tp605
Rp606
tp607
a(F120.48999
F22.67128
I1
g1
(g5
S'\x03\x00\x00\x00'
p608
tp609
Rp610
tp611
a(F120.55229
F22.89842
I1
g1
(g5
S'\x06\x00\x00\x00'
p612
tp613
Rp614
tp615
a(F120.44576
F22.45827
I1
g1
(g5
S'\x01\x00\x00\x00'
p616
tp617
Rp618
tp619
a(F120.46192
F22.46531
I1
g1
(g5
S'\x01\x00\x00\x00'
p620
tp621
Rp622
tp623
a(F120.4928
F22.67965
I2
g1
(g5
S'\x03\x00\x00\x00'
p624
tp625
Rp626
tp627
a(F120.5054
F22.65487
I1
g1
(g5
S'\x03\x00\x00\x00'
p628
tp629
Rp630
tp631
a(F120.49608
F22.66993
I10
g1
(g5
S'\x03\x00\x00\x00'
p632
tp633
Rp634
tp635
a(F120.66027
F22.25148
I1
g1
(g5
S'\x05\x00\x00\x00'
p636
tp637
Rp638
tp639
a(F120.48936
F22.58523
I1
g1
(g5
S'\x00\x00\x00\x00'
p640
tp641
Rp642
tp643
a(F120.45232
F22.46668
I1
g1
(g5
S'\x01\x00\x00\x00'
p644
tp645
Rp646
tp647
a(F120.5139
F22.55913
I1
g1
(g5
S'\x00\x00\x00\x00'
p648
tp649
Rp650
tp651
a(F120.52769
F22.65513
I1
g1
(g5
S'\x03\x00\x00\x00'
p652
tp653
Rp654
tp655
a(F120.47913
F22.67774
I4
g1
(g5
S'\x03\x00\x00\x00'
p656
tp657
Rp658
tp659
a(F120.49779
F22.67181
I2
g1
(g5
S'\x03\x00\x00\x00'
p660
tp661
Rp662
tp663
a(F120.44848
F22.46257
I2
g1
(g5
S'\x01\x00\x00\x00'
p664
tp665
Rp666
tp667
a(F120.48421
F22.67295
I1
g1
(g5
S'\x03\x00\x00\x00'
p668
tp669
Rp670
tp671
a(F120.58768
F22.66721
I1
g1
(g5
S'\x06\x00\x00\x00'
p672
tp673
Rp674
tp675
a(F120.51879
F22.73478
I1
g1
(g5
S'\x06\x00\x00\x00'
p676
tp677
Rp678
tp679
a(F120.44537
F22.51782
I1
g1
(g5
S'\x01\x00\x00\x00'
p680
tp681
Rp682
tp683
a(F120.71212
F22.07134
I1
g1
(g5
S'\x04\x00\x00\x00'
p684
tp685
Rp686
tp687
a(F120.47579
F22.6567
I1
g1
(g5
S'\x03\x00\x00\x00'
p688
tp689
Rp690
tp691
a(F120.45078
F22.46907
I1
g1
(g5
S'\x01\x00\x00\x00'
p692
tp693
Rp694
tp695
a(F120.48683
F22.67578
I2
g1
(g5
S'\x03\x00\x00\x00'
p696
tp697
Rp698
tp699
a(F120.48848
F22.73642
I1
g1
(g5
S'\x03\x00\x00\x00'
p700
tp701
Rp702
tp703
a(F120.55173
F22.59449
I1
g1
(g5
S'\x00\x00\x00\x00'
p704
tp705
Rp706
tp707
a(F120.53911
F22.54776
I3
g1
(g5
S'\x00\x00\x00\x00'
p708
tp709
Rp710
tp711
a(F120.49779
F22.6808
I8
g1
(g5
S'\x03\x00\x00\x00'
p712
tp713
Rp714
tp715
a(F120.49788
F22.67664
I1
g1
(g5
S'\x03\x00\x00\x00'
p716
tp717
Rp718
tp719
a(F120.45329
F22.46848
I1
g1
(g5
S'\x01\x00\x00\x00'
p720
tp721
Rp722
tp723
a(F120.47596
F22.68181
I1
g1
(g5
S'\x03\x00\x00\x00'
p724
tp725
Rp726
tp727
a(F120.52858
F22.63633
I1
g1
(g5
S'\x03\x00\x00\x00'
p728
tp729
Rp730
tp731
a(F120.50973
F22.67763
I1
g1
(g5
S'\x03\x00\x00\x00'
p732
tp733
Rp734
tp735
a(F120.49685
F22.67816
I2
g1
(g5
S'\x03\x00\x00\x00'
p736
tp737
Rp738
tp739
a(F120.51602
F22.51571
I1
g1
(g5
S'\x00\x00\x00\x00'
p740
tp741
Rp742
tp743
a(F120.48248
F22.67876
I1
g1
(g5
S'\x03\x00\x00\x00'
p744
tp745
Rp746
tp747
a(F120.49525
F22.68515
I11
g1
(g5
S'\x03\x00\x00\x00'
p748
tp749
Rp750
tp751
a(F120.44064
F22.48119
I2
g1
(g5
S'\x01\x00\x00\x00'
p752
tp753
Rp754
tp755
a(F120.49086
F22.68507
I1
g1
(g5
S'\x03\x00\x00\x00'
p756
tp757
Rp758
tp759
a(F120.51145
F22.43232
I1
g1
(g5
S'\x01\x00\x00\x00'
p760
tp761
Rp762
tp763
a(F120.44581
F22.46633
I1
g1
(g5
S'\x01\x00\x00\x00'
p764
tp765
Rp766
tp767
a(F120.46376
F22.66276
I1
g1
(g5
S'\x03\x00\x00\x00'
p768
tp769
Rp770
tp771
a(F120.45673
F22.52464
I1
g1
(g5
S'\x01\x00\x00\x00'
p772
tp773
Rp774
tp775
a(F120.48682
F22.68881
I1
g1
(g5
S'\x03\x00\x00\x00'
p776
tp777
Rp778
tp779
a(F120.4663
F22.6331
I1
g1
(g5
S'\x03\x00\x00\x00'
p780
tp781
Rp782
tp783
a(F120.49287
F22.68276
I1
g1
(g5
S'\x03\x00\x00\x00'
p784
tp785
Rp786
tp787
a(F120.49345
F22.66593
I1
g1
(g5
S'\x03\x00\x00\x00'
p788
tp789
Rp790
tp791
a(F120.52258
F22.66649
I1
g1
(g5
S'\x03\x00\x00\x00'
p792
tp793
Rp794
tp795
a(F120.50865
F22.45771
I1
g1
(g5
S'\x01\x00\x00\x00'
p796
tp797
Rp798
tp799
a(F120.53226
F22.78077
I1
g1
(g5
S'\x06\x00\x00\x00'
p800
tp801
Rp802
tp803
a(F120.47971
F22.65894
I1
g1
(g5
S'\x03\x00\x00\x00'
p804
tp805
Rp806
tp807
a(F120.5085
F22.67919
I1
g1
(g5
S'\x03\x00\x00\x00'
p808
tp809
Rp810
tp811
a(F120.50697
F22.68118
I1
g1
(g5
S'\x03\x00\x00\x00'
p812
tp813
Rp814
tp815
a(F120.45354
F22.50701
I1
g1
(g5
S'\x01\x00\x00\x00'
p816
tp817
Rp818
tp819
a(F120.48604
F22.63704
I1
g1
(g5
S'\x03\x00\x00\x00'
p820
tp821
Rp822
tp823
a(F120.49232
F22.75104
I1
g1
(g5
S'\x06\x00\x00\x00'
p824
tp825
Rp826
tp827
a(F120.50827
F22.49495
I1
g1
(g5
S'\x01\x00\x00\x00'
p828
tp829
Rp830
tp831
a(F120.47428
F22.69631
I1
g1
(g5
S'\x03\x00\x00\x00'
p832
tp833
Rp834
tp835
a(F120.46301
F22.65211
I2
g1
(g5
S'\x03\x00\x00\x00'
p836
tp837
Rp838
tp839
a(F120.47942
F22.67414
I7
g1
(g5
S'\x03\x00\x00\x00'
p840
tp841
Rp842
tp843
a(F120.49386
F22.67092
I13
g1
(g5
S'\x03\x00\x00\x00'
p844
tp845
Rp846
tp847
a(F120.47779
F22.6828
I1
g1
(g5
S'\x03\x00\x00\x00'
p848
tp849
Rp850
tp851
a(F120.60761
F22.67581
I1
g1
(g5
S'\x06\x00\x00\x00'
p852
tp853
Rp854
tp855
a(F120.48788
F22.68391
I3
g1
(g5
S'\x03\x00\x00\x00'
p856
tp857
Rp858
tp859
a(F120.49196
F22.59343
I3
g1
(g5
S'\x00\x00\x00\x00'
p860
tp861
Rp862
tp863
a(F120.48972
F22.69085
I1
g1
(g5
S'\x03\x00\x00\x00'
p864
tp865
Rp866
tp867
a(F120.51528
F22.7877
I1
g1
(g5
S'\x06\x00\x00\x00'
p868
tp869
Rp870
tp871
a(F120.4768
F22.68293
I2
g1
(g5
S'\x03\x00\x00\x00'
p872
tp873
Rp874
tp875
a(F120.48061
F22.66749
I4
g1
(g5
S'\x03\x00\x00\x00'
p876
tp877
Rp878
tp879
a(F120.49573
F22.68444
I3
g1
(g5
S'\x03\x00\x00\x00'
p880
tp881
Rp882
tp883
a(F120.32742
F22.72916
I1
g1
(g5
S'\x03\x00\x00\x00'
p884
tp885
Rp886
tp887
a(F120.74289
F21.97828
I1
g1
(g5
S'\x04\x00\x00\x00'
p888
tp889
Rp890
tp891
a(F120.47656
F22.65843
I1
g1
(g5
S'\x03\x00\x00\x00'
p892
tp893
Rp894
tp895
a(F120.483
F22.667
I4
g1
(g5
S'\x03\x00\x00\x00'
p896
tp897
Rp898
tp899
a(F120.60992
F22.67466
I1
g1
(g5
S'\x06\x00\x00\x00'
p900
tp901
Rp902
tp903
a(F120.43906
F22.47797
I6
g1
(g5
S'\x01\x00\x00\x00'
p904
tp905
Rp906
tp907
a(F120.49261
F22.68668
I1
g1
(g5
S'\x03\x00\x00\x00'
p908
tp909
Rp910
tp911
a(F120.48165
F22.68121
I4
g1
(g5
S'\x03\x00\x00\x00'
p912
tp913
Rp914
tp915
a(F120.5204
F22.41179
I1
g1
(g5
S'\x01\x00\x00\x00'
p916
tp917
Rp918
tp919
a(F120.48384
F22.67883
I3
g1
(g5
S'\x03\x00\x00\x00'
p920
tp921
Rp922
tp923
a(F120.50684
F22.67592
I1
g1
(g5
S'\x03\x00\x00\x00'
p924
tp925
Rp926
tp927
a(F120.60633
F22.71783
I1
g1
(g5
S'\x06\x00\x00\x00'
p928
tp929
Rp930
tp931
a(F120.75292
F21.98505
I1
g1
(g5
S'\x04\x00\x00\x00'
p932
tp933
Rp934
tp935
a(F120.50351
F22.68099
I1
g1
(g5
S'\x03\x00\x00\x00'
p936
tp937
Rp938
tp939
a(F120.45425
F22.47161
I3
g1
(g5
S'\x01\x00\x00\x00'
p940
tp941
Rp942
tp943
a(F120.49815
F22.69147
I1
g1
(g5
S'\x03\x00\x00\x00'
p944
tp945
Rp946
tp947
a(F120.46837
F22.59833
I2
g1
(g5
S'\x00\x00\x00\x00'
p948
tp949
Rp950
tp951
a(F120.59546
F22.6433
I1
g1
(g5
S'\x06\x00\x00\x00'
p952
tp953
Rp954
tp955
a(F120.43928
F22.48052
I1
g1
(g5
S'\x01\x00\x00\x00'
p956
tp957
Rp958
tp959
a(F120.49536
F22.68041
I1
g1
(g5
S'\x03\x00\x00\x00'
p960
tp961
Rp962
tp963
a(F120.44752
F22.46882
I4
g1
(g5
S'\x01\x00\x00\x00'
p964
tp965
Rp966
tp967
a(F120.50717
F22.67902
I2
g1
(g5
S'\x03\x00\x00\x00'
p968
tp969
Rp970
tp971
a(F120.48576
F22.73502
I2
g1
(g5
S'\x03\x00\x00\x00'
p972
tp973
Rp974
tp975
a(F120.49116
F22.66892
I9
g1
(g5
S'\x03\x00\x00\x00'
p976
tp977
Rp978
tp979
a(F120.51343
F22.66162
I1
g1
(g5
S'\x03\x00\x00\x00'
p980
tp981
Rp982
tp983
a(F120.45973
F22.47537
I2
g1
(g5
S'\x01\x00\x00\x00'
p984
tp985
Rp986
tp987
a(F120.47811
F22.68012
I1
g1
(g5
S'\x03\x00\x00\x00'
p988
tp989
Rp990
tp991
a(F120.45823
F22.53387
I1
g1
(g5
S'\x01\x00\x00\x00'
p992
tp993
Rp994
tp995
a(F120.4911
F22.59607
I1
g1
(g5
S'\x00\x00\x00\x00'
p996
tp997
Rp998
tp999
a(F120.49781
F22.77919
I1
g1
(g5
S'\x06\x00\x00\x00'
p1000
tp1001
Rp1002
tp1003
a(F120.62803
F22.42767
I2
g1
(g5
S'\x05\x00\x00\x00'
p1004
tp1005
Rp1006
tp1007
a(F120.60307
F22.69538
I1
g1
(g5
S'\x06\x00\x00\x00'
p1008
tp1009
Rp1010
tp1011
a(F120.63341
F22.52485
I2
g1
(g5
S'\x05\x00\x00\x00'
p1012
tp1013
Rp1014
tp1015
a(F120.48987
F22.59176
I4
g1
(g5
S'\x00\x00\x00\x00'
p1016
tp1017
Rp1018
tp1019
a(F120.46338
F22.56495
I1
g1
(g5
S'\x00\x00\x00\x00'
p1020
tp1021
Rp1022
tp1023
a(F120.6286
F22.58942
I1
g1
(g5
S'\x00\x00\x00\x00'
p1024
tp1025
Rp1026
tp1027
a(F120.45428
F22.46775
I1
g1
(g5
S'\x01\x00\x00\x00'
p1028
tp1029
Rp1030
tp1031
a(F120.53526
F22.55402
I1
g1
(g5
S'\x00\x00\x00\x00'
p1032
tp1033
Rp1034
tp1035
a(F120.4478
F22.46537
I2
g1
(g5
S'\x01\x00\x00\x00'
p1036
tp1037
Rp1038
tp1039
a(F120.50286
F22.45695
I1
g1
(g5
S'\x01\x00\x00\x00'
p1040
tp1041
Rp1042
tp1043
a(F120.48679
F22.6323
I1
g1
(g5
S'\x03\x00\x00\x00'
p1044
tp1045
Rp1046
tp1047
a(F120.53059
F22.60176
I1
g1
(g5
S'\x00\x00\x00\x00'
p1048
tp1049
Rp1050
tp1051
a(F120.59469
F22.58945
I1
g1
(g5
S'\x00\x00\x00\x00'
p1052
tp1053
Rp1054
tp1055
a(F120.4477
F22.46284
I1
g1
(g5
S'\x01\x00\x00\x00'
p1056
tp1057
Rp1058
tp1059
a(F120.50005
F22.66985
I1
g1
(g5
S'\x03\x00\x00\x00'
p1060
tp1061
Rp1062
tp1063
a(F120.48285
F22.68393
I1
g1
(g5
S'\x03\x00\x00\x00'
p1064
tp1065
Rp1066
tp1067
a(F120.51422
F22.70299
I2
g1
(g5
S'\x03\x00\x00\x00'
p1068
tp1069
Rp1070
tp1071
a(F120.48005
F22.67746
I3
g1
(g5
S'\x03\x00\x00\x00'
p1072
tp1073
Rp1074
tp1075
a(F120.50126
F22.66525
I1
g1
(g5
S'\x03\x00\x00\x00'
p1076
tp1077
Rp1078
tp1079
a(F120.36723
F22.34706
I1
g1
(g5
S'\x01\x00\x00\x00'
p1080
tp1081
Rp1082
tp1083
a(F120.48171
F22.63662
I1
g1
(g5
S'\x03\x00\x00\x00'
p1084
tp1085
Rp1086
tp1087
a(F120.48402
F22.65975
I2
g1
(g5
S'\x03\x00\x00\x00'
p1088
tp1089
Rp1090
tp1091
a(F120.48799
F22.66771
I10
g1
(g5
S'\x03\x00\x00\x00'
p1092
tp1093
Rp1094
tp1095
a(F120.48795
F22.58965
I1
g1
(g5
S'\x00\x00\x00\x00'
p1096
tp1097
Rp1098
tp1099
a(F120.51056
F22.68404
I1
g1
(g5
S'\x03\x00\x00\x00'
p1100
tp1101
Rp1102
tp1103
a(F120.48585
F22.67444
I3
g1
(g5
S'\x03\x00\x00\x00'
p1104
tp1105
Rp1106
tp1107
a(F120.58377
F22.50574
I1
g1
(g5
S'\x05\x00\x00\x00'
p1108
tp1109
Rp1110
tp1111
a(F120.49055
F22.68828
I1
g1
(g5
S'\x03\x00\x00\x00'
p1112
tp1113
Rp1114
tp1115
a(F120.60839
F22.67945
I1
g1
(g5
S'\x06\x00\x00\x00'
p1116
tp1117
Rp1118
tp1119
a(F120.49063
F22.58177
I1
g1
(g5
S'\x00\x00\x00\x00'
p1120
tp1121
Rp1122
tp1123
a(F120.45187
F22.66604
I1
g1
(g5
S'\x03\x00\x00\x00'
p1124
tp1125
Rp1126
tp1127
a(F120.48296
F22.65572
I3
g1
(g5
S'\x03\x00\x00\x00'
p1128
tp1129
Rp1130
tp1131
a(F120.56239
F22.60061
I1
g1
(g5
S'\x00\x00\x00\x00'
p1132
tp1133
Rp1134
tp1135
a(F120.48684
F22.57585
I1
g1
(g5
S'\x00\x00\x00\x00'
p1136
tp1137
Rp1138
tp1139
a(F120.49134
F22.51932
I1
g1
(g5
S'\x01\x00\x00\x00'
p1140
tp1141
Rp1142
tp1143
a(F120.51011
F22.69952
I2
g1
(g5
S'\x03\x00\x00\x00'
p1144
tp1145
Rp1146
tp1147
a(F120.45208
F22.46617
I1
g1
(g5
S'\x01\x00\x00\x00'
p1148
tp1149
Rp1150
tp1151
a(F120.733
F22.0
I1
g1
(g5
S'\x04\x00\x00\x00'
p1152
tp1153
Rp1154
tp1155
a(F121.42628
F25.04221
I1
g1
(g5
S'\x02\x00\x00\x00'
p1156
tp1157
Rp1158
tp1159
a(F120.49489
F22.67159
I4
g1
(g5
S'\x03\x00\x00\x00'
p1160
tp1161
Rp1162
tp1163
a(F120.71625
F22.07396
I1
g1
(g5
S'\x04\x00\x00\x00'
p1164
tp1165
Rp1166
tp1167
a(F120.4823
F22.67619
I1
g1
(g5
S'\x03\x00\x00\x00'
p1168
tp1169
Rp1170
tp1171
a(F120.47371
F22.68719
I1
g1
(g5
S'\x03\x00\x00\x00'
p1172
tp1173
Rp1174
tp1175
a(F120.49627
F22.66703
I3
g1
(g5
S'\x03\x00\x00\x00'
p1176
tp1177
Rp1178
tp1179
a(F120.58049
F22.58677
I1
g1
(g5
S'\x00\x00\x00\x00'
p1180
tp1181
Rp1182
tp1183
a(F120.47171
F22.68375
I1
g1
(g5
S'\x03\x00\x00\x00'
p1184
tp1185
Rp1186
tp1187
a(F120.48382
F22.68491
I1
g1
(g5
S'\x03\x00\x00\x00'
p1188
tp1189
Rp1190
tp1191
a(F120.4656
F22.46207
I3
g1
(g5
S'\x01\x00\x00\x00'
p1192
tp1193
Rp1194
tp1195
a(F120.71109
F22.0543
I1
g1
(g5
S'\x04\x00\x00\x00'
p1196
tp1197
Rp1198
tp1199
a(F120.48683
F22.61051
I1
g1
(g5
S'\x00\x00\x00\x00'
p1200
tp1201
Rp1202
tp1203
a(F120.50513
F22.66631
I1
g1
(g5
S'\x03\x00\x00\x00'
p1204
tp1205
Rp1206
tp1207
a(F120.48225
F22.67679
I2
g1
(g5
S'\x03\x00\x00\x00'
p1208
tp1209
Rp1210
tp1211
a(F120.49302
F22.58649
I2
g1
(g5
S'\x00\x00\x00\x00'
p1212
tp1213
Rp1214
tp1215
a(F120.48352
F22.66304
I6
g1
(g5
S'\x03\x00\x00\x00'
p1216
tp1217
Rp1218
tp1219
a(F120.48473
F22.66306
I1
g1
(g5
S'\x03\x00\x00\x00'
p1220
tp1221
Rp1222
tp1223
a(F120.56668
F22.61725
I1
g1
(g5
S'\x00\x00\x00\x00'
p1224
tp1225
Rp1226
tp1227
a(F120.46229
F22.62319
I2
g1
(g5
S'\x03\x00\x00\x00'
p1228
tp1229
Rp1230
tp1231
a(F120.52716
F22.67643
I1
g1
(g5
S'\x03\x00\x00\x00'
p1232
tp1233
Rp1234
tp1235
a(F120.74898
F22.00328
I1
g1
(g5
S'\x04\x00\x00\x00'
p1236
tp1237
Rp1238
tp1239
a(F120.46637
F22.61925
I1
g1
(g5
S'\x03\x00\x00\x00'
p1240
tp1241
Rp1242
tp1243
a(F120.47049
F22.48778
I3
g1
(g5
S'\x01\x00\x00\x00'
p1244
tp1245
Rp1246
tp1247
a(F120.56261
F22.78721
I1
g1
(g5
S'\x06\x00\x00\x00'
p1248
tp1249
Rp1250
tp1251
a(F120.49669
F22.69184
I3
g1
(g5
S'\x03\x00\x00\x00'
p1252
tp1253
Rp1254
tp1255
a(F120.49268
F22.67323
I3
g1
(g5
S'\x03\x00\x00\x00'
p1256
tp1257
Rp1258
tp1259
a(F120.43951
F22.47972
I2
g1
(g5
S'\x01\x00\x00\x00'
p1260
tp1261
Rp1262
tp1263
a(F120.49311
F22.48921
I1
g1
(g5
S'\x01\x00\x00\x00'
p1264
tp1265
Rp1266
tp1267
a(F120.82371
F21.9361
I1
g1
(g5
S'\x04\x00\x00\x00'
p1268
tp1269
Rp1270
tp1271
a(F120.5486
F22.63801
I1
g1
(g5
S'\x00\x00\x00\x00'
p1272
tp1273
Rp1274
tp1275
a(F120.48368
F22.68833
I2
g1
(g5
S'\x03\x00\x00\x00'
p1276
tp1277
Rp1278
tp1279
a(F120.46242
F22.64257
I1
g1
(g5
S'\x03\x00\x00\x00'
p1280
tp1281
Rp1282
tp1283
a(F120.48187
F22.67125
I4
g1
(g5
S'\x03\x00\x00\x00'
p1284
tp1285
Rp1286
tp1287
a(F120.53697
F22.46441
I1
g1
(g5
S'\x01\x00\x00\x00'
p1288
tp1289
Rp1290
tp1291
a(F120.4511
F22.46694
I8
g1
(g5
S'\x01\x00\x00\x00'
p1292
tp1293
Rp1294
tp1295
a(F120.492
F22.67715
I8
g1
(g5
S'\x03\x00\x00\x00'
p1296
tp1297
Rp1298
tp1299
a(F120.64775
F22.43423
I1
g1
(g5
S'\x05\x00\x00\x00'
p1300
tp1301
Rp1302
tp1303
a(F120.49713
F22.46381
I1
g1
(g5
S'\x01\x00\x00\x00'
p1304
tp1305
Rp1306
tp1307
a(F120.45993
F22.47285
I1
g1
(g5
S'\x01\x00\x00\x00'
p1308
tp1309
Rp1310
tp1311
a(F120.47997
F22.67505
I3
g1
(g5
S'\x03\x00\x00\x00'
p1312
tp1313
Rp1314
tp1315
a(F120.46627
F22.46544
I1
g1
(g5
S'\x01\x00\x00\x00'
p1316
tp1317
Rp1318
tp1319
a(F120.48607
F22.77242
I1
g1
(g5
S'\x06\x00\x00\x00'
p1320
tp1321
Rp1322
tp1323
a(F120.47753
F22.65819
I4
g1
(g5
S'\x03\x00\x00\x00'
p1324
tp1325
Rp1326
tp1327
a(F120.45027
F22.45974
I1
g1
(g5
S'\x01\x00\x00\x00'
p1328
tp1329
Rp1330
tp1331
a(F120.57905
F22.75848
I1
g1
(g5
S'\x06\x00\x00\x00'
p1332
tp1333
Rp1334
tp1335
a(F120.51185
F22.65724
I1
g1
(g5
S'\x03\x00\x00\x00'
p1336
tp1337
Rp1338
tp1339
a(F120.58075
F22.50835
I1
g1
(g5
S'\x05\x00\x00\x00'
p1340
tp1341
Rp1342
tp1343
a(F120.48501
F22.68102
I1
g1
(g5
S'\x03\x00\x00\x00'
p1344
tp1345
Rp1346
tp1347
a(F120.49841
F22.66765
I2
g1
(g5
S'\x03\x00\x00\x00'
p1348
tp1349
Rp1350
tp1351
a(F120.48628
F22.64565
I2
g1
(g5
S'\x03\x00\x00\x00'
p1352
tp1353
Rp1354
tp1355
a(F120.43864
F22.47686
I2
g1
(g5
S'\x01\x00\x00\x00'
p1356
tp1357
Rp1358
tp1359
a(F120.48374
F22.72975
I1
g1
(g5
S'\x03\x00\x00\x00'
p1360
tp1361
Rp1362
tp1363
a(F120.46218
F22.58688
I1
g1
(g5
S'\x00\x00\x00\x00'
p1364
tp1365
Rp1366
tp1367
a(F120.47679
F22.67673
I3
g1
(g5
S'\x03\x00\x00\x00'
p1368
tp1369
Rp1370
tp1371
a(F121.54808
F25.03832
I1
g1
(g5
S'\x02\x00\x00\x00'
p1372
tp1373
Rp1374
tp1375
a(F120.48153
F22.67584
I2
g1
(g5
S'\x03\x00\x00\x00'
p1376
tp1377
Rp1378
tp1379
a(F120.48659
F22.58566
I1
g1
(g5
S'\x00\x00\x00\x00'
p1380
tp1381
Rp1382
tp1383
a(F120.56838
F22.46795
I1
g1
(g5
S'\x05\x00\x00\x00'
p1384
tp1385
Rp1386
tp1387
a(F120.72678
F22.03976
I1
g1
(g5
S'\x04\x00\x00\x00'
p1388
tp1389
Rp1390
tp1391
a(F120.48046
F22.68233
I3
g1
(g5
S'\x03\x00\x00\x00'
p1392
tp1393
Rp1394
tp1395
a(F120.46024
F22.48804
I1
g1
(g5
S'\x01\x00\x00\x00'
p1396
tp1397
Rp1398
tp1399
a(F120.48319
F22.56587
I1
g1
(g5
S'\x00\x00\x00\x00'
p1400
tp1401
Rp1402
tp1403
a(F120.51889
F22.41319
I1
g1
(g5
S'\x01\x00\x00\x00'
p1404
tp1405
Rp1406
tp1407
a(F120.47905
F22.6803
I9
g1
(g5
S'\x03\x00\x00\x00'
p1408
tp1409
Rp1410
tp1411
a(F120.4802
F22.65465
I2
g1
(g5
S'\x03\x00\x00\x00'
p1412
tp1413
Rp1414
tp1415
a(F120.49706
F22.66837
I4
g1
(g5
S'\x03\x00\x00\x00'
p1416
tp1417
Rp1418
tp1419
a(F120.49894
F22.68647
I1
g1
(g5
S'\x03\x00\x00\x00'
p1420
tp1421
Rp1422
tp1423
a(F120.48223
F22.66825
I3
g1
(g5
S'\x03\x00\x00\x00'
p1424
tp1425
Rp1426
tp1427
a(F120.48524
F22.6509
I1
g1
(g5
S'\x03\x00\x00\x00'
p1428
tp1429
Rp1430
tp1431
a(F120.48675
F22.65521
I2
g1
(g5
S'\x03\x00\x00\x00'
p1432
tp1433
Rp1434
tp1435
a(F120.48232
F22.66883
I1
g1
(g5
S'\x03\x00\x00\x00'
p1436
tp1437
Rp1438
tp1439
a(F120.51495
F22.6611
I3
g1
(g5
S'\x03\x00\x00\x00'
p1440
tp1441
Rp1442
tp1443
a(F120.46068
F22.46144
I1
g1
(g5
S'\x01\x00\x00\x00'
p1444
tp1445
Rp1446
tp1447
a(F120.48213
F22.67413
I11
g1
(g5
S'\x03\x00\x00\x00'
p1448
tp1449
Rp1450
tp1451
a(F120.49874
F22.7845
I1
g1
(g5
S'\x06\x00\x00\x00'
p1452
tp1453
Rp1454
tp1455
a(F120.49911
F22.67276
I1
g1
(g5
S'\x03\x00\x00\x00'
p1456
tp1457
Rp1458
tp1459
a(F120.5603
F22.41035
I1
g1
(g5
S'\x05\x00\x00\x00'
p1460
tp1461
Rp1462
tp1463
a(F120.52008
F22.68466
I1
g1
(g5
S'\x03\x00\x00\x00'
p1464
tp1465
Rp1466
tp1467
a(F120.48931
F22.43139
I1
g1
(g5
S'\x01\x00\x00\x00'
p1468
tp1469
Rp1470
tp1471
a(F120.5177
F22.48885
I1
g1
(g5
S'\x01\x00\x00\x00'
p1472
tp1473
Rp1474
tp1475
a(F120.54105
F22.74336
I1
g1
(g5
S'\x06\x00\x00\x00'
p1476
tp1477
Rp1478
tp1479
a(F120.47564
F22.65541
I5
g1
(g5
S'\x03\x00\x00\x00'
p1480
tp1481
Rp1482
tp1483
a(F120.71472
F22.19396
I1
g1
(g5
S'\x04\x00\x00\x00'
p1484
tp1485
Rp1486
tp1487
a(F120.47455
F22.65193
I1
g1
(g5
S'\x03\x00\x00\x00'
p1488
tp1489
Rp1490
tp1491
a(F120.48072
F22.67946
I4
g1
(g5
S'\x03\x00\x00\x00'
p1492
tp1493
Rp1494
tp1495
a(F120.4765
F22.65494
I2
g1
(g5
S'\x03\x00\x00\x00'
p1496
tp1497
Rp1498
tp1499
a(F120.47519
F22.66264
I1
g1
(g5
S'\x03\x00\x00\x00'
p1500
tp1501
Rp1502
tp1503
a(F120.50907
F22.49638
I1
g1
(g5
S'\x01\x00\x00\x00'
p1504
tp1505
Rp1506
tp1507
a(F120.50943
F22.49258
I1
g1
(g5
S'\x01\x00\x00\x00'
p1508
tp1509
Rp1510
tp1511
a(F120.51212
F22.43086
I1
g1
(g5
S'\x01\x00\x00\x00'
p1512
tp1513
Rp1514
tp1515
a(F120.47962
F22.68451
I1
g1
(g5
S'\x03\x00\x00\x00'
p1516
tp1517
Rp1518
tp1519
a(F120.49471
F22.6662
I1
g1
(g5
S'\x03\x00\x00\x00'
p1520
tp1521
Rp1522
tp1523
a(F120.47439
F22.68235
I2
g1
(g5
S'\x03\x00\x00\x00'
p1524
tp1525
Rp1526
tp1527
a(F120.47844
F22.67686
I5
g1
(g5
S'\x03\x00\x00\x00'
p1528
tp1529
Rp1530
tp1531
a(F120.53942
F22.55377
I1
g1
(g5
S'\x00\x00\x00\x00'
p1532
tp1533
Rp1534
tp1535
a(F120.47514
F22.65811
I1
g1
(g5
S'\x03\x00\x00\x00'
p1536
tp1537
Rp1538
tp1539
a(F120.74701
F22.00367
I2
g1
(g5
S'\x04\x00\x00\x00'
p1540
tp1541
Rp1542
tp1543
a(F120.50688
F22.53489
I1
g1
(g5
S'\x00\x00\x00\x00'
p1544
tp1545
Rp1546
tp1547
a(F120.47164
F22.62286
I1
g1
(g5
S'\x03\x00\x00\x00'
p1548
tp1549
Rp1550
tp1551
a(F120.50021
F22.66323
I2
g1
(g5
S'\x03\x00\x00\x00'
p1552
tp1553
Rp1554
tp1555
a(F120.50401
F22.67593
I1
g1
(g5
S'\x03\x00\x00\x00'
p1556
tp1557
Rp1558
tp1559
a(F120.48073
F22.67783
I3
g1
(g5
S'\x03\x00\x00\x00'
p1560
tp1561
Rp1562
tp1563
a(F120.43876
F22.47517
I2
g1
(g5
S'\x01\x00\x00\x00'
p1564
tp1565
Rp1566
tp1567
a(F120.45
F22.533
I1
g1
(g5
S'\x01\x00\x00\x00'
p1568
tp1569
Rp1570
tp1571
a(F120.55701
F22.74266
I1
g1
(g5
S'\x06\x00\x00\x00'
p1572
tp1573
Rp1574
tp1575
a(F120.4816
F22.66046
I2
g1
(g5
S'\x03\x00\x00\x00'
p1576
tp1577
Rp1578
tp1579
a(F120.48274
F22.66191
I4
g1
(g5
S'\x03\x00\x00\x00'
p1580
tp1581
Rp1582
tp1583
a(F120.57646
F22.50393
I1
g1
(g5
S'\x05\x00\x00\x00'
p1584
tp1585
Rp1586
tp1587
a(F120.48985
F22.68541
I1
g1
(g5
S'\x03\x00\x00\x00'
p1588
tp1589
Rp1590
tp1591
a(F120.47545
F22.65874
I1
g1
(g5
S'\x03\x00\x00\x00'
p1592
tp1593
Rp1594
tp1595
a(F120.47817
F22.67766
I3
g1
(g5
S'\x03\x00\x00\x00'
p1596
tp1597
Rp1598
tp1599
a(F120.4804
F22.66993
I4
g1
(g5
S'\x03\x00\x00\x00'
p1600
tp1601
Rp1602
tp1603
a(F120.48216
F22.67795
I3
g1
(g5
S'\x03\x00\x00\x00'
p1604
tp1605
Rp1606
tp1607
a(F120.48245
F22.68801
I1
g1
(g5
S'\x03\x00\x00\x00'
p1608
tp1609
Rp1610
tp1611
a(F120.50107
F22.64277
I1
g1
(g5
S'\x03\x00\x00\x00'
p1612
tp1613
Rp1614
tp1615
a(F120.48277
F22.68493
I2
g1
(g5
S'\x03\x00\x00\x00'
p1616
tp1617
Rp1618
tp1619
a(F120.47814
F22.68071
I1
g1
(g5
S'\x03\x00\x00\x00'
p1620
tp1621
Rp1622
tp1623
a(F120.52776
F22.65396
I1
g1
(g5
S'\x03\x00\x00\x00'
p1624
tp1625
Rp1626
tp1627
a(F120.45215
F22.49481
I1
g1
(g5
S'\x01\x00\x00\x00'
p1628
tp1629
Rp1630
tp1631
a(F120.52703
F22.69099
I1
g1
(g5
S'\x03\x00\x00\x00'
p1632
tp1633
Rp1634
tp1635
a(F120.60029
F22.57083
I1
g1
(g5
S'\x00\x00\x00\x00'
p1636
tp1637
Rp1638
tp1639
a(F120.45961
F22.53648
I1
g1
(g5
S'\x01\x00\x00\x00'
p1640
tp1641
Rp1642
tp1643
a(F120.50644
F22.68042
I1
g1
(g5
S'\x03\x00\x00\x00'
p1644
tp1645
Rp1646
tp1647
a(F120.45887
F22.47264
I2
g1
(g5
S'\x01\x00\x00\x00'
p1648
tp1649
Rp1650
tp1651
a(F120.5222
F22.67966
I1
g1
(g5
S'\x03\x00\x00\x00'
p1652
tp1653
Rp1654
tp1655
a(F120.47894
F22.68119
I3
g1
(g5
S'\x03\x00\x00\x00'
p1656
tp1657
Rp1658
tp1659
a(F120.53983
F22.55279
I3
g1
(g5
S'\x00\x00\x00\x00'
p1660
tp1661
Rp1662
tp1663
a(F120.48004
F22.6855
I1
g1
(g5
S'\x03\x00\x00\x00'
p1664
tp1665
Rp1666
tp1667
a(F120.49042
F22.59276
I6
g1
(g5
S'\x00\x00\x00\x00'
p1668
tp1669
Rp1670
tp1671
a(F120.45701
F22.47116
I1
g1
(g5
S'\x01\x00\x00\x00'
p1672
tp1673
Rp1674
tp1675
a(F120.53221
F22.73691
I1
g1
(g5
S'\x06\x00\x00\x00'
p1676
tp1677
Rp1678
tp1679
a(F120.46326
F22.4626
I1
g1
(g5
S'\x01\x00\x00\x00'
p1680
tp1681
Rp1682
tp1683
a(F120.49066
F22.69013
I1
g1
(g5
S'\x03\x00\x00\x00'
p1684
tp1685
Rp1686
tp1687
a(F120.54488
F22.54403
I1
g1
(g5
S'\x00\x00\x00\x00'
p1688
tp1689
Rp1690
tp1691
a(F120.49922
F22.6672
I1
g1
(g5
S'\x03\x00\x00\x00'
p1692
tp1693
Rp1694
tp1695
a(F120.47328
F22.66931
I1
g1
(g5
S'\x03\x00\x00\x00'
p1696
tp1697
Rp1698
tp1699
a(F120.47785
F22.66254
I6
g1
(g5
S'\x03\x00\x00\x00'
p1700
tp1701
Rp1702
tp1703
a(F120.53364
F22.71817
I1
g1
(g5
S'\x06\x00\x00\x00'
p1704
tp1705
Rp1706
tp1707
a(F120.52682
F22.53618
I1
g1
(g5
S'\x00\x00\x00\x00'
p1708
tp1709
Rp1710
tp1711
a(F120.50552
F22.67171
I1
g1
(g5
S'\x03\x00\x00\x00'
p1712
tp1713
Rp1714
tp1715
a(F120.47344
F22.68486
I2
g1
(g5
S'\x03\x00\x00\x00'
p1716
tp1717
Rp1718
tp1719
a(F120.48804
F22.66988
I1
g1
(g5
S'\x03\x00\x00\x00'
p1720
tp1721
Rp1722
tp1723
a(F120.51759
F22.70789
I1
g1
(g5
S'\x06\x00\x00\x00'
p1724
tp1725
Rp1726
tp1727
a(F120.49344
F22.77931
I1
g1
(g5
S'\x06\x00\x00\x00'
p1728
tp1729
Rp1730
tp1731
a(F120.49379
F22.68248
I1
g1
(g5
S'\x03\x00\x00\x00'
p1732
tp1733
Rp1734
tp1735
a(F120.54647
F22.70336
I1
g1
(g5
S'\x06\x00\x00\x00'
p1736
tp1737
Rp1738
tp1739
a(F120.48019
F22.66056
I1
g1
(g5
S'\x03\x00\x00\x00'
p1740
tp1741
Rp1742
tp1743
a(F120.49763
F22.68537
I1
g1
(g5
S'\x03\x00\x00\x00'
p1744
tp1745
Rp1746
tp1747
a(F120.483
F22.783
I1
g1
(g5
S'\x06\x00\x00\x00'
p1748
tp1749
Rp1750
tp1751
a(F120.80018
F22.01849
I1
g1
(g5
S'\x04\x00\x00\x00'
p1752
tp1753
Rp1754
tp1755
a(F120.45862
F22.51312
I1
g1
(g5
S'\x01\x00\x00\x00'
p1756
tp1757
Rp1758
tp1759
a(F120.45872
F22.46269
I1
g1
(g5
S'\x01\x00\x00\x00'
p1760
tp1761
Rp1762
tp1763
a(F120.48075
F22.66843
I3
g1
(g5
S'\x03\x00\x00\x00'
p1764
tp1765
Rp1766
tp1767
a(F120.60001
F22.36341
I1
g1
(g5
S'\x05\x00\x00\x00'
p1768
tp1769
Rp1770
tp1771
a(F120.52156
F22.48418
I2
g1
(g5
S'\x01\x00\x00\x00'
p1772
tp1773
Rp1774
tp1775
a(F120.49521
F22.69058
I1
g1
(g5
S'\x03\x00\x00\x00'
p1776
tp1777
Rp1778
tp1779
a(F120.49154
F22.588
I1
g1
(g5
S'\x00\x00\x00\x00'
p1780
tp1781
Rp1782
tp1783
a(F120.47153
F22.66377
I2
g1
(g5
S'\x03\x00\x00\x00'
p1784
tp1785
Rp1786
tp1787
a(F120.54057
F22.54991
I2
g1
(g5
S'\x00\x00\x00\x00'
p1788
tp1789
Rp1790
tp1791
a(F120.57913
F22.74244
I2
g1
(g5
S'\x06\x00\x00\x00'
p1792
tp1793
Rp1794
tp1795
a(F120.46251
F22.46593
I1
g1
(g5
S'\x01\x00\x00\x00'
p1796
tp1797
Rp1798
tp1799
a(F120.50818
F22.63737
I1
g1
(g5
S'\x03\x00\x00\x00'
p1800
tp1801
Rp1802
tp1803
a(F120.49264
F22.5961
I1
g1
(g5
S'\x00\x00\x00\x00'
p1804
tp1805
Rp1806
tp1807
a(F120.45832
F22.66602
I1
g1
(g5
S'\x03\x00\x00\x00'
p1808
tp1809
Rp1810
tp1811
a(F120.44815
F22.4649
I1
g1
(g5
S'\x01\x00\x00\x00'
p1812
tp1813
Rp1814
tp1815
a(F120.49294
F22.66313
I1
g1
(g5
S'\x03\x00\x00\x00'
p1816
tp1817
Rp1818
tp1819
a(F120.47954
F22.65525
I3
g1
(g5
S'\x03\x00\x00\x00'
p1820
tp1821
Rp1822
tp1823
a(F120.48043
F22.6803
I2
g1
(g5
S'\x03\x00\x00\x00'
p1824
tp1825
Rp1826
tp1827
a(F120.48717
F22.66384
I3
g1
(g5
S'\x03\x00\x00\x00'
p1828
tp1829
Rp1830
tp1831
a(F120.54953
F22.55329
I1
g1
(g5
S'\x00\x00\x00\x00'
p1832
tp1833
Rp1834
tp1835
a(F120.47159
F22.67083
I1
g1
(g5
S'\x03\x00\x00\x00'
p1836
tp1837
Rp1838
tp1839
a(F120.48467
F22.6723
I1
g1
(g5
S'\x03\x00\x00\x00'
p1840
tp1841
Rp1842
tp1843
a(F120.44145
F22.47691
I3
g1
(g5
S'\x01\x00\x00\x00'
p1844
tp1845
Rp1846
tp1847
a(F120.48141
F22.7727
I1
g1
(g5
S'\x06\x00\x00\x00'
p1848
tp1849
Rp1850
tp1851
a(F120.60079
F22.60847
I1
g1
(g5
S'\x00\x00\x00\x00'
p1852
tp1853
Rp1854
tp1855
a(F120.4974
F22.77838
I1
g1
(g5
S'\x06\x00\x00\x00'
p1856
tp1857
Rp1858
tp1859
a(F120.52437
F22.47496
I1
g1
(g5
S'\x01\x00\x00\x00'
p1860
tp1861
Rp1862
tp1863
a(F120.55503
F22.73595
I1
g1
(g5
S'\x06\x00\x00\x00'
p1864
tp1865
Rp1866
tp1867
a(F120.47443
F22.6802
I3
g1
(g5
S'\x03\x00\x00\x00'
p1868
tp1869
Rp1870
tp1871
a(F120.50282
F22.66414
I1
g1
(g5
S'\x03\x00\x00\x00'
p1872
tp1873
Rp1874
tp1875
a(F120.44986
F22.46524
I5
g1
(g5
S'\x01\x00\x00\x00'
p1876
tp1877
Rp1878
tp1879
a(F120.60798
F22.47511
I1
g1
(g5
S'\x05\x00\x00\x00'
p1880
tp1881
Rp1882
tp1883
a(F120.47941
F22.68186
I3
g1
(g5
S'\x03\x00\x00\x00'
p1884
tp1885
Rp1886
tp1887
a(F120.49719
F22.68953
I3
g1
(g5
S'\x03\x00\x00\x00'
p1888
tp1889
Rp1890
tp1891
a(F120.56265
F22.476
I1
g1
(g5
S'\x05\x00\x00\x00'
p1892
tp1893
Rp1894
tp1895
a(F120.58235
F22.73889
I1
g1
(g5
S'\x06\x00\x00\x00'
p1896
tp1897
Rp1898
tp1899
a(F120.4447
F22.45956
I2
g1
(g5
S'\x01\x00\x00\x00'
p1900
tp1901
Rp1902
tp1903
a(F120.4836
F22.67535
I3
g1
(g5
S'\x03\x00\x00\x00'
p1904
tp1905
Rp1906
tp1907
a(F120.47426
F22.65621
I2
g1
(g5
S'\x03\x00\x00\x00'
p1908
tp1909
Rp1910
tp1911
a(F120.48325
F22.64596
I1
g1
(g5
S'\x03\x00\x00\x00'
p1912
tp1913
Rp1914
tp1915
a(F120.52255
F22.67237
I2
g1
(g5
S'\x03\x00\x00\x00'
p1916
tp1917
Rp1918
tp1919
a(F120.4878
F22.66917
I1
g1
(g5
S'\x03\x00\x00\x00'
p1920
tp1921
Rp1922
tp1923
a(F120.50856
F22.49047
I1
g1
(g5
S'\x01\x00\x00\x00'
p1924
tp1925
Rp1926
tp1927
a(F120.4615
F22.5995
I1
g1
(g5
S'\x00\x00\x00\x00'
p1928
tp1929
Rp1930
tp1931
a(F120.46087
F22.59815
I1
g1
(g5
S'\x00\x00\x00\x00'
p1932
tp1933
Rp1934
tp1935
a(F120.46453
F22.65361
I1
g1
(g5
S'\x03\x00\x00\x00'
p1936
tp1937
Rp1938
tp1939
a(F120.52179
F22.41106
I1
g1
(g5
S'\x01\x00\x00\x00'
p1940
tp1941
Rp1942
tp1943
a(F120.3448
F22.63943
I1
g1
(g5
S'\x03\x00\x00\x00'
p1944
tp1945
Rp1946
tp1947
a(F120.54636
F22.63899
I2
g1
(g5
S'\x00\x00\x00\x00'
p1948
tp1949
Rp1950
tp1951
a(F120.48058
F22.66554
I5
g1
(g5
S'\x03\x00\x00\x00'
p1952
tp1953
Rp1954
tp1955
a(F120.46111
F22.67547
I8
g1
(g5
S'\x03\x00\x00\x00'
p1956
tp1957
Rp1958
tp1959
a(F120.54143
F22.55492
I3
g1
(g5
S'\x00\x00\x00\x00'
p1960
tp1961
Rp1962
tp1963
a(F120.47275
F22.65988
I1
g1
(g5
S'\x03\x00\x00\x00'
p1964
tp1965
Rp1966
tp1967
a(F120.5052
F22.67963
I2
g1
(g5
S'\x03\x00\x00\x00'
p1968
tp1969
Rp1970
tp1971
a(F120.45727
F22.46733
I1
g1
(g5
S'\x01\x00\x00\x00'
p1972
tp1973
Rp1974
tp1975
a(F120.74949
F22.00437
I2
g1
(g5
S'\x04\x00\x00\x00'
p1976
tp1977
Rp1978
tp1979
a(F120.4729
F22.6848
I1
g1
(g5
S'\x03\x00\x00\x00'
p1980
tp1981
Rp1982
tp1983
a(F120.56125
F22.42657
I1
g1
(g5
S'\x05\x00\x00\x00'
p1984
tp1985
Rp1986
tp1987
a(F120.62749
F22.4307
I3
g1
(g5
S'\x05\x00\x00\x00'
p1988
tp1989
Rp1990
tp1991
a(F120.61904
F22.83478
I1
g1
(g5
S'\x06\x00\x00\x00'
p1992
tp1993
Rp1994
tp1995
a(F120.47855
F22.68469
I5
g1
(g5
S'\x03\x00\x00\x00'
p1996
tp1997
Rp1998
tp1999
a(F120.53989
F22.54526
I1
g1
(g5
S'\x00\x00\x00\x00'
p2000
tp2001
Rp2002
tp2003
a(F120.47385
F22.66944
I1
g1
(g5
S'\x03\x00\x00\x00'
p2004
tp2005
Rp2006
tp2007
a(F120.63089
F22.42854
I1
g1
(g5
S'\x05\x00\x00\x00'
p2008
tp2009
Rp2010
tp2011
a(F120.54173
F22.55091
I2
g1
(g5
S'\x00\x00\x00\x00'
p2012
tp2013
Rp2014
tp2015
a(F120.54562
F22.68342
I1
g1
(g5
S'\x06\x00\x00\x00'
p2016
tp2017
Rp2018
tp2019
a(F120.47996
F22.68994
I1
g1
(g5
S'\x03\x00\x00\x00'
p2020
tp2021
Rp2022
tp2023
a(F120.46024
F22.52423
I1
g1
(g5
S'\x01\x00\x00\x00'
p2024
tp2025
Rp2026
tp2027
a(F120.48132
F22.66628
I1
g1
(g5
S'\x03\x00\x00\x00'
p2028
tp2029
Rp2030
tp2031
a(F120.47279
F22.59439
I1
g1
(g5
S'\x00\x00\x00\x00'
p2032
tp2033
Rp2034
tp2035
a(F120.76424
F21.96068
I1
g1
(g5
S'\x04\x00\x00\x00'
p2036
tp2037
Rp2038
tp2039
a(F120.45026
F22.46827
I2
g1
(g5
S'\x01\x00\x00\x00'
p2040
tp2041
Rp2042
tp2043
a(F120.47765
F22.65541
I1
g1
(g5
S'\x03\x00\x00\x00'
p2044
tp2045
Rp2046
tp2047
a(F120.49956
F22.68413
I1
g1
(g5
S'\x03\x00\x00\x00'
p2048
tp2049
Rp2050
tp2051
a(F120.6256
F22.69268
I1
g1
(g5
S'\x06\x00\x00\x00'
p2052
tp2053
Rp2054
tp2055
a(F120.48941
F22.58646
I1
g1
(g5
S'\x00\x00\x00\x00'
p2056
tp2057
Rp2058
tp2059
a(F120.44708
F22.47878
I1
g1
(g5
S'\x01\x00\x00\x00'
p2060
tp2061
Rp2062
tp2063
a(F120.48233
F22.66437
I2
g1
(g5
S'\x03\x00\x00\x00'
p2064
tp2065
Rp2066
tp2067
a(F120.49522
F22.68896
I2
g1
(g5
S'\x03\x00\x00\x00'
p2068
tp2069
Rp2070
tp2071
a(F120.59472
F22.43379
I1
g1
(g5
S'\x05\x00\x00\x00'
p2072
tp2073
Rp2074
tp2075
a(F120.49805
F22.67262
I2
g1
(g5
S'\x03\x00\x00\x00'
p2076
tp2077
Rp2078
tp2079
a(F120.4468
F22.46568
I1
g1
(g5
S'\x01\x00\x00\x00'
p2080
tp2081
Rp2082
tp2083
a(F120.49897
F22.7349
I1
g1
(g5
S'\x06\x00\x00\x00'
p2084
tp2085
Rp2086
tp2087
a(F120.49671
F22.68563
I1
g1
(g5
S'\x03\x00\x00\x00'
p2088
tp2089
Rp2090
tp2091
a(F120.49442
F22.68451
I1
g1
(g5
S'\x03\x00\x00\x00'
p2092
tp2093
Rp2094
tp2095
a(F120.51289
F22.59359
I1
g1
(g5
S'\x00\x00\x00\x00'
p2096
tp2097
Rp2098
tp2099
a(F120.51265
F22.53247
I1
g1
(g5
S'\x00\x00\x00\x00'
p2100
tp2101
Rp2102
tp2103
a(F120.49602
F22.69971
I1
g1
(g5
S'\x03\x00\x00\x00'
p2104
tp2105
Rp2106
tp2107
a(F120.47253
F22.66247
I1
g1
(g5
S'\x03\x00\x00\x00'
p2108
tp2109
Rp2110
tp2111
a(F120.46518
F22.53622
I1
g1
(g5
S'\x01\x00\x00\x00'
p2112
tp2113
Rp2114
tp2115
a(F120.51511
F22.75375
I1
g1
(g5
S'\x06\x00\x00\x00'
p2116
tp2117
Rp2118
tp2119
a(F120.45565
F22.46408
I1
g1
(g5
S'\x01\x00\x00\x00'
p2120
tp2121
Rp2122
tp2123
a(F120.47727
F22.681
I2
g1
(g5
S'\x03\x00\x00\x00'
p2124
tp2125
Rp2126
tp2127
a(F120.50982
F22.68651
I2
g1
(g5
S'\x03\x00\x00\x00'
p2128
tp2129
Rp2130
tp2131
a(F120.48615
F22.68966
I2
g1
(g5
S'\x03\x00\x00\x00'
p2132
tp2133
Rp2134
tp2135
a(F120.47868
F22.67747
I2
g1
(g5
S'\x03\x00\x00\x00'
p2136
tp2137
Rp2138
tp2139
a(F120.4946
F22.68338
I1
g1
(g5
S'\x03\x00\x00\x00'
p2140
tp2141
Rp2142
tp2143
a(F120.49215
F22.68523
I1
g1
(g5
S'\x03\x00\x00\x00'
p2144
tp2145
Rp2146
tp2147
a(F120.47891
F22.66063
I1
g1
(g5
S'\x03\x00\x00\x00'
p2148
tp2149
Rp2150
tp2151
a(F120.50588
F22.46425
I2
g1
(g5
S'\x01\x00\x00\x00'
p2152
tp2153
Rp2154
tp2155
a(F120.49032
F22.67206
I3
g1
(g5
S'\x03\x00\x00\x00'
p2156
tp2157
Rp2158
tp2159
a(F120.75551
F21.98126
I1
g1
(g5
S'\x04\x00\x00\x00'
p2160
tp2161
Rp2162
tp2163
a(F120.49043
F22.42816
I1
g1
(g5
S'\x01\x00\x00\x00'
p2164
tp2165
Rp2166
tp2167
a(F120.48476
F22.64851
I1
g1
(g5
S'\x03\x00\x00\x00'
p2168
tp2169
Rp2170
tp2171
a(F120.5603
F22.60366
I1
g1
(g5
S'\x00\x00\x00\x00'
p2172
tp2173
Rp2174
tp2175
a(F120.53765
F22.5587
I1
g1
(g5
S'\x00\x00\x00\x00'
p2176
tp2177
Rp2178
tp2179
a(F120.48495
F22.67367
I1
g1
(g5
S'\x03\x00\x00\x00'
p2180
tp2181
Rp2182
tp2183
a(F120.45629
F22.47148
I2
g1
(g5
S'\x01\x00\x00\x00'
p2184
tp2185
Rp2186
tp2187
a(F120.50342
F22.68815
I2
g1
(g5
S'\x03\x00\x00\x00'
p2188
tp2189
Rp2190
tp2191
a(F120.32562
F22.63394
I1
g1
(g5
S'\x03\x00\x00\x00'
p2192
tp2193
Rp2194
tp2195
a(F120.48151
F22.67193
I3
g1
(g5
S'\x03\x00\x00\x00'
p2196
tp2197
Rp2198
tp2199
a(F120.44491
F22.46241
I1
g1
(g5
S'\x01\x00\x00\x00'
p2200
tp2201
Rp2202
tp2203
a(F120.48438
F22.66088
I1
g1
(g5
S'\x03\x00\x00\x00'
p2204
tp2205
Rp2206
tp2207
a(F120.47691
F22.66925
I2
g1
(g5
S'\x03\x00\x00\x00'
p2208
tp2209
Rp2210
tp2211
a(F120.45156
F22.47009
I6
g1
(g5
S'\x01\x00\x00\x00'
p2212
tp2213
Rp2214
tp2215
a(F120.57918
F22.79769
I1
g1
(g5
S'\x06\x00\x00\x00'
p2216
tp2217
Rp2218
tp2219
a(F120.65177
F22.25895
I2
g1
(g5
S'\x05\x00\x00\x00'
p2220
tp2221
Rp2222
tp2223
a(F120.45057
F22.46592
I6
g1
(g5
S'\x01\x00\x00\x00'
p2224
tp2225
Rp2226
tp2227
a(F120.47537
F22.68371
I1
g1
(g5
S'\x03\x00\x00\x00'
p2228
tp2229
Rp2230
tp2231
a(F120.48258
F22.67044
I2
g1
(g5
S'\x03\x00\x00\x00'
p2232
tp2233
Rp2234
tp2235
a(F120.44984
F22.46751
I5
g1
(g5
S'\x01\x00\x00\x00'
p2236
tp2237
Rp2238
tp2239
a(F120.44288
F22.46294
I2
g1
(g5
S'\x01\x00\x00\x00'
p2240
tp2241
Rp2242
tp2243
a(F120.45633
F22.48559
I1
g1
(g5
S'\x01\x00\x00\x00'
p2244
tp2245
Rp2246
tp2247
a(F120.45694
F22.46867
I1
g1
(g5
S'\x01\x00\x00\x00'
p2248
tp2249
Rp2250
tp2251
a(F120.47161
F22.47698
I1
g1
(g5
S'\x01\x00\x00\x00'
p2252
tp2253
Rp2254
tp2255
a(F120.51106
F22.66108
I3
g1
(g5
S'\x03\x00\x00\x00'
p2256
tp2257
Rp2258
tp2259
a(F120.73196
F21.94168
I1
g1
(g5
S'\x04\x00\x00\x00'
p2260
tp2261
Rp2262
tp2263
a(F120.55375
F22.55349
I1
g1
(g5
S'\x00\x00\x00\x00'
p2264
tp2265
Rp2266
tp2267
a(F120.49358
F22.72884
I1
g1
(g5
S'\x03\x00\x00\x00'
p2268
tp2269
Rp2270
tp2271
a(F120.4526
F22.46297
I1
g1
(g5
S'\x01\x00\x00\x00'
p2272
tp2273
Rp2274
tp2275
a(F120.48941
F22.69135
I1
g1
(g5
S'\x03\x00\x00\x00'
p2276
tp2277
Rp2278
tp2279
a(F120.49931
F22.68216
I2
g1
(g5
S'\x03\x00\x00\x00'
p2280
tp2281
Rp2282
tp2283
a(F120.65365
F22.71761
I1
g1
(g5
S'\x06\x00\x00\x00'
p2284
tp2285
Rp2286
tp2287
a(F120.433
F22.467
I1
g1
(g5
S'\x01\x00\x00\x00'
p2288
tp2289
Rp2290
tp2291
a(F120.47101
F22.62012
I1
g1
(g5
S'\x03\x00\x00\x00'
p2292
tp2293
Rp2294
tp2295
a(F120.5442
F22.63452
I2
g1
(g5
S'\x00\x00\x00\x00'
p2296
tp2297
Rp2298
tp2299
a(F120.5552
F22.76695
I1
g1
(g5
S'\x06\x00\x00\x00'
p2300
tp2301
Rp2302
tp2303
a(F120.47743
F22.66661
I2
g1
(g5
S'\x03\x00\x00\x00'
p2304
tp2305
Rp2306
tp2307
a(F120.6414
F22.43505
I2
g1
(g5
S'\x05\x00\x00\x00'
p2308
tp2309
Rp2310
tp2311
a(F120.4808
F22.67064
I6
g1
(g5
S'\x03\x00\x00\x00'
p2312
tp2313
Rp2314
tp2315
a(F120.49819
F22.67037
I2
g1
(g5
S'\x03\x00\x00\x00'
p2316
tp2317
Rp2318
tp2319
a(F120.48958
F22.75658
I1
g1
(g5
S'\x06\x00\x00\x00'
p2320
tp2321
Rp2322
tp2323
a(F120.47855
F22.65558
I2
g1
(g5
S'\x03\x00\x00\x00'
p2324
tp2325
Rp2326
tp2327
a(F120.49204
F22.6877
I3
g1
(g5
S'\x03\x00\x00\x00'
p2328
tp2329
Rp2330
tp2331
a(F120.54223
F22.54925
I1
g1
(g5
S'\x00\x00\x00\x00'
p2332
tp2333
Rp2334
tp2335
a(F120.74429
F21.98783
I1
g1
(g5
S'\x04\x00\x00\x00'
p2336
tp2337
Rp2338
tp2339
a(F120.598
F22.38923
I1
g1
(g5
S'\x05\x00\x00\x00'
p2340
tp2341
Rp2342
tp2343
a(F120.49789
F22.66879
I5
g1
(g5
S'\x03\x00\x00\x00'
p2344
tp2345
Rp2346
tp2347
a(F120.48009
F22.67228
I1
g1
(g5
S'\x03\x00\x00\x00'
p2348
tp2349
Rp2350
tp2351
a(F120.48517
F22.66847
I1
g1
(g5
S'\x03\x00\x00\x00'
p2352
tp2353
Rp2354
tp2355
a(F120.49561
F22.69184
I1
g1
(g5
S'\x03\x00\x00\x00'
p2356
tp2357
Rp2358
tp2359
a(F120.50059
F22.66741
I2
g1
(g5
S'\x03\x00\x00\x00'
p2360
tp2361
Rp2362
tp2363
a(F120.56648
F22.62915
I1
g1
(g5
S'\x00\x00\x00\x00'
p2364
tp2365
Rp2366
tp2367
a(F120.49415
F22.67181
I4
g1
(g5
S'\x03\x00\x00\x00'
p2368
tp2369
Rp2370
tp2371
a(F120.47368
F22.44526
I1
g1
(g5
S'\x01\x00\x00\x00'
p2372
tp2373
Rp2374
tp2375
a(F120.48389
F22.61888
I1
g1
(g5
S'\x00\x00\x00\x00'
p2376
tp2377
Rp2378
tp2379
a(F120.47825
F22.65727
I1
g1
(g5
S'\x03\x00\x00\x00'
p2380
tp2381
Rp2382
tp2383
a(F120.48415
F22.58858
I3
g1
(g5
S'\x00\x00\x00\x00'
p2384
tp2385
Rp2386
tp2387
a(F120.55905
F22.59961
I2
g1
(g5
S'\x00\x00\x00\x00'
p2388
tp2389
Rp2390
tp2391
a(F120.601
F22.36618
I1
g1
(g5
S'\x05\x00\x00\x00'
p2392
tp2393
Rp2394
tp2395
a(F120.50006
F22.68497
I1
g1
(g5
S'\x03\x00\x00\x00'
p2396
tp2397
Rp2398
tp2399
a(F120.50365
F22.49039
I1
g1
(g5
S'\x01\x00\x00\x00'
p2400
tp2401
Rp2402
tp2403
a(F120.44645
F22.46847
I2
g1
(g5
S'\x01\x00\x00\x00'
p2404
tp2405
Rp2406
tp2407
a(F120.48156
F22.68248
I1
g1
(g5
S'\x03\x00\x00\x00'
p2408
tp2409
Rp2410
tp2411
a(F120.50534
F22.67812
I1
g1
(g5
S'\x03\x00\x00\x00'
p2412
tp2413
Rp2414
tp2415
a(F120.46285
F22.62682
I1
g1
(g5
S'\x03\x00\x00\x00'
p2416
tp2417
Rp2418
tp2419
a(F120.49488
F22.68262
I5
g1
(g5
S'\x03\x00\x00\x00'
p2420
tp2421
Rp2422
tp2423
a(F120.62604
F22.49956
I1
g1
(g5
S'\x05\x00\x00\x00'
p2424
tp2425
Rp2426
tp2427
a(F120.74315
F22.0037
I1
g1
(g5
S'\x04\x00\x00\x00'
p2428
tp2429
Rp2430
tp2431
a(F120.50203
F22.69051
I2
g1
(g5
S'\x03\x00\x00\x00'
p2432
tp2433
Rp2434
tp2435
a(F120.48327
F22.66126
I3
g1
(g5
S'\x03\x00\x00\x00'
p2436
tp2437
Rp2438
tp2439
a(F120.55403
F22.68038
I2
g1
(g5
S'\x06\x00\x00\x00'
p2440
tp2441
Rp2442
tp2443
a(F120.47924
F22.66657
I1
g1
(g5
S'\x03\x00\x00\x00'
p2444
tp2445
Rp2446
tp2447
a(F120.63002
F22.42885
I6
g1
(g5
S'\x05\x00\x00\x00'
p2448
tp2449
Rp2450
tp2451
a(F120.49168
F22.58947
I5
g1
(g5
S'\x00\x00\x00\x00'
p2452
tp2453
Rp2454
tp2455
a(F120.54967
F22.55688
I1
g1
(g5
S'\x00\x00\x00\x00'
p2456
tp2457
Rp2458
tp2459
a(F120.6001
F22.67668
I1
g1
(g5
S'\x06\x00\x00\x00'
p2460
tp2461
Rp2462
tp2463
a(F120.49948
F22.62741
I1
g1
(g5
S'\x03\x00\x00\x00'
p2464
tp2465
Rp2466
tp2467
a(F120.48728
F22.67086
I1
g1
(g5
S'\x03\x00\x00\x00'
p2468
tp2469
Rp2470
tp2471
a(F120.47946
F22.74595
I1
g1
(g5
S'\x03\x00\x00\x00'
p2472
tp2473
Rp2474
tp2475
a(F120.52548
F22.61294
I1
g1
(g5
S'\x00\x00\x00\x00'
p2476
tp2477
Rp2478
tp2479
a(F120.47645
F22.6156
I1
g1
(g5
S'\x00\x00\x00\x00'
p2480
tp2481
Rp2482
tp2483
a(F120.745
F22.00525
I1
g1
(g5
S'\x04\x00\x00\x00'
p2484
tp2485
Rp2486
tp2487
a(F120.50187
F22.6653
I4
g1
(g5
S'\x03\x00\x00\x00'
p2488
tp2489
Rp2490
tp2491
a(F120.49142
F22.59169
I5
g1
(g5
S'\x00\x00\x00\x00'
p2492
tp2493
Rp2494
tp2495
a(F120.45971
F22.57768
I1
g1
(g5
S'\x00\x00\x00\x00'
p2496
tp2497
Rp2498
tp2499
a(F120.47167
F22.68485
I3
g1
(g5
S'\x03\x00\x00\x00'
p2500
tp2501
Rp2502
tp2503
a(F120.50614
F22.68284
I2
g1
(g5
S'\x03\x00\x00\x00'
p2504
tp2505
Rp2506
tp2507
a(F120.50784
F22.67636
I1
g1
(g5
S'\x03\x00\x00\x00'
p2508
tp2509
Rp2510
tp2511
a(F120.44784
F22.46737
I6
g1
(g5
S'\x01\x00\x00\x00'
p2512
tp2513
Rp2514
tp2515
a(F120.44556
F22.46814
I1
g1
(g5
S'\x01\x00\x00\x00'
p2516
tp2517
Rp2518
tp2519
a(F120.50407
F22.48765
I1
g1
(g5
S'\x01\x00\x00\x00'
p2520
tp2521
Rp2522
tp2523
a(F120.73167
F22.74653
I1
g1
(g5
S'\x06\x00\x00\x00'
p2524
tp2525
Rp2526
tp2527
a(F120.71233
F22.42059
I1
g1
(g5
S'\x05\x00\x00\x00'
p2528
tp2529
Rp2530
tp2531
a(F120.48814
F22.66584
I1
g1
(g5
S'\x03\x00\x00\x00'
p2532
tp2533
Rp2534
tp2535
a(F120.66904
F22.46377
I9
g1
(g5
S'\x05\x00\x00\x00'
p2536
tp2537
Rp2538
tp2539
a(F120.4821
F22.67303
I2
g1
(g5
S'\x03\x00\x00\x00'
p2540
tp2541
Rp2542
tp2543
a(F120.56295
F22.70326
I1
g1
(g5
S'\x06\x00\x00\x00'
p2544
tp2545
Rp2546
tp2547
a(F120.47699
F22.68004
I6
g1
(g5
S'\x03\x00\x00\x00'
p2548
tp2549
Rp2550
tp2551
a(F120.53932
F22.54984
I1
g1
(g5
S'\x00\x00\x00\x00'
p2552
tp2553
Rp2554
tp2555
a(F120.50371
F22.67156
I1
g1
(g5
S'\x03\x00\x00\x00'
p2556
tp2557
Rp2558
tp2559
a(F120.51926
F22.66419
I1
g1
(g5
S'\x03\x00\x00\x00'
p2560
tp2561
Rp2562
tp2563
a(F120.52524
F22.6512
I1
g1
(g5
S'\x03\x00\x00\x00'
p2564
tp2565
Rp2566
tp2567
a(F120.61347
F22.46544
I1
g1
(g5
S'\x05\x00\x00\x00'
p2568
tp2569
Rp2570
tp2571
a(F120.48854
F22.58082
I1
g1
(g5
S'\x00\x00\x00\x00'
p2572
tp2573
Rp2574
tp2575
a(F120.46085
F22.47701
I1
g1
(g5
S'\x01\x00\x00\x00'
p2576
tp2577
Rp2578
tp2579
a(F120.45204
F22.46902
I7
g1
(g5
S'\x01\x00\x00\x00'
p2580
tp2581
Rp2582
tp2583
a(F120.62679
F22.42923
I10
g1
(g5
S'\x05\x00\x00\x00'
p2584
tp2585
Rp2586
tp2587
a(F120.54342
F22.54943
I2
g1
(g5
S'\x00\x00\x00\x00'
p2588
tp2589
Rp2590
tp2591
a(F120.48133
F22.66197
I2
g1
(g5
S'\x03\x00\x00\x00'
p2592
tp2593
Rp2594
tp2595
a(F120.49699
F22.67288
I2
g1
(g5
S'\x03\x00\x00\x00'
p2596
tp2597
Rp2598
tp2599
a(F120.61213
F22.59321
I1
g1
(g5
S'\x00\x00\x00\x00'
p2600
tp2601
Rp2602
tp2603
a(F120.48391
F22.66968
I6
g1
(g5
S'\x03\x00\x00\x00'
p2604
tp2605
Rp2606
tp2607
a(F120.50273
F22.68289
I2
g1
(g5
S'\x03\x00\x00\x00'
p2608
tp2609
Rp2610
tp2611
a(F120.5146
F22.52484
I1
g1
(g5
S'\x00\x00\x00\x00'
p2612
tp2613
Rp2614
tp2615
a(F120.63407
F22.70074
I1
g1
(g5
S'\x06\x00\x00\x00'
p2616
tp2617
Rp2618
tp2619
a(F120.49669
F22.68338
I2
g1
(g5
S'\x03\x00\x00\x00'
p2620
tp2621
Rp2622
tp2623
a(F120.48274
F22.67156
I1
g1
(g5
S'\x03\x00\x00\x00'
p2624
tp2625
Rp2626
tp2627
a(F120.59227
F22.66714
I1
g1
(g5
S'\x06\x00\x00\x00'
p2628
tp2629
Rp2630
tp2631
a(F120.50457
F22.68215
I3
g1
(g5
S'\x03\x00\x00\x00'
p2632
tp2633
Rp2634
tp2635
a(F120.54084
F22.55953
I1
g1
(g5
S'\x00\x00\x00\x00'
p2636
tp2637
Rp2638
tp2639
a(F120.53338
F22.47504
I1
g1
(g5
S'\x01\x00\x00\x00'
p2640
tp2641
Rp2642
tp2643
a(F120.49239
F22.67233
I8
g1
(g5
S'\x03\x00\x00\x00'
p2644
tp2645
Rp2646
tp2647
a(F120.48337
F22.69026
I1
g1
(g5
S'\x03\x00\x00\x00'
p2648
tp2649
Rp2650
tp2651
a(F120.498
F22.58585
I1
g1
(g5
S'\x00\x00\x00\x00'
p2652
tp2653
Rp2654
tp2655
a(F120.48938
F22.66558
I2
g1
(g5
S'\x03\x00\x00\x00'
p2656
tp2657
Rp2658
tp2659
a(F120.44453
F22.46037
I1
g1
(g5
S'\x01\x00\x00\x00'
p2660
tp2661
Rp2662
tp2663
a(F120.43662
F22.49996
I1
g1
(g5
S'\x01\x00\x00\x00'
p2664
tp2665
Rp2666
tp2667
a(F120.48044
F22.66905
I2
g1
(g5
S'\x03\x00\x00\x00'
p2668
tp2669
Rp2670
tp2671
a(F120.48405
F22.56051
I1
g1
(g5
S'\x00\x00\x00\x00'
p2672
tp2673
Rp2674
tp2675
a(F120.51211
F22.80478
I1
g1
(g5
S'\x06\x00\x00\x00'
p2676
tp2677
Rp2678
tp2679
a(F120.49122
F22.67176
I11
g1
(g5
S'\x03\x00\x00\x00'
p2680
tp2681
Rp2682
tp2683
a(F120.70576
F22.20063
I1
g1
(g5
S'\x04\x00\x00\x00'
p2684
tp2685
Rp2686
tp2687
a(F120.55129
F22.5451
I1
g1
(g5
S'\x00\x00\x00\x00'
p2688
tp2689
Rp2690
tp2691
a(F120.48129
F22.66407
I8
g1
(g5
S'\x03\x00\x00\x00'
p2692
tp2693
Rp2694
tp2695
a(F120.56518
F22.61664
I1
g1
(g5
S'\x00\x00\x00\x00'
p2696
tp2697
Rp2698
tp2699
a(F120.48116
F22.67268
I2
g1
(g5
S'\x03\x00\x00\x00'
p2700
tp2701
Rp2702
tp2703
a(F120.49486
F22.77876
I2
g1
(g5
S'\x06\x00\x00\x00'
p2704
tp2705
Rp2706
tp2707
a(F120.59601
F22.66843
I2
g1
(g5
S'\x06\x00\x00\x00'
p2708
tp2709
Rp2710
tp2711
a(F120.53061
F22.67753
I1
g1
(g5
S'\x03\x00\x00\x00'
p2712
tp2713
Rp2714
tp2715
a(F120.45992
F22.576
I1
g1
(g5
S'\x00\x00\x00\x00'
p2716
tp2717
Rp2718
tp2719
a(F120.47805
F22.68191
I1
g1
(g5
S'\x03\x00\x00\x00'
p2720
tp2721
Rp2722
tp2723
a(F120.83493
F22.03855
I1
g1
(g5
S'\x04\x00\x00\x00'
p2724
tp2725
Rp2726
tp2727
a(F120.48111
F22.67584
I5
g1
(g5
S'\x03\x00\x00\x00'
p2728
tp2729
Rp2730
tp2731
a(F120.51174
F22.68336
I1
g1
(g5
S'\x03\x00\x00\x00'
p2732
tp2733
Rp2734
tp2735
a(F120.59689
F22.66073
I1
g1
(g5
S'\x06\x00\x00\x00'
p2736
tp2737
Rp2738
tp2739
a(F120.61186
F22.58887
I1
g1
(g5
S'\x00\x00\x00\x00'
p2740
tp2741
Rp2742
tp2743
a(F120.49811
F22.66968
I2
g1
(g5
S'\x03\x00\x00\x00'
p2744
tp2745
Rp2746
tp2747
a(F120.55229
F22.54666
I1
g1
(g5
S'\x00\x00\x00\x00'
p2748
tp2749
Rp2750
tp2751
a(F120.47497
F22.66649
I1
g1
(g5
S'\x03\x00\x00\x00'
p2752
tp2753
Rp2754
tp2755
a(F120.50083
F22.6737
I1
g1
(g5
S'\x03\x00\x00\x00'
p2756
tp2757
Rp2758
tp2759
a(F120.51683
F22.63992
I1
g1
(g5
S'\x03\x00\x00\x00'
p2760
tp2761
Rp2762
tp2763
a(F120.46935
F22.6239
I1
g1
(g5
S'\x03\x00\x00\x00'
p2764
tp2765
Rp2766
tp2767
a(F120.56351
F22.61716
I1
g1
(g5
S'\x00\x00\x00\x00'
p2768
tp2769
Rp2770
tp2771
a(F120.47519
F22.60279
I1
g1
(g5
S'\x00\x00\x00\x00'
p2772
tp2773
Rp2774
tp2775
a(F120.49243
F22.42598
I1
g1
(g5
S'\x01\x00\x00\x00'
p2776
tp2777
Rp2778
tp2779
a(F120.48
F22.6758
I2
g1
(g5
S'\x03\x00\x00\x00'
p2780
tp2781
Rp2782
tp2783
a(F120.52998
F22.53573
I1
g1
(g5
S'\x00\x00\x00\x00'
p2784
tp2785
Rp2786
tp2787
a(F120.5614
F22.60619
I1
g1
(g5
S'\x00\x00\x00\x00'
p2788
tp2789
Rp2790
tp2791
a(F120.55939
F22.74034
I1
g1
(g5
S'\x06\x00\x00\x00'
p2792
tp2793
Rp2794
tp2795
a(F120.49434
F22.67276
I3
g1
(g5
S'\x03\x00\x00\x00'
p2796
tp2797
Rp2798
tp2799
a(F120.30302
F22.6376
I1
g1
(g5
S'\x03\x00\x00\x00'
p2800
tp2801
Rp2802
tp2803
a(F120.49383
F22.77771
I1
g1
(g5
S'\x06\x00\x00\x00'
p2804
tp2805
Rp2806
tp2807
a(F120.49134
F22.59116
I4
g1
(g5
S'\x00\x00\x00\x00'
p2808
tp2809
Rp2810
tp2811
a(F120.52448
F22.67213
I1
g1
(g5
S'\x03\x00\x00\x00'
p2812
tp2813
Rp2814
tp2815
a(F120.43945
F22.47623
I1
g1
(g5
S'\x01\x00\x00\x00'
p2816
tp2817
Rp2818
tp2819
a(F120.45463
F22.51051
I1
g1
(g5
S'\x01\x00\x00\x00'
p2820
tp2821
Rp2822
tp2823
a(F120.4938
F22.6865
I1
g1
(g5
S'\x03\x00\x00\x00'
p2824
tp2825
Rp2826
tp2827
a(F120.49019
F22.66919
I2
g1
(g5
S'\x03\x00\x00\x00'
p2828
tp2829
Rp2830
tp2831
a(F120.47231
F22.68714
I1
g1
(g5
S'\x03\x00\x00\x00'
p2832
tp2833
Rp2834
tp2835
a(F120.4474
F22.46653
I1
g1
(g5
S'\x01\x00\x00\x00'
p2836
tp2837
Rp2838
tp2839
a(F120.4489
F22.45985
I1
g1
(g5
S'\x01\x00\x00\x00'
p2840
tp2841
Rp2842
tp2843
a(F120.63133
F22.4279
I2
g1
(g5
S'\x05\x00\x00\x00'
p2844
tp2845
Rp2846
tp2847
a(F120.44965
F22.46069
I1
g1
(g5
S'\x01\x00\x00\x00'
p2848
tp2849
Rp2850
tp2851
a(F120.59051
F22.50765
I2
g1
(g5
S'\x05\x00\x00\x00'
p2852
tp2853
Rp2854
tp2855
a(F120.50841
F22.67701
I2
g1
(g5
S'\x03\x00\x00\x00'
p2856
tp2857
Rp2858
tp2859
a(F120.48247
F22.6483
I1
g1
(g5
S'\x03\x00\x00\x00'
p2860
tp2861
Rp2862
tp2863
a(F120.45991
F22.4918
I1
g1
(g5
S'\x01\x00\x00\x00'
p2864
tp2865
Rp2866
tp2867
a(F120.53516
F22.69573
I1
g1
(g5
S'\x06\x00\x00\x00'
p2868
tp2869
Rp2870
tp2871
a(F120.45647
F22.4671
I1
g1
(g5
S'\x01\x00\x00\x00'
p2872
tp2873
Rp2874
tp2875
a(F120.47918
F22.67067
I7
g1
(g5
S'\x03\x00\x00\x00'
p2876
tp2877
Rp2878
tp2879
a(F120.48304
F22.68088
I3
g1
(g5
S'\x03\x00\x00\x00'
p2880
tp2881
Rp2882
tp2883
a(F120.69175
F22.02213
I1
g1
(g5
S'\x04\x00\x00\x00'
p2884
tp2885
Rp2886
tp2887
a(F120.49365
F22.68509
I2
g1
(g5
S'\x03\x00\x00\x00'
p2888
tp2889
Rp2890
tp2891
a(F120.51806
F22.43179
I1
g1
(g5
S'\x01\x00\x00\x00'
p2892
tp2893
Rp2894
tp2895
a(F120.79639
F21.94559
I1
g1
(g5
S'\x04\x00\x00\x00'
p2896
tp2897
Rp2898
tp2899
a(F120.48746
F22.58871
I1
g1
(g5
S'\x00\x00\x00\x00'
p2900
tp2901
Rp2902
tp2903
a(F120.4802
F22.77104
I1
g1
(g5
S'\x06\x00\x00\x00'
p2904
tp2905
Rp2906
tp2907
a(F120.48499
F22.69041
I1
g1
(g5
S'\x03\x00\x00\x00'
p2908
tp2909
Rp2910
tp2911
a(F120.4895
F22.6725
I6
g1
(g5
S'\x03\x00\x00\x00'
p2912
tp2913
Rp2914
tp2915
a(F120.54427
F22.54154
I1
g1
(g5
S'\x00\x00\x00\x00'
p2916
tp2917
Rp2918
tp2919
a(F120.55061
F22.594
I1
g1
(g5
S'\x00\x00\x00\x00'
p2920
tp2921
Rp2922
tp2923
a(F120.48805
F22.58663
I1
g1
(g5
S'\x00\x00\x00\x00'
p2924
tp2925
Rp2926
tp2927
a(F120.54508
F22.58557
I2
g1
(g5
S'\x00\x00\x00\x00'
p2928
tp2929
Rp2930
tp2931
a(F120.58743
F22.79678
I1
g1
(g5
S'\x06\x00\x00\x00'
p2932
tp2933
Rp2934
tp2935
a(F120.5471
F22.74743
I1
g1
(g5
S'\x06\x00\x00\x00'
p2936
tp2937
Rp2938
tp2939
a(F120.44705
F22.4679
I1
g1
(g5
S'\x01\x00\x00\x00'
p2940
tp2941
Rp2942
tp2943
a(F120.517
F22.683
I1
g1
(g5
S'\x03\x00\x00\x00'
p2944
tp2945
Rp2946
tp2947
a(F120.59731
F22.57162
I1
g1
(g5
S'\x00\x00\x00\x00'
p2948
tp2949
Rp2950
tp2951
a(F120.48745
F22.6717
I1
g1
(g5
S'\x03\x00\x00\x00'
p2952
tp2953
Rp2954
tp2955
a(F120.49089
F22.67373
I1
g1
(g5
S'\x03\x00\x00\x00'
p2956
tp2957
Rp2958
tp2959
a(F120.48865
F22.67255
I6
g1
(g5
S'\x03\x00\x00\x00'
p2960
tp2961
Rp2962
tp2963
a(F120.46168
F22.65793
I1
g1
(g5
S'\x03\x00\x00\x00'
p2964
tp2965
Rp2966
tp2967
a(F120.51066
F22.69942
I1
g1
(g5
S'\x03\x00\x00\x00'
p2968
tp2969
Rp2970
tp2971
a(F120.48442
F22.66194
I1
g1
(g5
S'\x03\x00\x00\x00'
p2972
tp2973
Rp2974
tp2975
a(F120.49027
F22.58834
I1
g1
(g5
S'\x00\x00\x00\x00'
p2976
tp2977
Rp2978
tp2979
a(F120.49029
F22.6124
I1
g1
(g5
S'\x00\x00\x00\x00'
p2980
tp2981
Rp2982
tp2983
a(F120.44828
F22.46621
I9
g1
(g5
S'\x01\x00\x00\x00'
p2984
tp2985
Rp2986
tp2987
a(F120.47877
F22.6785
I6
g1
(g5
S'\x03\x00\x00\x00'
p2988
tp2989
Rp2990
tp2991
a(F120.4732
F22.68354
I1
g1
(g5
S'\x03\x00\x00\x00'
p2992
tp2993
Rp2994
tp2995
a(F120.54316
F22.54874
I10
g1
(g5
S'\x00\x00\x00\x00'
p2996
tp2997
Rp2998
tp2999
a(F120.47652
F22.68149
I1
g1
(g5
S'\x03\x00\x00\x00'
p3000
tp3001
Rp3002
tp3003
a(F120.48577
F22.68857
I1
g1
(g5
S'\x03\x00\x00\x00'
p3004
tp3005
Rp3006
tp3007
a(F120.49554
F22.68332
I3
g1
(g5
S'\x03\x00\x00\x00'
p3008
tp3009
Rp3010
tp3011
a(F120.47932
F22.6731
I2
g1
(g5
S'\x03\x00\x00\x00'
p3012
tp3013
Rp3014
tp3015
a(F120.44781
F22.46848
I4
g1
(g5
S'\x01\x00\x00\x00'
p3016
tp3017
Rp3018
tp3019
a(F120.53173
F22.54643
I1
g1
(g5
S'\x00\x00\x00\x00'
p3020
tp3021
Rp3022
tp3023
a(F120.75679
F21.99229
I1
g1
(g5
S'\x04\x00\x00\x00'
p3024
tp3025
Rp3026
tp3027
a(F120.48161
F22.68637
I1
g1
(g5
S'\x03\x00\x00\x00'
p3028
tp3029
Rp3030
tp3031
a(F120.53946
F22.62614
I1
g1
(g5
S'\x00\x00\x00\x00'
p3032
tp3033
Rp3034
tp3035
a(F120.48009
F22.68077
I1
g1
(g5
S'\x03\x00\x00\x00'
p3036
tp3037
Rp3038
tp3039
a(F120.4828
F22.67498
I5
g1
(g5
S'\x03\x00\x00\x00'
p3040
tp3041
Rp3042
tp3043
a(F120.47274
F22.65577
I2
g1
(g5
S'\x03\x00\x00\x00'
p3044
tp3045
Rp3046
tp3047
a(F120.46342
F22.65363
I1
g1
(g5
S'\x03\x00\x00\x00'
p3048
tp3049
Rp3050
tp3051
a(F120.46306
F22.47896
I1
g1
(g5
S'\x01\x00\x00\x00'
p3052
tp3053
Rp3054
tp3055
a(F120.49005
F22.68925
I1
g1
(g5
S'\x03\x00\x00\x00'
p3056
tp3057
Rp3058
tp3059
a(F120.58414
F22.5092
I1
g1
(g5
S'\x05\x00\x00\x00'
p3060
tp3061
Rp3062
tp3063
a(F120.51159
F22.66225
I1
g1
(g5
S'\x03\x00\x00\x00'
p3064
tp3065
Rp3066
tp3067
a(F120.48672
F22.66713
I2
g1
(g5
S'\x03\x00\x00\x00'
p3068
tp3069
Rp3070
tp3071
a(F120.48064
F22.66457
I6
g1
(g5
S'\x03\x00\x00\x00'
p3072
tp3073
Rp3074
tp3075
a(F120.47525
F22.68191
I3
g1
(g5
S'\x03\x00\x00\x00'
p3076
tp3077
Rp3078
tp3079
a(F120.50558
F22.69911
I1
g1
(g5
S'\x03\x00\x00\x00'
p3080
tp3081
Rp3082
tp3083
a(F120.59715
F22.63839
I1
g1
(g5
S'\x00\x00\x00\x00'
p3084
tp3085
Rp3086
tp3087
a(F120.47218
F22.6585
I1
g1
(g5
S'\x03\x00\x00\x00'
p3088
tp3089
Rp3090
tp3091
a(F120.62825
F22.42872
I15
g1
(g5
S'\x05\x00\x00\x00'
p3092
tp3093
Rp3094
tp3095
a(F120.47604
F22.65601
I1
g1
(g5
S'\x03\x00\x00\x00'
p3096
tp3097
Rp3098
tp3099
a(F120.49007
F22.66754
I3
g1
(g5
S'\x03\x00\x00\x00'
p3100
tp3101
Rp3102
tp3103
a(F120.47167
F22.68644
I2
g1
(g5
S'\x03\x00\x00\x00'
p3104
tp3105
Rp3106
tp3107
a(F120.50599
F22.68368
I2
g1
(g5
S'\x03\x00\x00\x00'
p3108
tp3109
Rp3110
tp3111
a(F120.46482
F22.65544
I1
g1
(g5
S'\x03\x00\x00\x00'
p3112
tp3113
Rp3114
tp3115
a(F120.49104
F22.6774
I4
g1
(g5
S'\x03\x00\x00\x00'
p3116
tp3117
Rp3118
tp3119
a(F120.55445
F22.74483
I1
g1
(g5
S'\x06\x00\x00\x00'
p3120
tp3121
Rp3122
tp3123
a(F120.47413
F22.68855
I1
g1
(g5
S'\x03\x00\x00\x00'
p3124
tp3125
Rp3126
tp3127
a(F120.51643
F22.73633
I1
g1
(g5
S'\x06\x00\x00\x00'
p3128
tp3129
Rp3130
tp3131
a(F120.56706
F22.61198
I1
g1
(g5
S'\x00\x00\x00\x00'
p3132
tp3133
Rp3134
tp3135
a(F120.46604
F22.6108
I1
g1
(g5
S'\x00\x00\x00\x00'
p3136
tp3137
Rp3138
tp3139
a(F120.63499
F22.3169
I1
g1
(g5
S'\x05\x00\x00\x00'
p3140
tp3141
Rp3142
tp3143
a(F120.51996
F22.68368
I1
g1
(g5
S'\x03\x00\x00\x00'
p3144
tp3145
Rp3146
tp3147
a(F120.44851
F22.4683
I5
g1
(g5
S'\x01\x00\x00\x00'
p3148
tp3149
Rp3150
tp3151
a(F120.48005
F22.67102
I1
g1
(g5
S'\x03\x00\x00\x00'
p3152
tp3153
Rp3154
tp3155
a(F120.56517
F22.6902
I2
g1
(g5
S'\x06\x00\x00\x00'
p3156
tp3157
Rp3158
tp3159
a(F120.53836
F22.54787
I1
g1
(g5
S'\x00\x00\x00\x00'
p3160
tp3161
Rp3162
tp3163
a(F120.50562
F22.6704
I1
g1
(g5
S'\x03\x00\x00\x00'
p3164
tp3165
Rp3166
tp3167
a(F120.54145
F22.54003
I1
g1
(g5
S'\x00\x00\x00\x00'
p3168
tp3169
Rp3170
tp3171
a(F120.47231
F22.62626
I2
g1
(g5
S'\x03\x00\x00\x00'
p3172
tp3173
Rp3174
tp3175
a(F120.51972
F22.43162
I1
g1
(g5
S'\x01\x00\x00\x00'
p3176
tp3177
Rp3178
tp3179
a(F120.54398
F22.57579
I1
g1
(g5
S'\x00\x00\x00\x00'
p3180
tp3181
Rp3182
tp3183
a(F120.55196
F22.41978
I1
g1
(g5
S'\x05\x00\x00\x00'
p3184
tp3185
Rp3186
tp3187
a(F120.48219
F22.65754
I1
g1
(g5
S'\x03\x00\x00\x00'
p3188
tp3189
Rp3190
tp3191
a(F120.4721
F22.68307
I1
g1
(g5
S'\x03\x00\x00\x00'
p3192
tp3193
Rp3194
tp3195
a(F120.49831
F22.6733
I2
g1
(g5
S'\x03\x00\x00\x00'
p3196
tp3197
Rp3198
tp3199
a(F120.52577
F22.4205
I1
g1
(g5
S'\x01\x00\x00\x00'
p3200
tp3201
Rp3202
tp3203
a(F120.49315
F22.68431
I4
g1
(g5
S'\x03\x00\x00\x00'
p3204
tp3205
Rp3206
tp3207
a(F120.4717
F22.66929
I6
g1
(g5
S'\x03\x00\x00\x00'
p3208
tp3209
Rp3210
tp3211
a(F120.50229
F22.73651
I1
g1
(g5
S'\x06\x00\x00\x00'
p3212
tp3213
Rp3214
tp3215
a(F120.48527
F22.65797
I1
g1
(g5
S'\x03\x00\x00\x00'
p3216
tp3217
Rp3218
tp3219
a(F120.47109
F22.62486
I1
g1
(g5
S'\x03\x00\x00\x00'
p3220
tp3221
Rp3222
tp3223
a(F120.50147
F22.68803
I1
g1
(g5
S'\x03\x00\x00\x00'
p3224
tp3225
Rp3226
tp3227
a(F120.48272
F22.7601
I2
g1
(g5
S'\x06\x00\x00\x00'
p3228
tp3229
Rp3230
tp3231
a(F120.49172
F22.67253
I4
g1
(g5
S'\x03\x00\x00\x00'
p3232
tp3233
Rp3234
tp3235
a(F120.50145
F22.67511
I1
g1
(g5
S'\x03\x00\x00\x00'
p3236
tp3237
Rp3238
tp3239
a(F120.47128
F22.68243
I2
g1
(g5
S'\x03\x00\x00\x00'
p3240
tp3241
Rp3242
tp3243
a(F120.50665
F22.66206
I1
g1
(g5
S'\x03\x00\x00\x00'
p3244
tp3245
Rp3246
tp3247
a(F120.48381
F22.66381
I3
g1
(g5
S'\x03\x00\x00\x00'
p3248
tp3249
Rp3250
tp3251
a(F120.48923
F22.59259
I2
g1
(g5
S'\x00\x00\x00\x00'
p3252
tp3253
Rp3254
tp3255
a(F120.47921
F22.66572
I6
g1
(g5
S'\x03\x00\x00\x00'
p3256
tp3257
Rp3258
tp3259
a(F120.47208
F22.65475
I1
g1
(g5
S'\x03\x00\x00\x00'
p3260
tp3261
Rp3262
tp3263
a(F120.44232
F22.48006
I1
g1
(g5
S'\x01\x00\x00\x00'
p3264
tp3265
Rp3266
tp3267
a(F120.4933
F22.67207
I14
g1
(g5
S'\x03\x00\x00\x00'
p3268
tp3269
Rp3270
tp3271
a(F120.44474
F22.46616
I2
g1
(g5
S'\x01\x00\x00\x00'
p3272
tp3273
Rp3274
tp3275
a(F120.57517
F22.75672
I1
g1
(g5
S'\x06\x00\x00\x00'
p3276
tp3277
Rp3278
tp3279
a(F120.49984
F22.46155
I1
g1
(g5
S'\x01\x00\x00\x00'
p3280
tp3281
Rp3282
tp3283
a(F120.49274
F22.67034
I4
g1
(g5
S'\x03\x00\x00\x00'
p3284
tp3285
Rp3286
tp3287
a(F120.63598
F22.51707
I1
g1
(g5
S'\x05\x00\x00\x00'
p3288
tp3289
Rp3290
tp3291
a(F120.62531
F22.696
I1
g1
(g5
S'\x06\x00\x00\x00'
p3292
tp3293
Rp3294
tp3295
a(F120.48206
F22.66704
I4
g1
(g5
S'\x03\x00\x00\x00'
p3296
tp3297
Rp3298
tp3299
a(F120.48046
F22.65881
I1
g1
(g5
S'\x03\x00\x00\x00'
p3300
tp3301
Rp3302
tp3303
a(F120.49358
F22.67006
I3
g1
(g5
S'\x03\x00\x00\x00'
p3304
tp3305
Rp3306
tp3307
a(F120.4879
F22.65479
I1
g1
(g5
S'\x03\x00\x00\x00'
p3308
tp3309
Rp3310
tp3311
a(F120.59875
F22.69738
I2
g1
(g5
S'\x06\x00\x00\x00'
p3312
tp3313
Rp3314
tp3315
a(F120.47649
F22.68525
I1
g1
(g5
S'\x03\x00\x00\x00'
p3316
tp3317
Rp3318
tp3319
a(F120.7442
F22.00389
I3
g1
(g5
S'\x04\x00\x00\x00'
p3320
tp3321
Rp3322
tp3323
a(F120.49916
F22.43256
I1
g1
(g5
S'\x01\x00\x00\x00'
p3324
tp3325
Rp3326
tp3327
a(F120.48182
F22.67513
I5
g1
(g5
S'\x03\x00\x00\x00'
p3328
tp3329
Rp3330
tp3331
a(F120.49758
F22.6708
I6
g1
(g5
S'\x03\x00\x00\x00'
p3332
tp3333
Rp3334
tp3335
a(F120.45154
F22.46767
I2
g1
(g5
S'\x01\x00\x00\x00'
p3336
tp3337
Rp3338
tp3339
a(F120.52129
F22.73932
I2
g1
(g5
S'\x06\x00\x00\x00'
p3340
tp3341
Rp3342
tp3343
a(F120.54687
F22.58179
I1
g1
(g5
S'\x00\x00\x00\x00'
p3344
tp3345
Rp3346
tp3347
a(F120.54841
F22.54391
I1
g1
(g5
S'\x00\x00\x00\x00'
p3348
tp3349
Rp3350
tp3351
a(F121.56029
F25.05176
I1
g1
(g5
S'\x02\x00\x00\x00'
p3352
tp3353
Rp3354
tp3355
a(F120.48243
F22.67227
I1
g1
(g5
S'\x03\x00\x00\x00'
p3356
tp3357
Rp3358
tp3359
a(F120.46111
F22.46579
I1
g1
(g5
S'\x01\x00\x00\x00'
p3360
tp3361
Rp3362
tp3363
a(F120.48836
F22.59114
I3
g1
(g5
S'\x00\x00\x00\x00'
p3364
tp3365
Rp3366
tp3367
a(F120.49983
F22.69082
I1
g1
(g5
S'\x03\x00\x00\x00'
p3368
tp3369
Rp3370
tp3371
a(F120.47272
F22.6824
I1
g1
(g5
S'\x03\x00\x00\x00'
p3372
tp3373
Rp3374
tp3375
a(F120.4464
F22.46748
I5
g1
(g5
S'\x01\x00\x00\x00'
p3376
tp3377
Rp3378
tp3379
a(F120.48053
F22.67509
I1
g1
(g5
S'\x03\x00\x00\x00'
p3380
tp3381
Rp3382
tp3383
a(F120.48334
F22.66032
I1
g1
(g5
S'\x03\x00\x00\x00'
p3384
tp3385
Rp3386
tp3387
a(F120.45727
F22.468
I1
g1
(g5
S'\x01\x00\x00\x00'
p3388
tp3389
Rp3390
tp3391
a(F120.4922
F22.68826
I2
g1
(g5
S'\x03\x00\x00\x00'
p3392
tp3393
Rp3394
tp3395
a(F120.49147
F22.59272
I1
g1
(g5
S'\x00\x00\x00\x00'
p3396
tp3397
Rp3398
tp3399
a(F120.50126
F22.68554
I1
g1
(g5
S'\x03\x00\x00\x00'
p3400
tp3401
Rp3402
tp3403
a(F120.47275
F22.65685
I1
g1
(g5
S'\x03\x00\x00\x00'
p3404
tp3405
Rp3406
tp3407
a(F120.49134
F22.67081
I5
g1
(g5
S'\x03\x00\x00\x00'
p3408
tp3409
Rp3410
tp3411
a(F120.74335
F22.0029
I1
g1
(g5
S'\x04\x00\x00\x00'
p3412
tp3413
Rp3414
tp3415
a(F120.44939
F22.46407
I1
g1
(g5
S'\x01\x00\x00\x00'
p3416
tp3417
Rp3418
tp3419
a(F120.5424
F22.55475
I1
g1
(g5
S'\x00\x00\x00\x00'
p3420
tp3421
Rp3422
tp3423
a(F120.49343
F22.78251
I1
g1
(g5
S'\x06\x00\x00\x00'
p3424
tp3425
Rp3426
tp3427
a(F120.48328
F22.6856
I1
g1
(g5
S'\x03\x00\x00\x00'
p3428
tp3429
Rp3430
tp3431
a(F120.49753
F22.68312
I3
g1
(g5
S'\x03\x00\x00\x00'
p3432
tp3433
Rp3434
tp3435
a(F120.55709
F22.73391
I2
g1
(g5
S'\x06\x00\x00\x00'
p3436
tp3437
Rp3438
tp3439
a(F120.6498
F22.52754
I1
g1
(g5
S'\x05\x00\x00\x00'
p3440
tp3441
Rp3442
tp3443
a(F120.46207
F22.61173
I1
g1
(g5
S'\x00\x00\x00\x00'
p3444
tp3445
Rp3446
tp3447
a(F120.49179
F22.67347
I1
g1
(g5
S'\x03\x00\x00\x00'
p3448
tp3449
Rp3450
tp3451
a(F120.45946
F22.47417
I2
g1
(g5
S'\x01\x00\x00\x00'
p3452
tp3453
Rp3454
tp3455
a(F120.4915
F22.42767
I1
g1
(g5
S'\x01\x00\x00\x00'
p3456
tp3457
Rp3458
tp3459
a(F120.5118
F22.66017
I1
g1
(g5
S'\x03\x00\x00\x00'
p3460
tp3461
Rp3462
tp3463
a(F120.49025
F22.67486
I10
g1
(g5
S'\x03\x00\x00\x00'
p3464
tp3465
Rp3466
tp3467
a(F120.49733
F22.68385
I1
g1
(g5
S'\x03\x00\x00\x00'
p3468
tp3469
Rp3470
tp3471
a(F120.53904
F22.58516
I1
g1
(g5
S'\x00\x00\x00\x00'
p3472
tp3473
Rp3474
tp3475
a(F120.47939
F22.67558
I3
g1
(g5
S'\x03\x00\x00\x00'
p3476
tp3477
Rp3478
tp3479
a(F120.47085
F22.66824
I1
g1
(g5
S'\x03\x00\x00\x00'
p3480
tp3481
Rp3482
tp3483
a(F120.48752
F22.66729
I5
g1
(g5
S'\x03\x00\x00\x00'
p3484
tp3485
Rp3486
tp3487
a(F120.47382
F22.67069
I2
g1
(g5
S'\x03\x00\x00\x00'
p3488
tp3489
Rp3490
tp3491
a(F120.45916
F22.48356
I1
g1
(g5
S'\x01\x00\x00\x00'
p3492
tp3493
Rp3494
tp3495
a(F120.44936
F22.46813
I10
g1
(g5
S'\x01\x00\x00\x00'
p3496
tp3497
Rp3498
tp3499
a(F120.51029
F22.66391
I1
g1
(g5
S'\x03\x00\x00\x00'
p3500
tp3501
Rp3502
tp3503
a(F120.50958
F22.56899
I1
g1
(g5
S'\x00\x00\x00\x00'
p3504
tp3505
Rp3506
tp3507
a(F120.48822
F22.6773
I2
g1
(g5
S'\x03\x00\x00\x00'
p3508
tp3509
Rp3510
tp3511
a(F120.45084
F22.46804
I3
g1
(g5
S'\x01\x00\x00\x00'
p3512
tp3513
Rp3514
tp3515
a(F120.4889
F22.48529
I1
g1
(g5
S'\x01\x00\x00\x00'
p3516
tp3517
Rp3518
tp3519
a(F120.48196
F22.68204
I2
g1
(g5
S'\x03\x00\x00\x00'
p3520
tp3521
Rp3522
tp3523
a(F120.48394
F22.7721
I1
g1
(g5
S'\x06\x00\x00\x00'
p3524
tp3525
Rp3526
tp3527
a(F120.60013
F22.82629
I1
g1
(g5
S'\x06\x00\x00\x00'
p3528
tp3529
Rp3530
tp3531
a(F120.5125
F22.66404
I3
g1
(g5
S'\x03\x00\x00\x00'
p3532
tp3533
Rp3534
tp3535
a(F120.47607
F22.66961
I1
g1
(g5
S'\x03\x00\x00\x00'
p3536
tp3537
Rp3538
tp3539
a(F120.49982
F22.68819
I1
g1
(g5
S'\x03\x00\x00\x00'
p3540
tp3541
Rp3542
tp3543
a(F120.5802
F22.75573
I1
g1
(g5
S'\x06\x00\x00\x00'
p3544
tp3545
Rp3546
tp3547
a(F120.49065
F22.57757
I1
g1
(g5
S'\x00\x00\x00\x00'
p3548
tp3549
Rp3550
tp3551
a(F120.4753
F22.68086
I3
g1
(g5
S'\x03\x00\x00\x00'
p3552
tp3553
Rp3554
tp3555
a(F120.8013
F22.01027
I1
g1
(g5
S'\x04\x00\x00\x00'
p3556
tp3557
Rp3558
tp3559
a(F120.48006
F22.67866
I2
g1
(g5
S'\x03\x00\x00\x00'
p3560
tp3561
Rp3562
tp3563
a(F120.48656
F22.42913
I1
g1
(g5
S'\x01\x00\x00\x00'
p3564
tp3565
Rp3566
tp3567
a(F120.48896
F22.67047
I2
g1
(g5
S'\x03\x00\x00\x00'
p3568
tp3569
Rp3570
tp3571
a(F120.48336
F22.66227
I1
g1
(g5
S'\x03\x00\x00\x00'
p3572
tp3573
Rp3574
tp3575
a(F120.49078
F22.67655
I2
g1
(g5
S'\x03\x00\x00\x00'
p3576
tp3577
Rp3578
tp3579
a(F120.4467
F22.46466
I2
g1
(g5
S'\x01\x00\x00\x00'
p3580
tp3581
Rp3582
tp3583
a(F120.48003
F22.677
I21
g1
(g5
S'\x03\x00\x00\x00'
p3584
tp3585
Rp3586
tp3587
a(F120.47406
F22.68098
I2
g1
(g5
S'\x03\x00\x00\x00'
p3588
tp3589
Rp3590
tp3591
a(F120.82384
F21.93427
I1
g1
(g5
S'\x04\x00\x00\x00'
p3592
tp3593
Rp3594
tp3595
a(F120.48274
F22.69397
I1
g1
(g5
S'\x03\x00\x00\x00'
p3596
tp3597
Rp3598
tp3599
a(F120.48597
F22.66712
I3
g1
(g5
S'\x03\x00\x00\x00'
p3600
tp3601
Rp3602
tp3603
a(F120.47093
F22.59105
I1
g1
(g5
S'\x00\x00\x00\x00'
p3604
tp3605
Rp3606
tp3607
a(F120.54072
F22.55172
I2
g1
(g5
S'\x00\x00\x00\x00'
p3608
tp3609
Rp3610
tp3611
a(F120.44311
F22.46108
I3
g1
(g5
S'\x01\x00\x00\x00'
p3612
tp3613
Rp3614
tp3615
a(F120.53961
F22.54335
I2
g1
(g5
S'\x00\x00\x00\x00'
p3616
tp3617
Rp3618
tp3619
a(F120.49242
F22.5923
I1
g1
(g5
S'\x00\x00\x00\x00'
p3620
tp3621
Rp3622
tp3623
a(F120.51723
F22.58101
I1
g1
(g5
S'\x00\x00\x00\x00'
p3624
tp3625
Rp3626
tp3627
a(F120.47619
F22.68344
I1
g1
(g5
S'\x03\x00\x00\x00'
p3628
tp3629
Rp3630
tp3631
a(F120.60304
F22.67535
I1
g1
(g5
S'\x06\x00\x00\x00'
p3632
tp3633
Rp3634
tp3635
a(F120.50178
F22.75097
I2
g1
(g5
S'\x06\x00\x00\x00'
p3636
tp3637
Rp3638
tp3639
a(F120.54025
F22.55081
I3
g1
(g5
S'\x00\x00\x00\x00'
p3640
tp3641
Rp3642
tp3643
a(F120.50501
F22.48865
I1
g1
(g5
S'\x01\x00\x00\x00'
p3644
tp3645
Rp3646
tp3647
a(F120.4946
F22.67069
I1
g1
(g5
S'\x03\x00\x00\x00'
p3648
tp3649
Rp3650
tp3651
a(F120.54617
F22.55232
I1
g1
(g5
S'\x00\x00\x00\x00'
p3652
tp3653
Rp3654
tp3655
a(F120.47559
F22.67995
I3
g1
(g5
S'\x03\x00\x00\x00'
p3656
tp3657
Rp3658
tp3659
a(F120.48089
F22.66943
I8
g1
(g5
S'\x03\x00\x00\x00'
p3660
tp3661
Rp3662
tp3663
a(F120.48072
F22.67331
I1
g1
(g5
S'\x03\x00\x00\x00'
p3664
tp3665
Rp3666
tp3667
a(F120.50587
F22.67855
I1
g1
(g5
S'\x03\x00\x00\x00'
p3668
tp3669
Rp3670
tp3671
a(F120.44348
F22.47593
I1
g1
(g5
S'\x01\x00\x00\x00'
p3672
tp3673
Rp3674
tp3675
a(F120.57145
F22.61343
I1
g1
(g5
S'\x00\x00\x00\x00'
p3676
tp3677
Rp3678
tp3679
a(F120.48053
F22.67154
I3
g1
(g5
S'\x03\x00\x00\x00'
p3680
tp3681
Rp3682
tp3683
a(F120.485
F22.66731
I1
g1
(g5
S'\x03\x00\x00\x00'
p3684
tp3685
Rp3686
tp3687
a(F120.48838
F22.66352
I2
g1
(g5
S'\x03\x00\x00\x00'
p3688
tp3689
Rp3690
tp3691
a(F120.59986
F22.63722
I2
g1
(g5
S'\x00\x00\x00\x00'
p3692
tp3693
Rp3694
tp3695
a(F120.53504
F22.55694
I1
g1
(g5
S'\x00\x00\x00\x00'
p3696
tp3697
Rp3698
tp3699
a(F120.53864
F22.59325
I1
g1
(g5
S'\x00\x00\x00\x00'
p3700
tp3701
Rp3702
tp3703
a(F120.48364
F22.67457
I3
g1
(g5
S'\x03\x00\x00\x00'
p3704
tp3705
Rp3706
tp3707
a(F120.50141
F22.68191
I2
g1
(g5
S'\x03\x00\x00\x00'
p3708
tp3709
Rp3710
tp3711
a(F120.45096
F22.46297
I3
g1
(g5
S'\x01\x00\x00\x00'
p3712
tp3713
Rp3714
tp3715
a(F120.49042
F22.59119
I3
g1
(g5
S'\x00\x00\x00\x00'
p3716
tp3717
Rp3718
tp3719
a(F120.58559
F22.79656
I1
g1
(g5
S'\x06\x00\x00\x00'
p3720
tp3721
Rp3722
tp3723
a(F120.62639
F22.32444
I1
g1
(g5
S'\x05\x00\x00\x00'
p3724
tp3725
Rp3726
tp3727
a(F120.48299
F22.66074
I2
g1
(g5
S'\x03\x00\x00\x00'
p3728
tp3729
Rp3730
tp3731
a(F120.48649
F22.58328
I1
g1
(g5
S'\x00\x00\x00\x00'
p3732
tp3733
Rp3734
tp3735
a(F120.49435
F22.68632
I1
g1
(g5
S'\x03\x00\x00\x00'
p3736
tp3737
Rp3738
tp3739
a(F120.46462
F22.48133
I1
g1
(g5
S'\x01\x00\x00\x00'
p3740
tp3741
Rp3742
tp3743
a(F120.59717
F22.38831
I1
g1
(g5
S'\x05\x00\x00\x00'
p3744
tp3745
Rp3746
tp3747
a(F120.48265
F22.69152
I1
g1
(g5
S'\x03\x00\x00\x00'
p3748
tp3749
Rp3750
tp3751
a(F120.48482
F22.58095
I1
g1
(g5
S'\x00\x00\x00\x00'
p3752
tp3753
Rp3754
tp3755
a(F120.46923
F22.6672
I1
g1
(g5
S'\x03\x00\x00\x00'
p3756
tp3757
Rp3758
tp3759
a(F120.49897
F22.68377
I1
g1
(g5
S'\x03\x00\x00\x00'
p3760
tp3761
Rp3762
tp3763
a(F120.61809
F22.70883
I1
g1
(g5
S'\x06\x00\x00\x00'
p3764
tp3765
Rp3766
tp3767
a(F120.48172
F22.68032
I2
g1
(g5
S'\x03\x00\x00\x00'
p3768
tp3769
Rp3770
tp3771
a(F120.49044
F22.68135
I1
g1
(g5
S'\x03\x00\x00\x00'
p3772
tp3773
Rp3774
tp3775
a(F120.47482
F22.68488
I1
g1
(g5
S'\x03\x00\x00\x00'
p3776
tp3777
Rp3778
tp3779
a(F120.48629
F22.66833
I3
g1
(g5
S'\x03\x00\x00\x00'
p3780
tp3781
Rp3782
tp3783
a(F120.50306
F22.68551
I1
g1
(g5
S'\x03\x00\x00\x00'
p3784
tp3785
Rp3786
tp3787
a(F120.52304
F22.64027
I1
g1
(g5
S'\x03\x00\x00\x00'
p3788
tp3789
Rp3790
tp3791
a(F120.48406
F22.68406
I1
g1
(g5
S'\x03\x00\x00\x00'
p3792
tp3793
Rp3794
tp3795
a(F120.50531
F22.6806
I1
g1
(g5
S'\x03\x00\x00\x00'
p3796
tp3797
Rp3798
tp3799
a(F120.45017
F22.4564
I1
g1
(g5
S'\x01\x00\x00\x00'
p3800
tp3801
Rp3802
tp3803
a(F120.44356
F22.46152
I2
g1
(g5
S'\x01\x00\x00\x00'
p3804
tp3805
Rp3806
tp3807
a(F120.48568
F22.6544
I1
g1
(g5
S'\x03\x00\x00\x00'
p3808
tp3809
Rp3810
tp3811
a(F120.54567
F22.55858
I1
g1
(g5
S'\x00\x00\x00\x00'
p3812
tp3813
Rp3814
tp3815
a(F120.48392
F22.64674
I1
g1
(g5
S'\x03\x00\x00\x00'
p3816
tp3817
Rp3818
tp3819
a(F120.48602
F22.66411
I1
g1
(g5
S'\x03\x00\x00\x00'
p3820
tp3821
Rp3822
tp3823
a(F120.61111
F22.72388
I1
g1
(g5
S'\x06\x00\x00\x00'
p3824
tp3825
Rp3826
tp3827
a(F120.50058
F22.5812
I1
g1
(g5
S'\x00\x00\x00\x00'
p3828
tp3829
Rp3830
tp3831
a(F120.44828
F22.46399
I2
g1
(g5
S'\x01\x00\x00\x00'
p3832
tp3833
Rp3834
tp3835
a(F120.49664
F22.67211
I7
g1
(g5
S'\x03\x00\x00\x00'
p3836
tp3837
Rp3838
tp3839
a(F120.50293
F22.74706
I2
g1
(g5
S'\x06\x00\x00\x00'
p3840
tp3841
Rp3842
tp3843
a(F120.48583
F22.68379
I2
g1
(g5
S'\x03\x00\x00\x00'
p3844
tp3845
Rp3846
tp3847
a(F120.48332
F22.67261
I2
g1
(g5
S'\x03\x00\x00\x00'
p3848
tp3849
Rp3850
tp3851
a(F120.44415
F22.46378
I1
g1
(g5
S'\x01\x00\x00\x00'
p3852
tp3853
Rp3854
tp3855
a(F120.61196
F22.4768
I1
g1
(g5
S'\x05\x00\x00\x00'
p3856
tp3857
Rp3858
tp3859
a(F120.45486
F22.46436
I1
g1
(g5
S'\x01\x00\x00\x00'
p3860
tp3861
Rp3862
tp3863
a(F120.49479
F22.67925
I2
g1
(g5
S'\x03\x00\x00\x00'
p3864
tp3865
Rp3866
tp3867
a(F120.47994
F22.67936
I1
g1
(g5
S'\x03\x00\x00\x00'
p3868
tp3869
Rp3870
tp3871
a(F120.64109
F22.43635
I2
g1
(g5
S'\x05\x00\x00\x00'
p3872
tp3873
Rp3874
tp3875
a(F120.39423
F22.60827
I1
g1
(g5
S'\x03\x00\x00\x00'
p3876
tp3877
Rp3878
tp3879
a(F120.64508
F22.30057
I1
g1
(g5
S'\x05\x00\x00\x00'
p3880
tp3881
Rp3882
tp3883
a(F120.4572
F22.57421
I1
g1
(g5
S'\x00\x00\x00\x00'
p3884
tp3885
Rp3886
tp3887
a(F120.47726
F22.66977
I1
g1
(g5
S'\x03\x00\x00\x00'
p3888
tp3889
Rp3890
tp3891
a(F120.52001
F22.41144
I1
g1
(g5
S'\x01\x00\x00\x00'
p3892
tp3893
Rp3894
tp3895
a(F120.49528
F22.67505
I2
g1
(g5
S'\x03\x00\x00\x00'
p3896
tp3897
Rp3898
tp3899
a(F120.47992
F22.65516
I1
g1
(g5
S'\x03\x00\x00\x00'
p3900
tp3901
Rp3902
tp3903
a(F120.49066
F22.51554
I1
g1
(g5
S'\x01\x00\x00\x00'
p3904
tp3905
Rp3906
tp3907
a(F120.49966
F22.72723
I1
g1
(g5
S'\x03\x00\x00\x00'
p3908
tp3909
Rp3910
tp3911
a(F120.45896
F22.48776
I2
g1
(g5
S'\x01\x00\x00\x00'
p3912
tp3913
Rp3914
tp3915
a(F120.47554
F22.6805
I3
g1
(g5
S'\x03\x00\x00\x00'
p3916
tp3917
Rp3918
tp3919
a(F120.49033
F22.59035
I5
g1
(g5
S'\x00\x00\x00\x00'
p3920
tp3921
Rp3922
tp3923
a(F120.45785
F22.49071
I1
g1
(g5
S'\x01\x00\x00\x00'
p3924
tp3925
Rp3926
tp3927
a(F120.52903
F22.64206
I1
g1
(g5
S'\x03\x00\x00\x00'
p3928
tp3929
Rp3930
tp3931
a(F120.51491
F22.57466
I1
g1
(g5
S'\x00\x00\x00\x00'
p3932
tp3933
Rp3934
tp3935
a(F120.49012
F22.59626
I6
g1
(g5
S'\x00\x00\x00\x00'
p3936
tp3937
Rp3938
tp3939
a(F120.47228
F22.66936
I1
g1
(g5
S'\x03\x00\x00\x00'
p3940
tp3941
Rp3942
tp3943
a(F120.45893
F22.46332
I2
g1
(g5
S'\x01\x00\x00\x00'
p3944
tp3945
Rp3946
tp3947
a(F120.54644
F22.69927
I1
g1
(g5
S'\x06\x00\x00\x00'
p3948
tp3949
Rp3950
tp3951
a(F120.51208
F22.43453
I1
g1
(g5
S'\x01\x00\x00\x00'
p3952
tp3953
Rp3954
tp3955
a(F120.47978
F22.66814
I5
g1
(g5
S'\x03\x00\x00\x00'
p3956
tp3957
Rp3958
tp3959
a(F120.50234
F22.66615
I1
g1
(g5
S'\x03\x00\x00\x00'
p3960
tp3961
Rp3962
tp3963
a(F120.48621
F22.67288
I1
g1
(g5
S'\x03\x00\x00\x00'
p3964
tp3965
Rp3966
tp3967
a(F120.49159
F22.68717
I6
g1
(g5
S'\x03\x00\x00\x00'
p3968
tp3969
Rp3970
tp3971
a(F120.49292
F22.66864
I4
g1
(g5
S'\x03\x00\x00\x00'
p3972
tp3973
Rp3974
tp3975
a(F120.48201
F22.6633
I1
g1
(g5
S'\x03\x00\x00\x00'
p3976
tp3977
Rp3978
tp3979
a(F120.47931
F22.65783
I2
g1
(g5
S'\x03\x00\x00\x00'
p3980
tp3981
Rp3982
tp3983
a(F120.47207
F22.65532
I1
g1
(g5
S'\x03\x00\x00\x00'
p3984
tp3985
Rp3986
tp3987
a(F120.50269
F22.67426
I1
g1
(g5
S'\x03\x00\x00\x00'
p3988
tp3989
Rp3990
tp3991
a(F120.47563
F22.67942
I2
g1
(g5
S'\x03\x00\x00\x00'
p3992
tp3993
Rp3994
tp3995
a(F120.59857
F22.63402
I1
g1
(g5
S'\x00\x00\x00\x00'
p3996
tp3997
Rp3998
tp3999
a(F120.47262
F22.68056
I1
g1
(g5
S'\x03\x00\x00\x00'
p4000
tp4001
Rp4002
tp4003
a(F120.51378
F22.69474
I1
g1
(g5
S'\x03\x00\x00\x00'
p4004
tp4005
Rp4006
tp4007
a(F120.50491
F22.67996
I1
g1
(g5
S'\x03\x00\x00\x00'
p4008
tp4009
Rp4010
tp4011
a(F120.43998
F22.47542
I5
g1
(g5
S'\x01\x00\x00\x00'
p4012
tp4013
Rp4014
tp4015
a(F120.61374
F22.65698
I1
g1
(g5
S'\x06\x00\x00\x00'
p4016
tp4017
Rp4018
tp4019
a(F120.54065
F22.55851
I1
g1
(g5
S'\x00\x00\x00\x00'
p4020
tp4021
Rp4022
tp4023
a(F120.47987
F22.67785
I1
g1
(g5
S'\x03\x00\x00\x00'
p4024
tp4025
Rp4026
tp4027
a(F120.49255
F22.67888
I1
g1
(g5
S'\x03\x00\x00\x00'
p4028
tp4029
Rp4030
tp4031
a(F120.52112
F22.7001
I1
g1
(g5
S'\x03\x00\x00\x00'
p4032
tp4033
Rp4034
tp4035
a(F120.48644
F22.64944
I1
g1
(g5
S'\x03\x00\x00\x00'
p4036
tp4037
Rp4038
tp4039
a(F120.49714
F22.66921
I7
g1
(g5
S'\x03\x00\x00\x00'
p4040
tp4041
Rp4042
tp4043
a(F120.47381
F22.65492
I1
g1
(g5
S'\x03\x00\x00\x00'
p4044
tp4045
Rp4046
tp4047
a(F120.60952
F22.6287
I1
g1
(g5
S'\x00\x00\x00\x00'
p4048
tp4049
Rp4050
tp4051
a(F120.57166
F22.6702
I1
g1
(g5
S'\x06\x00\x00\x00'
p4052
tp4053
Rp4054
tp4055
a(F120.5077
F22.68421
I3
g1
(g5
S'\x03\x00\x00\x00'
p4056
tp4057
Rp4058
tp4059
a(F120.56735
F22.57731
I1
g1
(g5
S'\x00\x00\x00\x00'
p4060
tp4061
Rp4062
tp4063
a(F120.44946
F22.45586
I1
g1
(g5
S'\x01\x00\x00\x00'
p4064
tp4065
Rp4066
tp4067
a(F120.48315
F22.67965
I4
g1
(g5
S'\x03\x00\x00\x00'
p4068
tp4069
Rp4070
tp4071
a(F120.36595
F22.33138
I1
g1
(g5
S'\x01\x00\x00\x00'
p4072
tp4073
Rp4074
tp4075
a(F120.50846
F22.66206
I2
g1
(g5
S'\x03\x00\x00\x00'
p4076
tp4077
Rp4078
tp4079
a(F120.47862
F22.67937
I4
g1
(g5
S'\x03\x00\x00\x00'
p4080
tp4081
Rp4082
tp4083
a(F120.45737
F22.46307
I2
g1
(g5
S'\x01\x00\x00\x00'
p4084
tp4085
Rp4086
tp4087
a(F120.36475
F22.34488
I1
g1
(g5
S'\x01\x00\x00\x00'
p4088
tp4089
Rp4090
tp4091
a(F120.47438
F22.66774
I2
g1
(g5
S'\x03\x00\x00\x00'
p4092
tp4093
Rp4094
tp4095
a(F120.44879
F22.46565
I4
g1
(g5
S'\x01\x00\x00\x00'
p4096
tp4097
Rp4098
tp4099
a(F120.5949
F22.38429
I1
g1
(g5
S'\x05\x00\x00\x00'
p4100
tp4101
Rp4102
tp4103
a(F120.54388
F22.54878
I1
g1
(g5
S'\x00\x00\x00\x00'
p4104
tp4105
Rp4106
tp4107
a(F120.47078
F22.56151
I1
g1
(g5
S'\x00\x00\x00\x00'
p4108
tp4109
Rp4110
tp4111
a(F120.50677
F22.57243
I1
g1
(g5
S'\x00\x00\x00\x00'
p4112
tp4113
Rp4114
tp4115
a(F120.49267
F22.45689
I1
g1
(g5
S'\x01\x00\x00\x00'
p4116
tp4117
Rp4118
tp4119
a(F120.48491
F22.6712
I13
g1
(g5
S'\x03\x00\x00\x00'
p4120
tp4121
Rp4122
tp4123
a(F120.48654
F22.65103
I2
g1
(g5
S'\x03\x00\x00\x00'
p4124
tp4125
Rp4126
tp4127
a(F120.56172
F22.59875
I1
g1
(g5
S'\x00\x00\x00\x00'
p4128
tp4129
Rp4130
tp4131
a(F120.5391
F22.55105
I1
g1
(g5
S'\x00\x00\x00\x00'
p4132
tp4133
Rp4134
tp4135
a(F120.50916
F22.68392
I1
g1
(g5
S'\x03\x00\x00\x00'
p4136
tp4137
Rp4138
tp4139
a(F120.53981
F22.54836
I2
g1
(g5
S'\x00\x00\x00\x00'
p4140
tp4141
Rp4142
tp4143
a(F120.54908
F22.58572
I1
g1
(g5
S'\x00\x00\x00\x00'
p4144
tp4145
Rp4146
tp4147
a(F120.49157
F22.66983
I2
g1
(g5
S'\x03\x00\x00\x00'
p4148
tp4149
Rp4150
tp4151
a(F120.48972
F22.58947
I11
g1
(g5
S'\x00\x00\x00\x00'
p4152
tp4153
Rp4154
tp4155
a(F120.47538
F22.66997
I1
g1
(g5
S'\x03\x00\x00\x00'
p4156
tp4157
Rp4158
tp4159
a(F120.49455
F22.45599
I2
g1
(g5
S'\x01\x00\x00\x00'
p4160
tp4161
Rp4162
tp4163
a(F120.53835
F22.55049
I1
g1
(g5
S'\x00\x00\x00\x00'
p4164
tp4165
Rp4166
tp4167
a(F120.49199
F22.7776
I1
g1
(g5
S'\x06\x00\x00\x00'
p4168
tp4169
Rp4170
tp4171
a(F120.45051
F22.52874
I1
g1
(g5
S'\x01\x00\x00\x00'
p4172
tp4173
Rp4174
tp4175
a(F120.5319
F22.56239
I1
g1
(g5
S'\x00\x00\x00\x00'
p4176
tp4177
Rp4178
tp4179
a(F120.44817
F22.46328
I1
g1
(g5
S'\x01\x00\x00\x00'
p4180
tp4181
Rp4182
tp4183
a(F120.45249
F22.54572
I1
g1
(g5
S'\x00\x00\x00\x00'
p4184
tp4185
Rp4186
tp4187
a(F120.55965
F22.64566
I1
g1
(g5
S'\x00\x00\x00\x00'
p4188
tp4189
Rp4190
tp4191
a(F120.50942
F22.66449
I1
g1
(g5
S'\x03\x00\x00\x00'
p4192
tp4193
Rp4194
tp4195
a(F120.46079
F22.46485
I1
g1
(g5
S'\x01\x00\x00\x00'
p4196
tp4197
Rp4198
tp4199
a(F120.53832
F22.72141
I1
g1
(g5
S'\x06\x00\x00\x00'
p4200
tp4201
Rp4202
tp4203
a(F120.47696
F22.56642
I1
g1
(g5
S'\x00\x00\x00\x00'
p4204
tp4205
Rp4206
tp4207
a(F120.46771
F22.47871
I2
g1
(g5
S'\x01\x00\x00\x00'
p4208
tp4209
Rp4210
tp4211
a(F120.52161
F22.67143
I1
g1
(g5
S'\x03\x00\x00\x00'
p4212
tp4213
Rp4214
tp4215
a(F120.52884
F22.65799
I1
g1
(g5
S'\x03\x00\x00\x00'
p4216
tp4217
Rp4218
tp4219
a(F120.55436
F22.73638
I1
g1
(g5
S'\x06\x00\x00\x00'
p4220
tp4221
Rp4222
tp4223
a(F120.48823
F22.58741
I2
g1
(g5
S'\x00\x00\x00\x00'
p4224
tp4225
Rp4226
tp4227
a(F120.47679
F22.67037
I2
g1
(g5
S'\x03\x00\x00\x00'
p4228
tp4229
Rp4230
tp4231
a(F120.44496
F22.46073
I2
g1
(g5
S'\x01\x00\x00\x00'
p4232
tp4233
Rp4234
tp4235
a(F120.47907
F22.66797
I1
g1
(g5
S'\x03\x00\x00\x00'
p4236
tp4237
Rp4238
tp4239
a(F120.56904
F22.62952
I2
g1
(g5
S'\x00\x00\x00\x00'
p4240
tp4241
Rp4242
tp4243
a(F120.48992
F22.68279
I1
g1
(g5
S'\x03\x00\x00\x00'
p4244
tp4245
Rp4246
tp4247
a(F120.65142
F22.71447
I1
g1
(g5
S'\x06\x00\x00\x00'
p4248
tp4249
Rp4250
tp4251
a(F120.48388
F22.66863
I3
g1
(g5
S'\x03\x00\x00\x00'
p4252
tp4253
Rp4254
tp4255
a(F120.49171
F22.68338
I2
g1
(g5
S'\x03\x00\x00\x00'
p4256
tp4257
Rp4258
tp4259
a(F120.48044
F22.68124
I2
g1
(g5
S'\x03\x00\x00\x00'
p4260
tp4261
Rp4262
tp4263
a(F120.45713
F22.47033
I4
g1
(g5
S'\x01\x00\x00\x00'
p4264
tp4265
Rp4266
tp4267
a(F120.47308
F22.49769
I1
g1
(g5
S'\x01\x00\x00\x00'
p4268
tp4269
Rp4270
tp4271
a(F120.449
F22.46685
I6
g1
(g5
S'\x01\x00\x00\x00'
p4272
tp4273
Rp4274
tp4275
a(F120.50151
F22.66578
I1
g1
(g5
S'\x03\x00\x00\x00'
p4276
tp4277
Rp4278
tp4279
a(F120.44663
F22.45959
I1
g1
(g5
S'\x01\x00\x00\x00'
p4280
tp4281
Rp4282
tp4283
a(F120.54765
F22.55318
I1
g1
(g5
S'\x00\x00\x00\x00'
p4284
tp4285
Rp4286
tp4287
a(F120.32108
F22.62005
I1
g1
(g5
S'\x03\x00\x00\x00'
p4288
tp4289
Rp4290
tp4291
a(F120.4824
F22.56623
I1
g1
(g5
S'\x00\x00\x00\x00'
p4292
tp4293
Rp4294
tp4295
a(F120.50138
F22.69134
I1
g1
(g5
S'\x03\x00\x00\x00'
p4296
tp4297
Rp4298
tp4299
a(F120.50227
F22.67759
I1
g1
(g5
S'\x03\x00\x00\x00'
p4300
tp4301
Rp4302
tp4303
a(F120.54768
F22.6347
I1
g1
(g5
S'\x00\x00\x00\x00'
p4304
tp4305
Rp4306
tp4307
a(F120.81391
F21.96042
I2
g1
(g5
S'\x04\x00\x00\x00'
p4308
tp4309
Rp4310
tp4311
a(F120.47388
F22.68564
I1
g1
(g5
S'\x03\x00\x00\x00'
p4312
tp4313
Rp4314
tp4315
a(F120.52467
F22.64917
I1
g1
(g5
S'\x03\x00\x00\x00'
p4316
tp4317
Rp4318
tp4319
a(F120.49968
F22.67479
I1
g1
(g5
S'\x03\x00\x00\x00'
p4320
tp4321
Rp4322
tp4323
a(F120.46022
F22.58982
I1
g1
(g5
S'\x00\x00\x00\x00'
p4324
tp4325
Rp4326
tp4327
a(F120.46252
F22.46122
I2
g1
(g5
S'\x01\x00\x00\x00'
p4328
tp4329
Rp4330
tp4331
a(F120.48109
F22.6751
I1
g1
(g5
S'\x03\x00\x00\x00'
p4332
tp4333
Rp4334
tp4335
a(F120.47936
F22.67596
I1
g1
(g5
S'\x03\x00\x00\x00'
p4336
tp4337
Rp4338
tp4339
a(F120.48135
F22.68492
I1
g1
(g5
S'\x03\x00\x00\x00'
p4340
tp4341
Rp4342
tp4343
a(F120.48325
F22.66174
I1
g1
(g5
S'\x03\x00\x00\x00'
p4344
tp4345
Rp4346
tp4347
a(F120.4789
F22.67498
I6
g1
(g5
S'\x03\x00\x00\x00'
p4348
tp4349
Rp4350
tp4351
a(F120.48705
F22.58733
I1
g1
(g5
S'\x00\x00\x00\x00'
p4352
tp4353
Rp4354
tp4355
a(F120.62717
F22.42834
I6
g1
(g5
S'\x05\x00\x00\x00'
p4356
tp4357
Rp4358
tp4359
a(F120.47626
F22.76689
I1
g1
(g5
S'\x06\x00\x00\x00'
p4360
tp4361
Rp4362
tp4363
a(F120.50471
F22.6702
I2
g1
(g5
S'\x03\x00\x00\x00'
p4364
tp4365
Rp4366
tp4367
a(F120.74863
F22.00502
I1
g1
(g5
S'\x04\x00\x00\x00'
p4368
tp4369
Rp4370
tp4371
a(F120.50821
F22.67416
I1
g1
(g5
S'\x03\x00\x00\x00'
p4372
tp4373
Rp4374
tp4375
a(F120.4728
F22.68187
I1
g1
(g5
S'\x03\x00\x00\x00'
p4376
tp4377
Rp4378
tp4379
a(F120.52245
F22.68255
I1
g1
(g5
S'\x03\x00\x00\x00'
p4380
tp4381
Rp4382
tp4383
a(F120.50777
F22.53779
I1
g1
(g5
S'\x00\x00\x00\x00'
p4384
tp4385
Rp4386
tp4387
a(F120.46926
F22.47817
I1
g1
(g5
S'\x01\x00\x00\x00'
p4388
tp4389
Rp4390
tp4391
a(F120.52751
F22.65212
I1
g1
(g5
S'\x03\x00\x00\x00'
p4392
tp4393
Rp4394
tp4395
a(F120.54214
F22.65435
I1
g1
(g5
S'\x03\x00\x00\x00'
p4396
tp4397
Rp4398
tp4399
a(F120.50755
F22.68047
I1
g1
(g5
S'\x03\x00\x00\x00'
p4400
tp4401
Rp4402
tp4403
a(F120.4939
F22.42641
I1
g1
(g5
S'\x01\x00\x00\x00'
p4404
tp4405
Rp4406
tp4407
a(F120.49126
F22.67268
I3
g1
(g5
S'\x03\x00\x00\x00'
p4408
tp4409
Rp4410
tp4411
a(F120.50412
F22.68317
I1
g1
(g5
S'\x03\x00\x00\x00'
p4412
tp4413
Rp4414
tp4415
a(F120.49577
F22.6975
I1
g1
(g5
S'\x03\x00\x00\x00'
p4416
tp4417
Rp4418
tp4419
a(F120.54138
F22.55441
I1
g1
(g5
S'\x00\x00\x00\x00'
p4420
tp4421
Rp4422
tp4423
a(F120.46832
F22.46533
I1
g1
(g5
S'\x01\x00\x00\x00'
p4424
tp4425
Rp4426
tp4427
a(F120.51472
F22.66217
I1
g1
(g5
S'\x03\x00\x00\x00'
p4428
tp4429
Rp4430
tp4431
a(F120.44389
F22.45862
I1
g1
(g5
S'\x01\x00\x00\x00'
p4432
tp4433
Rp4434
tp4435
a(F120.53076
F22.62833
I1
g1
(g5
S'\x00\x00\x00\x00'
p4436
tp4437
Rp4438
tp4439
a(F120.49017
F22.59225
I2
g1
(g5
S'\x00\x00\x00\x00'
p4440
tp4441
Rp4442
tp4443
a(F120.49596
F22.77799
I1
g1
(g5
S'\x06\x00\x00\x00'
p4444
tp4445
Rp4446
tp4447
a(F120.46016
F22.49422
I1
g1
(g5
S'\x01\x00\x00\x00'
p4448
tp4449
Rp4450
tp4451
a(F120.51149
F22.59776
I1
g1
(g5
S'\x00\x00\x00\x00'
p4452
tp4453
Rp4454
tp4455
a(F120.5316
F22.45666
I1
g1
(g5
S'\x01\x00\x00\x00'
p4456
tp4457
Rp4458
tp4459
a(F120.74647
F22.00076
I1
g1
(g5
S'\x04\x00\x00\x00'
p4460
tp4461
Rp4462
tp4463
a(F120.49476
F22.63399
I1
g1
(g5
S'\x03\x00\x00\x00'
p4464
tp4465
Rp4466
tp4467
a(F120.4849
F22.55988
I1
g1
(g5
S'\x00\x00\x00\x00'
p4468
tp4469
Rp4470
tp4471
a(F120.66719
F22.68835
I1
g1
(g5
S'\x06\x00\x00\x00'
p4472
tp4473
Rp4474
tp4475
a(F120.46534
F22.48072
I2
g1
(g5
S'\x01\x00\x00\x00'
p4476
tp4477
Rp4478
tp4479
a(F120.50134
F22.67606
I1
g1
(g5
S'\x03\x00\x00\x00'
p4480
tp4481
Rp4482
tp4483
a(F120.47479
F22.67021
I1
g1
(g5
S'\x03\x00\x00\x00'
p4484
tp4485
Rp4486
tp4487
a(F120.47771
F22.68841
I1
g1
(g5
S'\x03\x00\x00\x00'
p4488
tp4489
Rp4490
tp4491
a(F120.44412
F22.46201
I1
g1
(g5
S'\x01\x00\x00\x00'
p4492
tp4493
Rp4494
tp4495
a(F120.49383
F22.67819
I1
g1
(g5
S'\x03\x00\x00\x00'
p4496
tp4497
Rp4498
tp4499
a(F120.58766
F22.73634
I1
g1
(g5
S'\x06\x00\x00\x00'
p4500
tp4501
Rp4502
tp4503
a(F120.48078
F22.67865
I4
g1
(g5
S'\x03\x00\x00\x00'
p4504
tp4505
Rp4506
tp4507
a(F120.48392
F22.48474
I1
g1
(g5
S'\x01\x00\x00\x00'
p4508
tp4509
Rp4510
tp4511
a(F120.49771
F22.77689
I1
g1
(g5
S'\x06\x00\x00\x00'
p4512
tp4513
Rp4514
tp4515
a(F120.5412
F22.69416
I1
g1
(g5
S'\x06\x00\x00\x00'
p4516
tp4517
Rp4518
tp4519
a(F120.50695
F22.67868
I1
g1
(g5
S'\x03\x00\x00\x00'
p4520
tp4521
Rp4522
tp4523
a(F120.50127
F22.68331
I1
g1
(g5
S'\x03\x00\x00\x00'
p4524
tp4525
Rp4526
tp4527
a(F120.49855
F22.58929
I1
g1
(g5
S'\x00\x00\x00\x00'
p4528
tp4529
Rp4530
tp4531
a(F120.47616
F22.68649
I2
g1
(g5
S'\x03\x00\x00\x00'
p4532
tp4533
Rp4534
tp4535
a(F120.49872
F22.67155
I2
g1
(g5
S'\x03\x00\x00\x00'
p4536
tp4537
Rp4538
tp4539
a(F120.61004
F22.59882
I1
g1
(g5
S'\x00\x00\x00\x00'
p4540
tp4541
Rp4542
tp4543
a(F120.53215
F22.46248
I1
g1
(g5
S'\x01\x00\x00\x00'
p4544
tp4545
Rp4546
tp4547
a(F120.4921
F22.67147
I4
g1
(g5
S'\x03\x00\x00\x00'
p4548
tp4549
Rp4550
tp4551
a(F120.4449
F22.4679
I2
g1
(g5
S'\x01\x00\x00\x00'
p4552
tp4553
Rp4554
tp4555
a(F120.4717
F22.68518
I1
g1
(g5
S'\x03\x00\x00\x00'
p4556
tp4557
Rp4558
tp4559
a(F120.48375
F22.68248
I1
g1
(g5
S'\x03\x00\x00\x00'
p4560
tp4561
Rp4562
tp4563
a(F120.47569
F22.68292
I1
g1
(g5
S'\x03\x00\x00\x00'
p4564
tp4565
Rp4566
tp4567
a(F120.62845
F22.42725
I2
g1
(g5
S'\x05\x00\x00\x00'
p4568
tp4569
Rp4570
tp4571
a(F120.43959
F22.47878
I6
g1
(g5
S'\x01\x00\x00\x00'
p4572
tp4573
Rp4574
tp4575
a(F120.49522
F22.6867
I1
g1
(g5
S'\x03\x00\x00\x00'
p4576
tp4577
Rp4578
tp4579
a(F120.47247
F22.63573
I1
g1
(g5
S'\x03\x00\x00\x00'
p4580
tp4581
Rp4582
tp4583
a(F120.47734
F22.6869
I1
g1
(g5
S'\x03\x00\x00\x00'
p4584
tp4585
Rp4586
tp4587
a(F120.44603
F22.46139
I2
g1
(g5
S'\x01\x00\x00\x00'
p4588
tp4589
Rp4590
tp4591
a(F120.48124
F22.49023
I1
g1
(g5
S'\x01\x00\x00\x00'
p4592
tp4593
Rp4594
tp4595
a(F120.48045
F22.66641
I2
g1
(g5
S'\x03\x00\x00\x00'
p4596
tp4597
Rp4598
tp4599
a(F120.48977
F22.69018
I1
g1
(g5
S'\x03\x00\x00\x00'
p4600
tp4601
Rp4602
tp4603
a(F120.46895
F22.65615
I1
g1
(g5
S'\x03\x00\x00\x00'
p4604
tp4605
Rp4606
tp4607
a(F120.4627
F22.66649
I1
g1
(g5
S'\x03\x00\x00\x00'
p4608
tp4609
Rp4610
tp4611
a(F120.533
F22.55
I1
g1
(g5
S'\x00\x00\x00\x00'
p4612
tp4613
Rp4614
tp4615
a(F120.47927
F22.67192
I1
g1
(g5
S'\x03\x00\x00\x00'
p4616
tp4617
Rp4618
tp4619
a(F120.48562
F22.68626
I1
g1
(g5
S'\x03\x00\x00\x00'
p4620
tp4621
Rp4622
tp4623
a(F120.49643
F22.6841
I2
g1
(g5
S'\x03\x00\x00\x00'
p4624
tp4625
Rp4626
tp4627
a(F120.53709
F22.54943
I1
g1
(g5
S'\x00\x00\x00\x00'
p4628
tp4629
Rp4630
tp4631
a(F120.4962
F22.68908
I2
g1
(g5
S'\x03\x00\x00\x00'
p4632
tp4633
Rp4634
tp4635
a(F120.50267
F22.67929
I1
g1
(g5
S'\x03\x00\x00\x00'
p4636
tp4637
Rp4638
tp4639
a(F120.51228
F22.68769
I1
g1
(g5
S'\x03\x00\x00\x00'
p4640
tp4641
Rp4642
tp4643
a(F120.5077
F22.69926
I1
g1
(g5
S'\x03\x00\x00\x00'
p4644
tp4645
Rp4646
tp4647
a(F120.49077
F22.5851
I3
g1
(g5
S'\x00\x00\x00\x00'
p4648
tp4649
Rp4650
tp4651
a(F120.48776
F22.66861
I1
g1
(g5
S'\x03\x00\x00\x00'
p4652
tp4653
Rp4654
tp4655
a(F120.49603
F22.68273
I2
g1
(g5
S'\x03\x00\x00\x00'
p4656
tp4657
Rp4658
tp4659
a(F120.48629
F22.43079
I1
g1
(g5
S'\x01\x00\x00\x00'
p4660
tp4661
Rp4662
tp4663
a(F120.48416
F22.67022
I2
g1
(g5
S'\x03\x00\x00\x00'
p4664
tp4665
Rp4666
tp4667
a(F120.53639
F22.53678
I1
g1
(g5
S'\x00\x00\x00\x00'
p4668
tp4669
Rp4670
tp4671
a(F120.47763
F22.67113
I1
g1
(g5
S'\x03\x00\x00\x00'
p4672
tp4673
Rp4674
tp4675
a(F120.44916
F22.46538
I6
g1
(g5
S'\x01\x00\x00\x00'
p4676
tp4677
Rp4678
tp4679
a(F120.7463
F22.00191
I1
g1
(g5
S'\x04\x00\x00\x00'
p4680
tp4681
Rp4682
tp4683
a(F120.5418
F22.67254
I1
g1
(g5
S'\x03\x00\x00\x00'
p4684
tp4685
Rp4686
tp4687
a(F120.50634
F22.42187
I1
g1
(g5
S'\x01\x00\x00\x00'
p4688
tp4689
Rp4690
tp4691
a(F120.50584
F22.75871
I1
g1
(g5
S'\x06\x00\x00\x00'
p4692
tp4693
Rp4694
tp4695
a(F120.58118
F22.63983
I1
g1
(g5
S'\x00\x00\x00\x00'
p4696
tp4697
Rp4698
tp4699
a(F120.52779
F22.75891
I1
g1
(g5
S'\x06\x00\x00\x00'
p4700
tp4701
Rp4702
tp4703
a(F120.48267
F22.56267
I1
g1
(g5
S'\x00\x00\x00\x00'
p4704
tp4705
Rp4706
tp4707
a(F120.48761
F22.65018
I1
g1
(g5
S'\x03\x00\x00\x00'
p4708
tp4709
Rp4710
tp4711
a(F120.53384
F22.55137
I1
g1
(g5
S'\x00\x00\x00\x00'
p4712
tp4713
Rp4714
tp4715
a(F120.44516
F22.46302
I1
g1
(g5
S'\x01\x00\x00\x00'
p4716
tp4717
Rp4718
tp4719
a(F120.47805
F22.6729
I2
g1
(g5
S'\x03\x00\x00\x00'
p4720
tp4721
Rp4722
tp4723
a(F120.51285
F22.73891
I1
g1
(g5
S'\x06\x00\x00\x00'
p4724
tp4725
Rp4726
tp4727
a(F120.47997
F22.67975
I1
g1
(g5
S'\x03\x00\x00\x00'
p4728
tp4729
Rp4730
tp4731
a(F120.60128
F22.68694
I1
g1
(g5
S'\x06\x00\x00\x00'
p4732
tp4733
Rp4734
tp4735
a(F120.49845
F22.68797
I1
g1
(g5
S'\x03\x00\x00\x00'
p4736
tp4737
Rp4738
tp4739
a(F120.51094
F22.65323
I1
g1
(g5
S'\x03\x00\x00\x00'
p4740
tp4741
Rp4742
tp4743
a(F120.50718
F22.80951
I1
g1
(g5
S'\x06\x00\x00\x00'
p4744
tp4745
Rp4746
tp4747
a.