(lp0
(F120.7905
F24.27153
I1
cnumpy.core.multiarray
scalar
p1
(cnumpy
dtype
p2
(S'i4'
p3
I0
I1
tp4
Rp5
(I3
S'<'
p6
NNNI-1
I-1
I0
tp7
bS'\x03\x00\x00\x00'
p8
tp9
Rp10
tp11
a(F120.5571
F24.23485
I1
g1
(g5
S'\x05\x00\x00\x00'
p12
tp13
Rp14
tp15
a(F120.33522
F22.6024
I1
g1
(g5
S'\x02\x00\x00\x00'
p16
tp17
Rp18
tp19
a(F120.60865
F24.1811
I2
g1
(g5
S'\x05\x00\x00\x00'
p20
tp21
Rp22
tp23
a(F120.65274
F24.16136
I1
g1
(g5
S'\x00\x00\x00\x00'
p24
tp25
Rp26
tp27
a(F120.6686
F24.15982
I1
g1
(g5
S'\x00\x00\x00\x00'
p28
tp29
Rp30
tp31
a(F120.75238
F24.27461
I1
g1
(g5
S'\x03\x00\x00\x00'
p32
tp33
Rp34
tp35
a(F120.74365
F24.15707
I1
g1
(g5
S'\x00\x00\x00\x00'
p36
tp37
Rp38
tp39
a(F120.66238
F24.15065
I1
g1
(g5
S'\x00\x00\x00\x00'
p40
tp41
Rp42
tp43
a(F120.67429
F24.16786
I1
g1
(g5
S'\x00\x00\x00\x00'
p44
tp45
Rp46
tp47
a(F120.63661
F24.18198
I1
g1
(g5
S'\x05\x00\x00\x00'
p48
tp49
Rp50
tp51
a(F120.5366
F24.26124
I1
g1
(g5
S'\x05\x00\x00\x00'
p52
tp53
Rp54
tp55
a(F120.68623
F24.09677
I1
g1
(g5
S'\x00\x00\x00\x00'
p56
tp57
Rp58
tp59
a(F120.617
F24.133
I1
g1
(g5
S'\x05\x00\x00\x00'
p60
tp61
Rp62
tp63
a(F120.69835
F24.16903
I1
g1
(g5
S'\x00\x00\x00\x00'
p64
tp65
Rp66
tp67
a(F120.67599
F24.15244
I1
g1
(g5
S'\x00\x00\x00\x00'
p68
tp69
Rp70
tp71
a(F120.57435
F24.27154
I1
g1
(g5
S'\x04\x00\x00\x00'
p72
tp73
Rp74
tp75
a(F120.56517
F24.30689
I1
g1
(g5
S'\x04\x00\x00\x00'
p76
tp77
Rp78
tp79
a(F120.6799
F24.17153
I1
g1
(g5
S'\x00\x00\x00\x00'
p80
tp81
Rp82
tp83
a(F120.59101
F24.34817
I1
g1
(g5
S'\x04\x00\x00\x00'
p84
tp85
Rp86
tp87
a(F120.83787
F24.20568
I1
g1
(g5
S'\x03\x00\x00\x00'
p88
tp89
Rp90
tp91
a(F120.68057
F24.15215
I1
g1
(g5
S'\x00\x00\x00\x00'
p92
tp93
Rp94
tp95
a(F120.6595
F24.14034
I1
g1
(g5
S'\x00\x00\x00\x00'
p96
tp97
Rp98
tp99
a(F120.5915
F24.13534
I1
g1
(g5
S'\x05\x00\x00\x00'
p100
tp101
Rp102
tp103
a(F120.65889
F24.1693
I1
g1
(g5
S'\x00\x00\x00\x00'
p104
tp105
Rp106
tp107
a(F120.66876
F24.1397
I1
g1
(g5
S'\x00\x00\x00\x00'
p108
tp109
Rp110
tp111
a(F120.67187
F24.16419
I1
g1
(g5
S'\x00\x00\x00\x00'
p112
tp113
Rp114
tp115
a(F120.66681
F24.16227
I1
g1
(g5
S'\x00\x00\x00\x00'
p116
tp117
Rp118
tp119
a(F120.55519
F24.27788
I1
g1
(g5
S'\x04\x00\x00\x00'
p120
tp121
Rp122
tp123
a(F120.6402
F24.17795
I1
g1
(g5
S'\x05\x00\x00\x00'
p124
tp125
Rp126
tp127
a(F120.68273
F24.1722
I1
g1
(g5
S'\x00\x00\x00\x00'
p128
tp129
Rp130
tp131
a(F120.61884
F24.18629
I1
g1
(g5
S'\x05\x00\x00\x00'
p132
tp133
Rp134
tp135
a(F120.57099
F24.21239
I1
g1
(g5
S'\x05\x00\x00\x00'
p136
tp137
Rp138
tp139
a(F120.72544
F24.25388
I1
g1
(g5
S'\x03\x00\x00\x00'
p140
tp141
Rp142
tp143
a(F120.68298
F24.16275
I1
g1
(g5
S'\x00\x00\x00\x00'
p144
tp145
Rp146
tp147
a(F120.72034
F24.26877
I1
g1
(g5
S'\x03\x00\x00\x00'
p148
tp149
Rp150
tp151
a(F120.66503
F24.15337
I1
g1
(g5
S'\x00\x00\x00\x00'
p152
tp153
Rp154
tp155
a(F120.64219
F24.13542
I1
g1
(g5
S'\x00\x00\x00\x00'
p156
tp157
Rp158
tp159
a(F120.6188
F24.19166
I1
g1
(g5
S'\x05\x00\x00\x00'
p160
tp161
Rp162
tp163
a(F120.66775
F24.11804
I1
g1
(g5
S'\x00\x00\x00\x00'
p164
tp165
Rp166
tp167
a(F120.66067
F24.23062
I1
g1
(g5
S'\x05\x00\x00\x00'
p168
tp169
Rp170
tp171
a(F120.54919
F24.2094
I2
g1
(g5
S'\x05\x00\x00\x00'
p172
tp173
Rp174
tp175
a(F120.67394
F24.13534
I1
g1
(g5
S'\x00\x00\x00\x00'
p176
tp177
Rp178
tp179
a(F120.67917
F24.13716
I1
g1
(g5
S'\x00\x00\x00\x00'
p180
tp181
Rp182
tp183
a(F120.73179
F24.1419
I1
g1
(g5
S'\x00\x00\x00\x00'
p184
tp185
Rp186
tp187
a(F120.64186
F24.19363
I1
g1
(g5
S'\x05\x00\x00\x00'
p188
tp189
Rp190
tp191
a(F120.70856
F24.17496
I2
g1
(g5
S'\x00\x00\x00\x00'
p192
tp193
Rp194
tp195
a(F120.6265
F24.1795
I1
g1
(g5
S'\x05\x00\x00\x00'
p196
tp197
Rp198
tp199
a(F120.70298
F24.1063
I1
g1
(g5
S'\x00\x00\x00\x00'
p200
tp201
Rp202
tp203
a(F120.62231
F24.19835
I1
g1
(g5
S'\x05\x00\x00\x00'
p204
tp205
Rp206
tp207
a(F120.6988
F24.25399
I1
g1
(g5
S'\x03\x00\x00\x00'
p208
tp209
Rp210
tp211
a(F120.74386
F24.1968
I2
g1
(g5
S'\x03\x00\x00\x00'
p212
tp213
Rp214
tp215
a(F120.31606
F22.58967
I1
g1
(g5
S'\x02\x00\x00\x00'
p216
tp217
Rp218
tp219
a(F120.67971
F24.16575
I1
g1
(g5
S'\x00\x00\x00\x00'
p220
tp221
Rp222
tp223
a(F120.63663
F24.07498
I1
g1
(g5
S'\x00\x00\x00\x00'
p224
tp225
Rp226
tp227
a(F120.83953
F24.2559
I1
g1
(g5
S'\x03\x00\x00\x00'
p228
tp229
Rp230
tp231
a(F120.66236
F24.14939
I1
g1
(g5
S'\x00\x00\x00\x00'
p232
tp233
Rp234
tp235
a(F120.6493
F24.11284
I1
g1
(g5
S'\x00\x00\x00\x00'
p236
tp237
Rp238
tp239
a(F120.72601
F24.30128
I1
g1
(g5
S'\x03\x00\x00\x00'
p240
tp241
Rp242
tp243
a(F120.6818
F24.1534
I1
g1
(g5
S'\x00\x00\x00\x00'
p244
tp245
Rp246
tp247
a(F120.67556
F24.17302
I1
g1
(g5
S'\x00\x00\x00\x00'
p248
tp249
Rp250
tp251
a(F120.73549
F24.31184
I1
g1
(g5
S'\x03\x00\x00\x00'
p252
tp253
Rp254
tp255
a(F120.68211
F24.14186
I1
g1
(g5
S'\x00\x00\x00\x00'
p256
tp257
Rp258
tp259
a(F120.54366
F24.17037
I1
g1
(g5
S'\x05\x00\x00\x00'
p260
tp261
Rp262
tp263
a(F120.63721
F24.11065
I1
g1
(g5
S'\x00\x00\x00\x00'
p264
tp265
Rp266
tp267
a(F120.8
F24.25
I1
g1
(g5
S'\x03\x00\x00\x00'
p268
tp269
Rp270
tp271
a(F120.67612
F24.12864
I1
g1
(g5
S'\x00\x00\x00\x00'
p272
tp273
Rp274
tp275
a(F120.67651
F24.14123
I1
g1
(g5
S'\x00\x00\x00\x00'
p276
tp277
Rp278
tp279
a(F120.59205
F24.17466
I1
g1
(g5
S'\x05\x00\x00\x00'
p280
tp281
Rp282
tp283
a(F120.64059
F24.10738
I1
g1
(g5
S'\x00\x00\x00\x00'
p284
tp285
Rp286
tp287
a(F120.5637
F24.24736
I1
g1
(g5
S'\x05\x00\x00\x00'
p288
tp289
Rp290
tp291
a(F120.59075
F24.11296
I1
g1
(g5
S'\x05\x00\x00\x00'
p292
tp293
Rp294
tp295
a(F120.66327
F24.2328
I1
g1
(g5
S'\x05\x00\x00\x00'
p296
tp297
Rp298
tp299
a(F120.63915
F24.16176
I1
g1
(g5
S'\x05\x00\x00\x00'
p300
tp301
Rp302
tp303
a(F120.68024
F24.15869
I1
g1
(g5
S'\x00\x00\x00\x00'
p304
tp305
Rp306
tp307
a(F120.69645
F24.17308
I1
g1
(g5
S'\x00\x00\x00\x00'
p308
tp309
Rp310
tp311
a(F120.64479
F24.13568
I1
g1
(g5
S'\x00\x00\x00\x00'
p312
tp313
Rp314
tp315
a(F120.67818
F24.12732
I1
g1
(g5
S'\x00\x00\x00\x00'
p316
tp317
Rp318
tp319
a(F120.61716
F24.18819
I1
g1
(g5
S'\x05\x00\x00\x00'
p320
tp321
Rp322
tp323
a(F120.52895
F24.14704
I1
g1
(g5
S'\x05\x00\x00\x00'
p324
tp325
Rp326
tp327
a(F120.72493
F24.17663
I1
g1
(g5
S'\x00\x00\x00\x00'
p328
tp329
Rp330
tp331
a(F120.65023
F24.14862
I1
g1
(g5
S'\x00\x00\x00\x00'
p332
tp333
Rp334
tp335
a(F120.63803
F24.14626
I1
g1
(g5
S'\x00\x00\x00\x00'
p336
tp337
Rp338
tp339
a(F120.71314
F24.07181
I1
g1
(g5
S'\x00\x00\x00\x00'
p340
tp341
Rp342
tp343
a(F120.71863
F24.11974
I1
g1
(g5
S'\x00\x00\x00\x00'
p344
tp345
Rp346
tp347
a(F120.70018
F24.06887
I1
g1
(g5
S'\x00\x00\x00\x00'
p348
tp349
Rp350
tp351
a(F120.66096
F24.11851
I1
g1
(g5
S'\x00\x00\x00\x00'
p352
tp353
Rp354
tp355
a(F120.63216
F24.13897
I1
g1
(g5
S'\x00\x00\x00\x00'
p356
tp357
Rp358
tp359
a(F120.64951
F24.17557
I1
g1
(g5
S'\x05\x00\x00\x00'
p360
tp361
Rp362
tp363
a(F120.67326
F24.16574
I1
g1
(g5
S'\x00\x00\x00\x00'
p364
tp365
Rp366
tp367
a(F120.62064
F24.42614
I1
g1
(g5
S'\x04\x00\x00\x00'
p368
tp369
Rp370
tp371
a(F120.69236
F24.1267
I1
g1
(g5
S'\x00\x00\x00\x00'
p372
tp373
Rp374
tp375
a(F120.59822
F24.14036
I2
g1
(g5
S'\x05\x00\x00\x00'
p376
tp377
Rp378
tp379
a(F120.58057
F24.22735
I1
g1
(g5
S'\x05\x00\x00\x00'
p380
tp381
Rp382
tp383
a(F120.60457
F24.2042
I1
g1
(g5
S'\x05\x00\x00\x00'
p384
tp385
Rp386
tp387
a(F120.73141
F24.23414
I1
g1
(g5
S'\x03\x00\x00\x00'
p388
tp389
Rp390
tp391
a(F120.65943
F24.16654
I1
g1
(g5
S'\x00\x00\x00\x00'
p392
tp393
Rp394
tp395
a(F120.64349
F24.13508
I1
g1
(g5
S'\x00\x00\x00\x00'
p396
tp397
Rp398
tp399
a(F120.66308
F24.16548
I1
g1
(g5
S'\x00\x00\x00\x00'
p400
tp401
Rp402
tp403
a(F120.72186
F24.25022
I1
g1
(g5
S'\x03\x00\x00\x00'
p404
tp405
Rp406
tp407
a(F120.67261
F24.14215
I1
g1
(g5
S'\x00\x00\x00\x00'
p408
tp409
Rp410
tp411
a(F120.64318
F24.17588
I1
g1
(g5
S'\x05\x00\x00\x00'
p412
tp413
Rp414
tp415
a(F120.72507
F24.30929
I1
g1
(g5
S'\x03\x00\x00\x00'
p416
tp417
Rp418
tp419
a(F120.63502
F24.16834
I1
g1
(g5
S'\x05\x00\x00\x00'
p420
tp421
Rp422
tp423
a(F120.67127
F24.1647
I1
g1
(g5
S'\x00\x00\x00\x00'
p424
tp425
Rp426
tp427
a(F120.70038
F24.10579
I1
g1
(g5
S'\x00\x00\x00\x00'
p428
tp429
Rp430
tp431
a(F120.70421
F24.15052
I1
g1
(g5
S'\x00\x00\x00\x00'
p432
tp433
Rp434
tp435
a(F120.6525
F24.21034
I1
g1
(g5
S'\x05\x00\x00\x00'
p436
tp437
Rp438
tp439
a(F120.69124
F24.24694
I1
g1
(g5
S'\x03\x00\x00\x00'
p440
tp441
Rp442
tp443
a(F120.60845
F24.19259
I1
g1
(g5
S'\x05\x00\x00\x00'
p444
tp445
Rp446
tp447
a(F120.82997
F24.25039
I1
g1
(g5
S'\x03\x00\x00\x00'
p448
tp449
Rp450
tp451
a(F120.6503
F24.15846
I1
g1
(g5
S'\x00\x00\x00\x00'
p452
tp453
Rp454
tp455
a(F120.61916
F24.35475
I1
g1
(g5
S'\x04\x00\x00\x00'
p456
tp457
Rp458
tp459
a(F120.70491
F24.21197
I1
g1
(g5
S'\x03\x00\x00\x00'
p460
tp461
Rp462
tp463
a(F120.65745
F24.16418
I1
g1
(g5
S'\x00\x00\x00\x00'
p464
tp465
Rp466
tp467
a(F120.66656
F24.0351
I1
g1
(g5
S'\x00\x00\x00\x00'
p468
tp469
Rp470
tp471
a(F120.69152
F24.17443
I2
g1
(g5
S'\x00\x00\x00\x00'
p472
tp473
Rp474
tp475
a(F120.69621
F24.0613
I1
g1
(g5
S'\x00\x00\x00\x00'
p476
tp477
Rp478
tp479
a(F120.67711
F24.18904
I1
g1
(g5
S'\x00\x00\x00\x00'
p480
tp481
Rp482
tp483
a(F120.70769
F24.23922
I1
g1
(g5
S'\x03\x00\x00\x00'
p484
tp485
Rp486
tp487
a(F120.62448
F24.18321
I1
g1
(g5
S'\x05\x00\x00\x00'
p488
tp489
Rp490
tp491
a(F120.53023
F24.19364
I1
g1
(g5
S'\x05\x00\x00\x00'
p492
tp493
Rp494
tp495
a(F120.73479
F24.05997
I1
g1
(g5
S'\x00\x00\x00\x00'
p496
tp497
Rp498
tp499
a(F120.73681
F24.11464
I1
g1
(g5
S'\x00\x00\x00\x00'
p500
tp501
Rp502
tp503
a(F120.6965
F24.1903
I1
g1
(g5
S'\x00\x00\x00\x00'
p504
tp505
Rp506
tp507
a(F120.64024
F24.18178
I1
g1
(g5
S'\x05\x00\x00\x00'
p508
tp509
Rp510
tp511
a(F120.67167
F24.02588
I1
g1
(g5
S'\x00\x00\x00\x00'
p512
tp513
Rp514
tp515
a(F120.68836
F24.16744
I1
g1
(g5
S'\x00\x00\x00\x00'
p516
tp517
Rp518
tp519
a(F120.55662
F24.22915
I2
g1
(g5
S'\x05\x00\x00\x00'
p520
tp521
Rp522
tp523
a(F120.667
F24.1
I1
g1
(g5
S'\x00\x00\x00\x00'
p524
tp525
Rp526
tp527
a(F120.71172
F24.24798
I1
g1
(g5
S'\x03\x00\x00\x00'
p528
tp529
Rp530
tp531
a(F120.67939
F24.17433
I1
g1
(g5
S'\x00\x00\x00\x00'
p532
tp533
Rp534
tp535
a(F120.72598
F24.31529
I1
g1
(g5
S'\x03\x00\x00\x00'
p536
tp537
Rp538
tp539
a(F120.5764
F24.17502
I1
g1
(g5
S'\x05\x00\x00\x00'
p540
tp541
Rp542
tp543
a(F120.54163
F24.26563
I1
g1
(g5
S'\x05\x00\x00\x00'
p544
tp545
Rp546
tp547
a(F120.60604
F24.10972
I1
g1
(g5
S'\x00\x00\x00\x00'
p548
tp549
Rp550
tp551
a(F120.65587
F24.15184
I1
g1
(g5
S'\x00\x00\x00\x00'
p552
tp553
Rp554
tp555
a(F120.67827
F24.1297
I1
g1
(g5
S'\x00\x00\x00\x00'
p556
tp557
Rp558
tp559
a(F120.71674
F24.14788
I1
g1
(g5
S'\x00\x00\x00\x00'
p560
tp561
Rp562
tp563
a(F120.64167
F24.17228
I1
g1
(g5
S'\x05\x00\x00\x00'
p564
tp565
Rp566
tp567
a(F120.7017
F24.06673
I1
g1
(g5
S'\x00\x00\x00\x00'
p568
tp569
Rp570
tp571
a(F120.70213
F24.14238
I2
g1
(g5
S'\x00\x00\x00\x00'
p572
tp573
Rp574
tp575
a(F121.21664
F24.96495
I1
g1
(g5
S'\x01\x00\x00\x00'
p576
tp577
Rp578
tp579
a(F120.72394
F24.1532
I1
g1
(g5
S'\x00\x00\x00\x00'
p580
tp581
Rp582
tp583
a(F120.66314
F24.21289
I2
g1
(g5
S'\x05\x00\x00\x00'
p584
tp585
Rp586
tp587
a(F120.57243
F24.20157
I1
g1
(g5
S'\x05\x00\x00\x00'
p588
tp589
Rp590
tp591
a(F120.70916
F24.24345
I1
g1
(g5
S'\x03\x00\x00\x00'
p592
tp593
Rp594
tp595
a(F120.62156
F24.18487
I1
g1
(g5
S'\x05\x00\x00\x00'
p596
tp597
Rp598
tp599
a(F120.68922
F24.15537
I1
g1
(g5
S'\x00\x00\x00\x00'
p600
tp601
Rp602
tp603
a(F120.60903
F24.35173
I1
g1
(g5
S'\x04\x00\x00\x00'
p604
tp605
Rp606
tp607
a(F121.31589
F24.98005
I1
g1
(g5
S'\x01\x00\x00\x00'
p608
tp609
Rp610
tp611
a(F120.68198
F24.1213
I1
g1
(g5
S'\x00\x00\x00\x00'
p612
tp613
Rp614
tp615
a(F120.68083
F24.16572
I1
g1
(g5
S'\x00\x00\x00\x00'
p616
tp617
Rp618
tp619
a(F120.72637
F24.25603
I1
g1
(g5
S'\x03\x00\x00\x00'
p620
tp621
Rp622
tp623
a(F120.54139
F24.15339
I1
g1
(g5
S'\x05\x00\x00\x00'
p624
tp625
Rp626
tp627
a(F120.72149
F24.13054
I1
g1
(g5
S'\x00\x00\x00\x00'
p628
tp629
Rp630
tp631
a(F120.68313
F24.17422
I1
g1
(g5
S'\x00\x00\x00\x00'
p632
tp633
Rp634
tp635
a(F120.73782
F24.25068
I1
g1
(g5
S'\x03\x00\x00\x00'
p636
tp637
Rp638
tp639
a(F120.69615
F24.17386
I1
g1
(g5
S'\x00\x00\x00\x00'
p640
tp641
Rp642
tp643
a(F120.71872
F24.11767
I1
g1
(g5
S'\x00\x00\x00\x00'
p644
tp645
Rp646
tp647
a(F120.70707
F24.2018
I1
g1
(g5
S'\x03\x00\x00\x00'
p648
tp649
Rp650
tp651
a(F120.70091
F24.10776
I1
g1
(g5
S'\x00\x00\x00\x00'
p652
tp653
Rp654
tp655
a(F120.67891
F24.1598
I1
g1
(g5
S'\x00\x00\x00\x00'
p656
tp657
Rp658
tp659
a(F120.7201
F24.0787
I1
g1
(g5
S'\x00\x00\x00\x00'
p660
tp661
Rp662
tp663
a(F120.72343
F24.22352
I1
g1
(g5
S'\x03\x00\x00\x00'
p664
tp665
Rp666
tp667
a(F120.69962
F24.18328
I1
g1
(g5
S'\x00\x00\x00\x00'
p668
tp669
Rp670
tp671
a(F120.7129
F24.23066
I1
g1
(g5
S'\x03\x00\x00\x00'
p672
tp673
Rp674
tp675
a(F120.52933
F24.21491
I1
g1
(g5
S'\x05\x00\x00\x00'
p676
tp677
Rp678
tp679
a(F120.70434
F24.10955
I1
g1
(g5
S'\x00\x00\x00\x00'
p680
tp681
Rp682
tp683
a(F120.6996
F24.16684
I1
g1
(g5
S'\x00\x00\x00\x00'
p684
tp685
Rp686
tp687
a(F120.63301
F24.22946
I1
g1
(g5
S'\x05\x00\x00\x00'
p688
tp689
Rp690
tp691
a(F120.68271
F24.17732
I1
g1
(g5
S'\x00\x00\x00\x00'
p692
tp693
Rp694
tp695
a(F120.66883
F24.14274
I1
g1
(g5
S'\x00\x00\x00\x00'
p696
tp697
Rp698
tp699
a(F120.56805
F24.24371
I1
g1
(g5
S'\x05\x00\x00\x00'
p700
tp701
Rp702
tp703
a(F120.64557
F24.18247
I2
g1
(g5
S'\x05\x00\x00\x00'
p704
tp705
Rp706
tp707
a(F120.66702
F24.18437
I1
g1
(g5
S'\x00\x00\x00\x00'
p708
tp709
Rp710
tp711
a(F120.66793
F24.12333
I1
g1
(g5
S'\x00\x00\x00\x00'
p712
tp713
Rp714
tp715
a(F120.71946
F24.30852
I1
g1
(g5
S'\x03\x00\x00\x00'
p716
tp717
Rp718
tp719
a(F120.64727
F24.14921
I1
g1
(g5
S'\x00\x00\x00\x00'
p720
tp721
Rp722
tp723
a(F120.71114
F24.31009
I3
g1
(g5
S'\x03\x00\x00\x00'
p724
tp725
Rp726
tp727
a(F120.65645
F24.10871
I1
g1
(g5
S'\x00\x00\x00\x00'
p728
tp729
Rp730
tp731
a(F121.50978
F25.04618
I1
g1
(g5
S'\x01\x00\x00\x00'
p732
tp733
Rp734
tp735
a(F120.65853
F24.23272
I1
g1
(g5
S'\x05\x00\x00\x00'
p736
tp737
Rp738
tp739
a(F120.72038
F24.24632
I1
g1
(g5
S'\x03\x00\x00\x00'
p740
tp741
Rp742
tp743
a(F120.672
F24.14556
I1
g1
(g5
S'\x00\x00\x00\x00'
p744
tp745
Rp746
tp747
a(F120.65675
F24.1312
I1
g1
(g5
S'\x00\x00\x00\x00'
p748
tp749
Rp750
tp751
a(F120.53537
F24.15359
I1
g1
(g5
S'\x05\x00\x00\x00'
p752
tp753
Rp754
tp755
a(F120.71707
F24.24197
I1
g1
(g5
S'\x03\x00\x00\x00'
p756
tp757
Rp758
tp759
a(F120.60811
F24.16978
I2
g1
(g5
S'\x05\x00\x00\x00'
p760
tp761
Rp762
tp763
a(F120.6353
F24.15506
I1
g1
(g5
S'\x05\x00\x00\x00'
p764
tp765
Rp766
tp767
a(F120.71748
F24.03618
I1
g1
(g5
S'\x00\x00\x00\x00'
p768
tp769
Rp770
tp771
a(F120.62383
F24.35211
I1
g1
(g5
S'\x04\x00\x00\x00'
p772
tp773
Rp774
tp775
a(F120.68286
F24.15036
I1
g1
(g5
S'\x00\x00\x00\x00'
p776
tp777
Rp778
tp779
a(F120.67677
F24.25556
I1
g1
(g5
S'\x03\x00\x00\x00'
p780
tp781
Rp782
tp783
a(F120.7487
F24.14718
I1
g1
(g5
S'\x00\x00\x00\x00'
p784
tp785
Rp786
tp787
a(F120.68645
F24.17353
I1
g1
(g5
S'\x00\x00\x00\x00'
p788
tp789
Rp790
tp791
a(F120.71351
F24.14363
I1
g1
(g5
S'\x00\x00\x00\x00'
p792
tp793
Rp794
tp795
a(F120.72775
F24.15337
I1
g1
(g5
S'\x00\x00\x00\x00'
p796
tp797
Rp798
tp799
a(F120.72124
F24.10592
I1
g1
(g5
S'\x00\x00\x00\x00'
p800
tp801
Rp802
tp803
a(F120.56624
F24.123
I2
g1
(g5
S'\x05\x00\x00\x00'
p804
tp805
Rp806
tp807
a(F120.67448
F24.16214
I1
g1
(g5
S'\x00\x00\x00\x00'
p808
tp809
Rp810
tp811
a(F120.72283
F24.252
I1
g1
(g5
S'\x03\x00\x00\x00'
p812
tp813
Rp814
tp815
a(F120.63365
F24.28079
I1
g1
(g5
S'\x04\x00\x00\x00'
p816
tp817
Rp818
tp819
a(F120.67845
F24.14165
I1
g1
(g5
S'\x00\x00\x00\x00'
p820
tp821
Rp822
tp823
a(F120.64587
F24.16861
I1
g1
(g5
S'\x05\x00\x00\x00'
p824
tp825
Rp826
tp827
a(F120.64915
F24.13405
I1
g1
(g5
S'\x00\x00\x00\x00'
p828
tp829
Rp830
tp831
a(F120.63945
F24.11144
I2
g1
(g5
S'\x00\x00\x00\x00'
p832
tp833
Rp834
tp835
a(F120.71109
F24.1709
I1
g1
(g5
S'\x00\x00\x00\x00'
p836
tp837
Rp838
tp839
a(F120.67448
F24.17343
I1
g1
(g5
S'\x00\x00\x00\x00'
p840
tp841
Rp842
tp843
a(F120.81464
F24.12094
I1
g1
(g5
S'\x00\x00\x00\x00'
p844
tp845
Rp846
tp847
a(F120.63272
F24.35706
I1
g1
(g5
S'\x04\x00\x00\x00'
p848
tp849
Rp850
tp851
a(F120.68779
F24.13134
I1
g1
(g5
S'\x00\x00\x00\x00'
p852
tp853
Rp854
tp855
a(F120.65657
F24.11573
I1
g1
(g5
S'\x00\x00\x00\x00'
p856
tp857
Rp858
tp859
a(F120.70832
F24.20277
I1
g1
(g5
S'\x03\x00\x00\x00'
p860
tp861
Rp862
tp863
a(F120.71484
F24.24876
I2
g1
(g5
S'\x03\x00\x00\x00'
p864
tp865
Rp866
tp867
a(F120.70292
F24.077
I2
g1
(g5
S'\x00\x00\x00\x00'
p868
tp869
Rp870
tp871
a(F120.65197
F24.06656
I1
g1
(g5
S'\x00\x00\x00\x00'
p872
tp873
Rp874
tp875
a(F120.58692
F24.28766
I1
g1
(g5
S'\x04\x00\x00\x00'
p876
tp877
Rp878
tp879
a(F120.6278
F24.12024
I1
g1
(g5
S'\x00\x00\x00\x00'
p880
tp881
Rp882
tp883
a(F120.75103
F24.16365
I1
g1
(g5
S'\x00\x00\x00\x00'
p884
tp885
Rp886
tp887
a(F120.66535
F24.33747
I1
g1
(g5
S'\x04\x00\x00\x00'
p888
tp889
Rp890
tp891
a(F120.69515
F24.26
I2
g1
(g5
S'\x03\x00\x00\x00'
p892
tp893
Rp894
tp895
a(F120.62851
F24.18664
I1
g1
(g5
S'\x05\x00\x00\x00'
p896
tp897
Rp898
tp899
a(F120.77386
F24.21839
I1
g1
(g5
S'\x03\x00\x00\x00'
p900
tp901
Rp902
tp903
a(F120.71348
F24.25129
I1
g1
(g5
S'\x03\x00\x00\x00'
p904
tp905
Rp906
tp907
a(F120.65678
F24.14229
I1
g1
(g5
S'\x00\x00\x00\x00'
p908
tp909
Rp910
tp911
a(F120.67045
F24.14132
I1
g1
(g5
S'\x00\x00\x00\x00'
p912
tp913
Rp914
tp915
a(F120.57104
F24.20566
I1
g1
(g5
S'\x05\x00\x00\x00'
p916
tp917
Rp918
tp919
a(F120.65737
F24.21161
I1
g1
(g5
S'\x05\x00\x00\x00'
p920
tp921
Rp922
tp923
a(F120.71384
F24.15082
I1
g1
(g5
S'\x00\x00\x00\x00'
p924
tp925
Rp926
tp927
a(F120.65566
F24.14295
I1
g1
(g5
S'\x00\x00\x00\x00'
p928
tp929
Rp930
tp931
a(F120.70949
F24.15247
I1
g1
(g5
S'\x00\x00\x00\x00'
p932
tp933
Rp934
tp935
a(F120.63115
F24.27894
I1
g1
(g5
S'\x04\x00\x00\x00'
p936
tp937
Rp938
tp939
a(F120.65351
F24.13849
I1
g1
(g5
S'\x00\x00\x00\x00'
p940
tp941
Rp942
tp943
a(F120.6519
F24.21533
I2
g1
(g5
S'\x05\x00\x00\x00'
p944
tp945
Rp946
tp947
a(F120.68374
F24.30638
I1
g1
(g5
S'\x04\x00\x00\x00'
p948
tp949
Rp950
tp951
a(F120.73891
F24.14425
I1
g1
(g5
S'\x00\x00\x00\x00'
p952
tp953
Rp954
tp955
a(F120.70075
F24.10418
I1
g1
(g5
S'\x00\x00\x00\x00'
p956
tp957
Rp958
tp959
a(F120.64258
F24.17012
I1
g1
(g5
S'\x05\x00\x00\x00'
p960
tp961
Rp962
tp963
a(F120.6948
F24.29607
I1
g1
(g5
S'\x03\x00\x00\x00'
p964
tp965
Rp966
tp967
a(F120.71982
F24.1406
I1
g1
(g5
S'\x00\x00\x00\x00'
p968
tp969
Rp970
tp971
a(F120.69688
F24.16674
I1
g1
(g5
S'\x00\x00\x00\x00'
p972
tp973
Rp974
tp975
a(F120.60562
F24.34343
I1
g1
(g5
S'\x04\x00\x00\x00'
p976
tp977
Rp978
tp979
a(F120.69021
F24.14378
I1
g1
(g5
S'\x00\x00\x00\x00'
p980
tp981
Rp982
tp983
a(F120.62413
F24.18112
I1
g1
(g5
S'\x05\x00\x00\x00'
p984
tp985
Rp986
tp987
a(F120.62529
F24.43004
I1
g1
(g5
S'\x04\x00\x00\x00'
p988
tp989
Rp990
tp991
a(F120.56161
F24.2329
I1
g1
(g5
S'\x05\x00\x00\x00'
p992
tp993
Rp994
tp995
a(F120.6901
F24.11476
I1
g1
(g5
S'\x00\x00\x00\x00'
p996
tp997
Rp998
tp999
a(F120.62453
F24.35189
I1
g1
(g5
S'\x04\x00\x00\x00'
p1000
tp1001
Rp1002
tp1003
a(F120.69271
F24.17992
I1
g1
(g5
S'\x00\x00\x00\x00'
p1004
tp1005
Rp1006
tp1007
a(F120.70972
F24.09296
I1
g1
(g5
S'\x00\x00\x00\x00'
p1008
tp1009
Rp1010
tp1011
a(F121.25896
F24.96485
I1
g1
(g5
S'\x01\x00\x00\x00'
p1012
tp1013
Rp1014
tp1015
a(F120.69515
F24.11086
I1
g1
(g5
S'\x00\x00\x00\x00'
p1016
tp1017
Rp1018
tp1019
a(F120.69533
F24.18054
I1
g1
(g5
S'\x00\x00\x00\x00'
p1020
tp1021
Rp1022
tp1023
a(F120.72055
F24.18111
I1
g1
(g5
S'\x00\x00\x00\x00'
p1024
tp1025
Rp1026
tp1027
a(F120.71298
F24.11564
I1
g1
(g5
S'\x00\x00\x00\x00'
p1028
tp1029
Rp1030
tp1031
a(F120.64721
F24.184
I3
g1
(g5
S'\x05\x00\x00\x00'
p1032
tp1033
Rp1034
tp1035
a(F120.60596
F24.37777
I1
g1
(g5
S'\x04\x00\x00\x00'
p1036
tp1037
Rp1038
tp1039
a(F120.66453
F24.11652
I1
g1
(g5
S'\x00\x00\x00\x00'
p1040
tp1041
Rp1042
tp1043
a(F120.65091
F24.16568
I1
g1
(g5
S'\x00\x00\x00\x00'
p1044
tp1045
Rp1046
tp1047
a(F120.65107
F24.17124
I1
g1
(g5
S'\x00\x00\x00\x00'
p1048
tp1049
Rp1050
tp1051
a(F120.65231
F24.16269
I1
g1
(g5
S'\x00\x00\x00\x00'
p1052
tp1053
Rp1054
tp1055
a(F120.66052
F24.13474
I1
g1
(g5
S'\x00\x00\x00\x00'
p1056
tp1057
Rp1058
tp1059
a(F120.6843
F24.21293
I1
g1
(g5
S'\x03\x00\x00\x00'
p1060
tp1061
Rp1062
tp1063
a(F120.70625
F24.11003
I1
g1
(g5
S'\x00\x00\x00\x00'
p1064
tp1065
Rp1066
tp1067
a(F120.66857
F24.09752
I1
g1
(g5
S'\x00\x00\x00\x00'
p1068
tp1069
Rp1070
tp1071
a(F120.625
F24.35358
I1
g1
(g5
S'\x04\x00\x00\x00'
p1072
tp1073
Rp1074
tp1075
a(F120.68059
F24.10893
I1
g1
(g5
S'\x00\x00\x00\x00'
p1076
tp1077
Rp1078
tp1079
a(F120.533
F24.2
I1
g1
(g5
S'\x05\x00\x00\x00'
p1080
tp1081
Rp1082
tp1083
a(F120.617
F24.183
I1
g1
(g5
S'\x05\x00\x00\x00'
p1084
tp1085
Rp1086
tp1087
a(F120.56201
F24.20587
I1
g1
(g5
S'\x05\x00\x00\x00'
p1088
tp1089
Rp1090
tp1091
a(F120.7299
F24.26022
I1
g1
(g5
S'\x03\x00\x00\x00'
p1092
tp1093
Rp1094
tp1095
a(F120.70681
F24.09756
I2
g1
(g5
S'\x00\x00\x00\x00'
p1096
tp1097
Rp1098
tp1099
a(F120.73204
F24.11052
I1
g1
(g5
S'\x00\x00\x00\x00'
p1100
tp1101
Rp1102
tp1103
a(F120.69386
F24.17332
I1
g1
(g5
S'\x00\x00\x00\x00'
p1104
tp1105
Rp1106
tp1107
a(F120.68637
F24.10922
I1
g1
(g5
S'\x00\x00\x00\x00'
p1108
tp1109
Rp1110
tp1111
a(F120.72556
F24.22768
I1
g1
(g5
S'\x03\x00\x00\x00'
p1112
tp1113
Rp1114
tp1115
a(F120.66344
F24.13888
I2
g1
(g5
S'\x00\x00\x00\x00'
p1116
tp1117
Rp1118
tp1119
a(F120.59099
F24.28855
I1
g1
(g5
S'\x04\x00\x00\x00'
p1120
tp1121
Rp1122
tp1123
a(F120.6826
F24.16905
I1
g1
(g5
S'\x00\x00\x00\x00'
p1124
tp1125
Rp1126
tp1127
a(F120.71163
F24.2567
I1
g1
(g5
S'\x03\x00\x00\x00'
p1128
tp1129
Rp1130
tp1131
a(F120.61361
F24.14337
I1
g1
(g5
S'\x05\x00\x00\x00'
p1132
tp1133
Rp1134
tp1135
a(F120.30438
F22.6742
I1
g1
(g5
S'\x02\x00\x00\x00'
p1136
tp1137
Rp1138
tp1139
a(F120.66627
F24.11733
I1
g1
(g5
S'\x00\x00\x00\x00'
p1140
tp1141
Rp1142
tp1143
a(F120.70752
F24.07492
I1
g1
(g5
S'\x00\x00\x00\x00'
p1144
tp1145
Rp1146
tp1147
a(F120.64142
F24.18387
I1
g1
(g5
S'\x05\x00\x00\x00'
p1148
tp1149
Rp1150
tp1151
a(F120.71673
F24.13397
I1
g1
(g5
S'\x00\x00\x00\x00'
p1152
tp1153
Rp1154
tp1155
a(F120.68162
F24.18969
I1
g1
(g5
S'\x00\x00\x00\x00'
p1156
tp1157
Rp1158
tp1159
a(F120.66942
F24.13515
I1
g1
(g5
S'\x00\x00\x00\x00'
p1160
tp1161
Rp1162
tp1163
a(F120.99008
F24.18735
I1
g1
(g5
S'\x03\x00\x00\x00'
p1164
tp1165
Rp1166
tp1167
a(F120.6846
F24.17173
I1
g1
(g5
S'\x00\x00\x00\x00'
p1168
tp1169
Rp1170
tp1171
a(F120.64143
F24.28424
I1
g1
(g5
S'\x04\x00\x00\x00'
p1172
tp1173
Rp1174
tp1175
a(F120.68147
F24.11984
I1
g1
(g5
S'\x00\x00\x00\x00'
p1176
tp1177
Rp1178
tp1179
a(F120.68563
F24.10941
I1
g1
(g5
S'\x00\x00\x00\x00'
p1180
tp1181
Rp1182
tp1183
a(F120.7149
F24.25922
I1
g1
(g5
S'\x03\x00\x00\x00'
p1184
tp1185
Rp1186
tp1187
a(F120.64291
F24.1777
I1
g1
(g5
S'\x05\x00\x00\x00'
p1188
tp1189
Rp1190
tp1191
a(F120.61724
F24.18085
I1
g1
(g5
S'\x05\x00\x00\x00'
p1192
tp1193
Rp1194
tp1195
a(F120.66163
F24.1934
I1
g1
(g5
S'\x05\x00\x00\x00'
p1196
tp1197
Rp1198
tp1199
a(F120.30203
F22.80626
I1
g1
(g5
S'\x02\x00\x00\x00'
p1200
tp1201
Rp1202
tp1203
a(F120.67829
F24.15778
I1
g1
(g5
S'\x00\x00\x00\x00'
p1204
tp1205
Rp1206
tp1207
a(F120.69826
F24.24158
I1
g1
(g5
S'\x03\x00\x00\x00'
p1208
tp1209
Rp1210
tp1211
a(F120.66332
F24.12649
I1
g1
(g5
S'\x00\x00\x00\x00'
p1212
tp1213
Rp1214
tp1215
a(F120.65422
F24.13852
I1
g1
(g5
S'\x00\x00\x00\x00'
p1216
tp1217
Rp1218
tp1219
a(F120.62101
F24.35588
I1
g1
(g5
S'\x04\x00\x00\x00'
p1220
tp1221
Rp1222
tp1223
a(F120.66081
F24.11198
I1
g1
(g5
S'\x00\x00\x00\x00'
p1224
tp1225
Rp1226
tp1227
a(F120.69583
F24.17307
I1
g1
(g5
S'\x00\x00\x00\x00'
p1228
tp1229
Rp1230
tp1231
a(F120.64108
F24.17612
I1
g1
(g5
S'\x05\x00\x00\x00'
p1232
tp1233
Rp1234
tp1235
a(F120.66131
F24.11741
I1
g1
(g5
S'\x00\x00\x00\x00'
p1236
tp1237
Rp1238
tp1239
a(F120.64787
F24.24362
I1
g1
(g5
S'\x05\x00\x00\x00'
p1240
tp1241
Rp1242
tp1243
a(F120.64775
F24.22153
I1
g1
(g5
S'\x05\x00\x00\x00'
p1244
tp1245
Rp1246
tp1247
a(F120.72218
F24.0863
I1
g1
(g5
S'\x00\x00\x00\x00'
p1248
tp1249
Rp1250
tp1251
a(F120.75482
F24.04913
I1
g1
(g5
S'\x00\x00\x00\x00'
p1252
tp1253
Rp1254
tp1255
a(F120.66755
F24.18936
I1
g1
(g5
S'\x00\x00\x00\x00'
p1256
tp1257
Rp1258
tp1259
a(F120.64622
F24.1655
I1
g1
(g5
S'\x00\x00\x00\x00'
p1260
tp1261
Rp1262
tp1263
a(F120.71153
F24.23005
I1
g1
(g5
S'\x03\x00\x00\x00'
p1264
tp1265
Rp1266
tp1267
a(F120.71108
F24.2576
I1
g1
(g5
S'\x03\x00\x00\x00'
p1268
tp1269
Rp1270
tp1271
a(F120.2992
F22.60371
I1
g1
(g5
S'\x02\x00\x00\x00'
p1272
tp1273
Rp1274
tp1275
a(F120.67205
F24.18096
I1
g1
(g5
S'\x00\x00\x00\x00'
p1276
tp1277
Rp1278
tp1279
a(F120.73106
F24.16272
I1
g1
(g5
S'\x00\x00\x00\x00'
p1280
tp1281
Rp1282
tp1283
a(F120.69828
F24.17495
I1
g1
(g5
S'\x00\x00\x00\x00'
p1284
tp1285
Rp1286
tp1287
a(F120.71949
F24.11689
I1
g1
(g5
S'\x00\x00\x00\x00'
p1288
tp1289
Rp1290
tp1291
a(F120.69613
F24.16559
I1
g1
(g5
S'\x00\x00\x00\x00'
p1292
tp1293
Rp1294
tp1295
a(F120.72297
F24.22748
I1
g1
(g5
S'\x03\x00\x00\x00'
p1296
tp1297
Rp1298
tp1299
a(F120.65865
F24.11613
I2
g1
(g5
S'\x00\x00\x00\x00'
p1300
tp1301
Rp1302
tp1303
a(F120.70134
F24.24816
I1
g1
(g5
S'\x03\x00\x00\x00'
p1304
tp1305
Rp1306
tp1307
a(F120.67441
F24.16452
I1
g1
(g5
S'\x00\x00\x00\x00'
p1308
tp1309
Rp1310
tp1311
a(F120.68054
F24.1124
I1
g1
(g5
S'\x00\x00\x00\x00'
p1312
tp1313
Rp1314
tp1315
a(F120.7126
F24.22798
I1
g1
(g5
S'\x03\x00\x00\x00'
p1316
tp1317
Rp1318
tp1319
a(F120.66238
F24.12906
I1
g1
(g5
S'\x00\x00\x00\x00'
p1320
tp1321
Rp1322
tp1323
a(F120.71309
F24.25963
I1
g1
(g5
S'\x03\x00\x00\x00'
p1324
tp1325
Rp1326
tp1327
a(F120.87166
F24.13592
I1
g1
(g5
S'\x03\x00\x00\x00'
p1328
tp1329
Rp1330
tp1331
a(F120.60331
F24.15819
I1
g1
(g5
S'\x05\x00\x00\x00'
p1332
tp1333
Rp1334
tp1335
a(F120.67101
F24.16143
I1
g1
(g5
S'\x00\x00\x00\x00'
p1336
tp1337
Rp1338
tp1339
a(F120.68407
F24.16208
I1
g1
(g5
S'\x00\x00\x00\x00'
p1340
tp1341
Rp1342
tp1343
a(F120.79811
F24.23806
I1
g1
(g5
S'\x03\x00\x00\x00'
p1344
tp1345
Rp1346
tp1347
a(F120.66321
F24.12458
I4
g1
(g5
S'\x00\x00\x00\x00'
p1348
tp1349
Rp1350
tp1351
a(F120.68851
F24.10854
I1
g1
(g5
S'\x00\x00\x00\x00'
p1352
tp1353
Rp1354
tp1355
a(F120.67742
F24.14636
I1
g1
(g5
S'\x00\x00\x00\x00'
p1356
tp1357
Rp1358
tp1359
a(F120.56934
F24.20455
I1
g1
(g5
S'\x05\x00\x00\x00'
p1360
tp1361
Rp1362
tp1363
a(F120.70839
F24.25523
I1
g1
(g5
S'\x03\x00\x00\x00'
p1364
tp1365
Rp1366
tp1367
a(F120.62147
F24.22646
I1
g1
(g5
S'\x05\x00\x00\x00'
p1368
tp1369
Rp1370
tp1371
a(F120.6769
F24.2391
I2
g1
(g5
S'\x03\x00\x00\x00'
p1372
tp1373
Rp1374
tp1375
a(F120.29728
F22.63728
I1
g1
(g5
S'\x02\x00\x00\x00'
p1376
tp1377
Rp1378
tp1379
a(F120.59403
F24.18989
I1
g1
(g5
S'\x05\x00\x00\x00'
p1380
tp1381
Rp1382
tp1383
a(F120.69515
F24.14199
I1
g1
(g5
S'\x00\x00\x00\x00'
p1384
tp1385
Rp1386
tp1387
a(F120.80369
F24.24356
I2
g1
(g5
S'\x03\x00\x00\x00'
p1388
tp1389
Rp1390
tp1391
a(F120.64439
F24.1733
I1
g1
(g5
S'\x05\x00\x00\x00'
p1392
tp1393
Rp1394
tp1395
a(F120.69632
F24.16736
I1
g1
(g5
S'\x00\x00\x00\x00'
p1396
tp1397
Rp1398
tp1399
a(F120.6126
F24.19087
I2
g1
(g5
S'\x05\x00\x00\x00'
p1400
tp1401
Rp1402
tp1403
a(F120.73974
F24.25348
I1
g1
(g5
S'\x03\x00\x00\x00'
p1404
tp1405
Rp1406
tp1407
a(F120.6872
F24.17286
I1
g1
(g5
S'\x00\x00\x00\x00'
p1408
tp1409
Rp1410
tp1411
a(F120.652
F24.21868
I1
g1
(g5
S'\x05\x00\x00\x00'
p1412
tp1413
Rp1414
tp1415
a(F120.65806
F24.14033
I1
g1
(g5
S'\x00\x00\x00\x00'
p1416
tp1417
Rp1418
tp1419
a(F120.66228
F24.1601
I2
g1
(g5
S'\x00\x00\x00\x00'
p1420
tp1421
Rp1422
tp1423
a(F120.6407
F24.06218
I1
g1
(g5
S'\x00\x00\x00\x00'
p1424
tp1425
Rp1426
tp1427
a(F120.62202
F24.18443
I2
g1
(g5
S'\x05\x00\x00\x00'
p1428
tp1429
Rp1430
tp1431
a(F120.58651
F24.18003
I1
g1
(g5
S'\x05\x00\x00\x00'
p1432
tp1433
Rp1434
tp1435
a(F120.54916
F24.139
I1
g1
(g5
S'\x05\x00\x00\x00'
p1436
tp1437
Rp1438
tp1439
a(F121.20316
F24.95901
I1
g1
(g5
S'\x01\x00\x00\x00'
p1440
tp1441
Rp1442
tp1443
a(F120.67343
F24.14428
I1
g1
(g5
S'\x00\x00\x00\x00'
p1444
tp1445
Rp1446
tp1447
a(F120.67699
F24.12691
I1
g1
(g5
S'\x00\x00\x00\x00'
p1448
tp1449
Rp1450
tp1451
a(F120.64752
F24.21841
I1
g1
(g5
S'\x05\x00\x00\x00'
p1452
tp1453
Rp1454
tp1455
a(F120.15652
F23.6371
I1
g1
(g5
S'\x06\x00\x00\x00'
p1456
tp1457
Rp1458
tp1459
a(F120.63852
F24.14528
I1
g1
(g5
S'\x00\x00\x00\x00'
p1460
tp1461
Rp1462
tp1463
a(F120.65905
F24.1137
I1
g1
(g5
S'\x00\x00\x00\x00'
p1464
tp1465
Rp1466
tp1467
a(F120.67317
F24.12816
I1
g1
(g5
S'\x00\x00\x00\x00'
p1468
tp1469
Rp1470
tp1471
a(F120.64542
F24.17839
I2
g1
(g5
S'\x05\x00\x00\x00'
p1472
tp1473
Rp1474
tp1475
a(F120.65977
F24.11046
I1
g1
(g5
S'\x00\x00\x00\x00'
p1476
tp1477
Rp1478
tp1479
a(F120.66132
F24.16434
I1
g1
(g5
S'\x00\x00\x00\x00'
p1480
tp1481
Rp1482
tp1483
a(F120.63565
F24.15915
I1
g1
(g5
S'\x05\x00\x00\x00'
p1484
tp1485
Rp1486
tp1487
a(F120.63545
F24.08406
I1
g1
(g5
S'\x00\x00\x00\x00'
p1488
tp1489
Rp1490
tp1491
a(F120.65465
F24.15062
I1
g1
(g5
S'\x00\x00\x00\x00'
p1492
tp1493
Rp1494
tp1495
a(F120.82683
F24.25454
I1
g1
(g5
S'\x03\x00\x00\x00'
p1496
tp1497
Rp1498
tp1499
a(F120.70926
F24.2416
I1
g1
(g5
S'\x03\x00\x00\x00'
p1500
tp1501
Rp1502
tp1503
a(F120.64673
F24.17415
I1
g1
(g5
S'\x05\x00\x00\x00'
p1504
tp1505
Rp1506
tp1507
a(F120.71416
F24.14379
I3
g1
(g5
S'\x00\x00\x00\x00'
p1508
tp1509
Rp1510
tp1511
a(F120.6885
F24.2195
I1
g1
(g5
S'\x03\x00\x00\x00'
p1512
tp1513
Rp1514
tp1515
a(F120.55992
F24.2327
I1
g1
(g5
S'\x05\x00\x00\x00'
p1516
tp1517
Rp1518
tp1519
a(F120.7482
F24.15519
I1
g1
(g5
S'\x00\x00\x00\x00'
p1520
tp1521
Rp1522
tp1523
a(F120.517
F24.25
I1
g1
(g5
S'\x05\x00\x00\x00'
p1524
tp1525
Rp1526
tp1527
a(F120.68695
F24.25118
I1
g1
(g5
S'\x03\x00\x00\x00'
p1528
tp1529
Rp1530
tp1531
a(F120.65657
F24.15813
I1
g1
(g5
S'\x00\x00\x00\x00'
p1532
tp1533
Rp1534
tp1535
a(F120.72932
F24.10406
I1
g1
(g5
S'\x00\x00\x00\x00'
p1536
tp1537
Rp1538
tp1539
a(F120.81243
F24.26215
I1
g1
(g5
S'\x03\x00\x00\x00'
p1540
tp1541
Rp1542
tp1543
a(F120.66121
F24.11941
I1
g1
(g5
S'\x00\x00\x00\x00'
p1544
tp1545
Rp1546
tp1547
a(F120.68291
F24.1529
I1
g1
(g5
S'\x00\x00\x00\x00'
p1548
tp1549
Rp1550
tp1551
a(F120.54318
F24.21143
I1
g1
(g5
S'\x05\x00\x00\x00'
p1552
tp1553
Rp1554
tp1555
a(F120.65157
F24.13868
I1
g1
(g5
S'\x00\x00\x00\x00'
p1556
tp1557
Rp1558
tp1559
a(F120.68373
F24.1369
I1
g1
(g5
S'\x00\x00\x00\x00'
p1560
tp1561
Rp1562
tp1563
a(F120.72152
F24.11836
I1
g1
(g5
S'\x00\x00\x00\x00'
p1564
tp1565
Rp1566
tp1567
a(F120.67888
F24.14477
I1
g1
(g5
S'\x00\x00\x00\x00'
p1568
tp1569
Rp1570
tp1571
a(F120.66227
F24.13725
I1
g1
(g5
S'\x00\x00\x00\x00'
p1572
tp1573
Rp1574
tp1575
a(F120.5694
F24.21914
I1
g1
(g5
S'\x05\x00\x00\x00'
p1576
tp1577
Rp1578
tp1579
a(F120.70011
F24.0948
I1
g1
(g5
S'\x00\x00\x00\x00'
p1580
tp1581
Rp1582
tp1583
a(F120.64537
F24.40418
I1
g1
(g5
S'\x04\x00\x00\x00'
p1584
tp1585
Rp1586
tp1587
a(F120.64908
F24.09379
I1
g1
(g5
S'\x00\x00\x00\x00'
p1588
tp1589
Rp1590
tp1591
a(F120.65462
F24.23036
I1
g1
(g5
S'\x05\x00\x00\x00'
p1592
tp1593
Rp1594
tp1595
a(F120.67108
F24.15186
I1
g1
(g5
S'\x00\x00\x00\x00'
p1596
tp1597
Rp1598
tp1599
a(F120.57322
F24.2763
I1
g1
(g5
S'\x04\x00\x00\x00'
p1600
tp1601
Rp1602
tp1603
a(F120.71662
F24.08351
I1
g1
(g5
S'\x00\x00\x00\x00'
p1604
tp1605
Rp1606
tp1607
a(F120.73185
F24.1292
I1
g1
(g5
S'\x00\x00\x00\x00'
p1608
tp1609
Rp1610
tp1611
a(F120.69628
F24.18487
I1
g1
(g5
S'\x00\x00\x00\x00'
p1612
tp1613
Rp1614
tp1615
a(F120.567
F24.267
I1
g1
(g5
S'\x05\x00\x00\x00'
p1616
tp1617
Rp1618
tp1619
a(F121.50805
F25.04277
I1
g1
(g5
S'\x01\x00\x00\x00'
p1620
tp1621
Rp1622
tp1623
a(F120.70055
F24.17935
I1
g1
(g5
S'\x00\x00\x00\x00'
p1624
tp1625
Rp1626
tp1627
a(F120.69061
F24.14575
I1
g1
(g5
S'\x00\x00\x00\x00'
p1628
tp1629
Rp1630
tp1631
a(F120.60779
F24.18871
I1
g1
(g5
S'\x05\x00\x00\x00'
p1632
tp1633
Rp1634
tp1635
a(F120.52717
F24.23789
I1
g1
(g5
S'\x05\x00\x00\x00'
p1636
tp1637
Rp1638
tp1639
a(F120.68001
F24.13386
I1
g1
(g5
S'\x00\x00\x00\x00'
p1640
tp1641
Rp1642
tp1643
a(F120.6252
F24.34245
I1
g1
(g5
S'\x04\x00\x00\x00'
p1644
tp1645
Rp1646
tp1647
a(F120.66684
F24.10835
I1
g1
(g5
S'\x00\x00\x00\x00'
p1648
tp1649
Rp1650
tp1651
a(F120.65849
F24.15355
I1
g1
(g5
S'\x00\x00\x00\x00'
p1652
tp1653
Rp1654
tp1655
a(F120.67758
F24.15456
I1
g1
(g5
S'\x00\x00\x00\x00'
p1656
tp1657
Rp1658
tp1659
a(F120.69021
F24.17247
I1
g1
(g5
S'\x00\x00\x00\x00'
p1660
tp1661
Rp1662
tp1663
a(F120.6654
F24.11334
I1
g1
(g5
S'\x00\x00\x00\x00'
p1664
tp1665
Rp1666
tp1667
a(F120.64538
F24.17966
I1
g1
(g5
S'\x05\x00\x00\x00'
p1668
tp1669
Rp1670
tp1671
a(F120.70541
F24.13932
I1
g1
(g5
S'\x00\x00\x00\x00'
p1672
tp1673
Rp1674
tp1675
a(F120.66929
F24.12269
I1
g1
(g5
S'\x00\x00\x00\x00'
p1676
tp1677
Rp1678
tp1679
a(F120.65839
F24.10914
I1
g1
(g5
S'\x00\x00\x00\x00'
p1680
tp1681
Rp1682
tp1683
a(F120.65675
F24.39556
I1
g1
(g5
S'\x04\x00\x00\x00'
p1684
tp1685
Rp1686
tp1687
a(F120.71304
F24.08412
I1
g1
(g5
S'\x00\x00\x00\x00'
p1688
tp1689
Rp1690
tp1691
a(F120.67555
F24.17196
I1
g1
(g5
S'\x00\x00\x00\x00'
p1692
tp1693
Rp1694
tp1695
a(F120.68168
F24.16272
I2
g1
(g5
S'\x00\x00\x00\x00'
p1696
tp1697
Rp1698
tp1699
a(F121.52445
F25.12224
I1
g1
(g5
S'\x01\x00\x00\x00'
p1700
tp1701
Rp1702
tp1703
a(F120.64318
F24.40526
I1
g1
(g5
S'\x04\x00\x00\x00'
p1704
tp1705
Rp1706
tp1707
a(F120.66557
F24.1714
I1
g1
(g5
S'\x00\x00\x00\x00'
p1708
tp1709
Rp1710
tp1711
a(F120.65245
F24.11873
I1
g1
(g5
S'\x00\x00\x00\x00'
p1712
tp1713
Rp1714
tp1715
a(F120.66242
F24.17015
I1
g1
(g5
S'\x00\x00\x00\x00'
p1716
tp1717
Rp1718
tp1719
a(F120.69676
F24.17138
I1
g1
(g5
S'\x00\x00\x00\x00'
p1720
tp1721
Rp1722
tp1723
a(F120.69331
F24.04713
I1
g1
(g5
S'\x00\x00\x00\x00'
p1724
tp1725
Rp1726
tp1727
a(F120.62842
F24.24169
I1
g1
(g5
S'\x05\x00\x00\x00'
p1728
tp1729
Rp1730
tp1731
a(F120.66203
F24.15788
I1
g1
(g5
S'\x00\x00\x00\x00'
p1732
tp1733
Rp1734
tp1735
a(F120.58894
F24.17773
I2
g1
(g5
S'\x05\x00\x00\x00'
p1736
tp1737
Rp1738
tp1739
a(F120.6605
F24.1743
I1
g1
(g5
S'\x00\x00\x00\x00'
p1740
tp1741
Rp1742
tp1743
a(F120.71362
F24.10048
I1
g1
(g5
S'\x00\x00\x00\x00'
p1744
tp1745
Rp1746
tp1747
a(F120.53818
F24.26152
I1
g1
(g5
S'\x05\x00\x00\x00'
p1748
tp1749
Rp1750
tp1751
a(F120.74243
F24.25693
I1
g1
(g5
S'\x03\x00\x00\x00'
p1752
tp1753
Rp1754
tp1755
a(F120.68093
F24.13773
I1
g1
(g5
S'\x00\x00\x00\x00'
p1756
tp1757
Rp1758
tp1759
a(F120.69518
F24.16012
I1
g1
(g5
S'\x00\x00\x00\x00'
p1760
tp1761
Rp1762
tp1763
a(F120.69278
F24.10807
I1
g1
(g5
S'\x00\x00\x00\x00'
p1764
tp1765
Rp1766
tp1767
a(F120.6448
F24.13505
I1
g1
(g5
S'\x00\x00\x00\x00'
p1768
tp1769
Rp1770
tp1771
a(F120.54505
F24.21976
I1
g1
(g5
S'\x05\x00\x00\x00'
p1772
tp1773
Rp1774
tp1775
a(F120.56921
F24.23939
I2
g1
(g5
S'\x05\x00\x00\x00'
p1776
tp1777
Rp1778
tp1779
a(F120.63157
F24.15289
I1
g1
(g5
S'\x05\x00\x00\x00'
p1780
tp1781
Rp1782
tp1783
a(F120.64347
F24.2367
I1
g1
(g5
S'\x05\x00\x00\x00'
p1784
tp1785
Rp1786
tp1787
a(F120.67308
F24.1506
I1
g1
(g5
S'\x00\x00\x00\x00'
p1788
tp1789
Rp1790
tp1791
a(F120.67094
F24.16595
I1
g1
(g5
S'\x00\x00\x00\x00'
p1792
tp1793
Rp1794
tp1795
a(F120.66627
F24.11619
I1
g1
(g5
S'\x00\x00\x00\x00'
p1796
tp1797
Rp1798
tp1799
a.