(lp0
(F121.57527
F25.05025
I1
cnumpy.core.multiarray
scalar
p1
(cnumpy
dtype
p2
(S'i4'
p3
I0
I1
tp4
Rp5
(I3
S'<'
p6
NNNI-1
I-1
I0
tp7
bS'\x05\x00\x00\x00'
p8
tp9
Rp10
tp11
a(F121.55961
F25.05691
I1
g1
(g5
S'\x05\x00\x00\x00'
p12
tp13
Rp14
tp15
a(F121.52758
F25.04087
I1
g1
(g5
S'\x04\x00\x00\x00'
p16
tp17
Rp18
tp19
a(F121.55852
F25.08855
I3
g1
(g5
S'\x05\x00\x00\x00'
p20
tp21
Rp22
tp23
a(F121.51944
F25.04951
I1
g1
(g5
S'\x04\x00\x00\x00'
p24
tp25
Rp26
tp27
a(F121.51384
F25.05264
I1
g1
(g5
S'\x04\x00\x00\x00'
p28
tp29
Rp30
tp31
a(F121.52959
F25.12171
I1
g1
(g5
S'\x03\x00\x00\x00'
p32
tp33
Rp34
tp35
a(F121.53203
F25.09766
I1
g1
(g5
S'\x03\x00\x00\x00'
p36
tp37
Rp38
tp39
a(F121.55443
F25.0237
I1
g1
(g5
S'\x00\x00\x00\x00'
p40
tp41
Rp42
tp43
a(F121.56956
F25.02172
I1
g1
(g5
S'\x00\x00\x00\x00'
p44
tp45
Rp46
tp47
a(F121.50978
F25.04618
I2
g1
(g5
S'\x04\x00\x00\x00'
p48
tp49
Rp50
tp51
a(F121.52484
F25.06218
I1
g1
(g5
S'\x04\x00\x00\x00'
p52
tp53
Rp54
tp55
a(F121.61328
F25.06907
I1
g1
(g5
S'\x05\x00\x00\x00'
p56
tp57
Rp58
tp59
a(F121.53
F25.12673
I1
g1
(g5
S'\x03\x00\x00\x00'
p60
tp61
Rp62
tp63
a(F121.57403
F25.04532
I1
g1
(g5
S'\x05\x00\x00\x00'
p64
tp65
Rp66
tp67
a(F121.55261
F25.04056
I1
g1
(g5
S'\x00\x00\x00\x00'
p68
tp69
Rp70
tp71
a(F121.50926
F25.04296
I3
g1
(g5
S'\x04\x00\x00\x00'
p72
tp73
Rp74
tp75
a(F121.55583
F25.05759
I1
g1
(g5
S'\x05\x00\x00\x00'
p76
tp77
Rp78
tp79
a(F121.51721
F25.14795
I1
g1
(g5
S'\x03\x00\x00\x00'
p80
tp81
Rp82
tp83
a(F121.50443
F25.04223
I1
g1
(g5
S'\x04\x00\x00\x00'
p84
tp85
Rp86
tp87
a(F121.54595
F25.08111
I1
g1
(g5
S'\x05\x00\x00\x00'
p88
tp89
Rp90
tp91
a(F121.54441
F25.05371
I1
g1
(g5
S'\x04\x00\x00\x00'
p92
tp93
Rp94
tp95
a(F121.51855
F25.03108
I2
g1
(g5
S'\x04\x00\x00\x00'
p96
tp97
Rp98
tp99
a(F121.5427093
F25.0792018
I1
g1
(g5
S'\x05\x00\x00\x00'
p100
tp101
Rp102
tp103
a(F121.49708
F25.02388
I1
g1
(g5
S'\x04\x00\x00\x00'
p104
tp105
Rp106
tp107
a(F121.53572
F25.04525
I1
g1
(g5
S'\x04\x00\x00\x00'
p108
tp109
Rp110
tp111
a(F121.51277
F25.1353
I3
g1
(g5
S'\x03\x00\x00\x00'
p112
tp113
Rp114
tp115
a(F121.54934
F25.02665
I5
g1
(g5
S'\x00\x00\x00\x00'
p116
tp117
Rp118
tp119
a(F121.56088
F25.05492
I1
g1
(g5
S'\x05\x00\x00\x00'
p120
tp121
Rp122
tp123
a(F121.51158
F25.06844
I1
g1
(g5
S'\x04\x00\x00\x00'
p124
tp125
Rp126
tp127
a(F121.56149
F24.99445
I1
g1
(g5
S'\x00\x00\x00\x00'
p128
tp129
Rp130
tp131
a(F121.52338
F25.05359
I1
g1
(g5
S'\x04\x00\x00\x00'
p132
tp133
Rp134
tp135
a(F121.51433
F25.06902
I1
g1
(g5
S'\x04\x00\x00\x00'
p136
tp137
Rp138
tp139
a(F121.51208
F25.05593
I1
g1
(g5
S'\x04\x00\x00\x00'
p140
tp141
Rp142
tp143
a(F121.51725
F25.06231
I1
g1
(g5
S'\x04\x00\x00\x00'
p144
tp145
Rp146
tp147
a(F121.59255
F25.08339
I1
g1
(g5
S'\x05\x00\x00\x00'
p148
tp149
Rp150
tp151
a(F121.6111949
F25.0312347
I1
g1
(g5
S'\x05\x00\x00\x00'
p152
tp153
Rp154
tp155
a(F121.51832
F25.04646
I1
g1
(g5
S'\x04\x00\x00\x00'
p156
tp157
Rp158
tp159
a(F121.49191
F25.13795
I1
g1
(g5
S'\x03\x00\x00\x00'
p160
tp161
Rp162
tp163
a(F121.5581
F25.01954
I1
g1
(g5
S'\x00\x00\x00\x00'
p164
tp165
Rp166
tp167
a(F121.55315
F25.0387
I1
g1
(g5
S'\x00\x00\x00\x00'
p168
tp169
Rp170
tp171
a(F121.53115
F25.02448
I1
g1
(g5
S'\x04\x00\x00\x00'
p172
tp173
Rp174
tp175
a(F121.51169
F25.06981
I1
g1
(g5
S'\x04\x00\x00\x00'
p176
tp177
Rp178
tp179
a(F121.55046
F25.04179
I1
g1
(g5
S'\x00\x00\x00\x00'
p180
tp181
Rp182
tp183
a(F121.52732
F25.11499
I1
g1
(g5
S'\x03\x00\x00\x00'
p184
tp185
Rp186
tp187
a(F121.55325
F25.05484
I1
g1
(g5
S'\x05\x00\x00\x00'
p188
tp189
Rp190
tp191
a(F121.50581
F25.04332
I2
g1
(g5
S'\x04\x00\x00\x00'
p192
tp193
Rp194
tp195
a(F121.54029
F24.98993
I1
g1
(g5
S'\x00\x00\x00\x00'
p196
tp197
Rp198
tp199
a(F121.53775
F25.08382
I1
g1
(g5
S'\x03\x00\x00\x00'
p200
tp201
Rp202
tp203
a(F121.52251
F25.04057
I1
g1
(g5
S'\x04\x00\x00\x00'
p204
tp205
Rp206
tp207
a(F121.59571
F25.06469
I1
g1
(g5
S'\x05\x00\x00\x00'
p208
tp209
Rp210
tp211
a(F121.56151
F25.08676
I2
g1
(g5
S'\x05\x00\x00\x00'
p212
tp213
Rp214
tp215
a(F121.50226
F25.04394
I1
g1
(g5
S'\x04\x00\x00\x00'
p216
tp217
Rp218
tp219
a(F121.57371
F25.0416
I1
g1
(g5
S'\x05\x00\x00\x00'
p220
tp221
Rp222
tp223
a(F120.32164
F22.6147
I1
g1
(g5
S'\x01\x00\x00\x00'
p224
tp225
Rp226
tp227
a(F121.53109
F25.06001
I1
g1
(g5
S'\x04\x00\x00\x00'
p228
tp229
Rp230
tp231
a(F121.50872
F25.121
I1
g1
(g5
S'\x03\x00\x00\x00'
p232
tp233
Rp234
tp235
a(F121.50527
F25.09307
I2
g1
(g5
S'\x03\x00\x00\x00'
p236
tp237
Rp238
tp239
a(F121.50196
F25.04244
I1
g1
(g5
S'\x04\x00\x00\x00'
p240
tp241
Rp242
tp243
a(F121.59492
F25.05042
I1
g1
(g5
S'\x05\x00\x00\x00'
p244
tp245
Rp246
tp247
a(F121.5393
F25.0658
I1
g1
(g5
S'\x04\x00\x00\x00'
p248
tp249
Rp250
tp251
a(F121.50186
F25.01984
I1
g1
(g5
S'\x04\x00\x00\x00'
p252
tp253
Rp254
tp255
a(F121.55536
F25.02828
I1
g1
(g5
S'\x00\x00\x00\x00'
p256
tp257
Rp258
tp259
a(F121.55204
F25.03919
I1
g1
(g5
S'\x00\x00\x00\x00'
p260
tp261
Rp262
tp263
a(F121.55855
F25.02158
I1
g1
(g5
S'\x00\x00\x00\x00'
p264
tp265
Rp266
tp267
a(F121.54696
F25.03354
I1
g1
(g5
S'\x00\x00\x00\x00'
p268
tp269
Rp270
tp271
a(F121.51512
F25.11981
I2
g1
(g5
S'\x03\x00\x00\x00'
p272
tp273
Rp274
tp275
a(F121.50387
F25.0369
I1
g1
(g5
S'\x04\x00\x00\x00'
p276
tp277
Rp278
tp279
a(F121.52404
F25.05245
I1
g1
(g5
S'\x04\x00\x00\x00'
p280
tp281
Rp282
tp283
a(F121.57454
F25.03984
I1
g1
(g5
S'\x05\x00\x00\x00'
p284
tp285
Rp286
tp287
a(F121.51466
F25.04553
I1
g1
(g5
S'\x04\x00\x00\x00'
p288
tp289
Rp290
tp291
a(F121.5179
F25.0491
I1
g1
(g5
S'\x04\x00\x00\x00'
p292
tp293
Rp294
tp295
a(F121.50203
F25.13812
I1
g1
(g5
S'\x03\x00\x00\x00'
p296
tp297
Rp298
tp299
a(F121.50307
F25.1304
I1
g1
(g5
S'\x03\x00\x00\x00'
p300
tp301
Rp302
tp303
a(F121.55335
F25.04192
I1
g1
(g5
S'\x05\x00\x00\x00'
p304
tp305
Rp306
tp307
a(F121.61722
F25.06821
I1
g1
(g5
S'\x05\x00\x00\x00'
p308
tp309
Rp310
tp311
a(F121.49889
F25.03553
I1
g1
(g5
S'\x04\x00\x00\x00'
p312
tp313
Rp314
tp315
a(F121.49725
F25.13673
I1
g1
(g5
S'\x03\x00\x00\x00'
p316
tp317
Rp318
tp319
a(F121.52609
F25.03368
I1
g1
(g5
S'\x04\x00\x00\x00'
p320
tp321
Rp322
tp323
a(F121.5443
F24.99988
I1
g1
(g5
S'\x00\x00\x00\x00'
p324
tp325
Rp326
tp327
a(F121.54178
F25.01347
I1
g1
(g5
S'\x00\x00\x00\x00'
p328
tp329
Rp330
tp331
a(F121.56444
F25.02682
I2
g1
(g5
S'\x00\x00\x00\x00'
p332
tp333
Rp334
tp335
a(F121.48104
F25.1177
I1
g1
(g5
S'\x03\x00\x00\x00'
p336
tp337
Rp338
tp339
a(F121.521
F25.08455
I1
g1
(g5
S'\x03\x00\x00\x00'
p340
tp341
Rp342
tp343
a(F121.6166
F25.06147
I1
g1
(g5
S'\x05\x00\x00\x00'
p344
tp345
Rp346
tp347
a(F121.50615
F25.09246
I1
g1
(g5
S'\x03\x00\x00\x00'
p348
tp349
Rp350
tp351
a(F121.50798
F25.0436
I1
g1
(g5
S'\x04\x00\x00\x00'
p352
tp353
Rp354
tp355
a(F121.5108
F25.04016
I1
g1
(g5
S'\x04\x00\x00\x00'
p356
tp357
Rp358
tp359
a(F121.56356
F25.05378
I1
g1
(g5
S'\x05\x00\x00\x00'
p360
tp361
Rp362
tp363
a(F121.52248
F25.02168
I1
g1
(g5
S'\x04\x00\x00\x00'
p364
tp365
Rp366
tp367
a(F121.54638
F25.04541
I1
g1
(g5
S'\x04\x00\x00\x00'
p368
tp369
Rp370
tp371
a(F121.51459
F25.03309
I1
g1
(g5
S'\x04\x00\x00\x00'
p372
tp373
Rp374
tp375
a(F121.58036
F25.05161
I1
g1
(g5
S'\x05\x00\x00\x00'
p376
tp377
Rp378
tp379
a(F121.53843
F25.16506
I1
g1
(g5
S'\x03\x00\x00\x00'
p380
tp381
Rp382
tp383
a(F121.50778
F25.04185
I1
g1
(g5
S'\x04\x00\x00\x00'
p384
tp385
Rp386
tp387
a(F121.56885
F25.00153
I2
g1
(g5
S'\x00\x00\x00\x00'
p388
tp389
Rp390
tp391
a(F121.54137
F24.99491
I1
g1
(g5
S'\x00\x00\x00\x00'
p392
tp393
Rp394
tp395
a(F121.56483
F25.05506
I1
g1
(g5
S'\x05\x00\x00\x00'
p396
tp397
Rp398
tp399
a(F121.5181
F25.03242
I2
g1
(g5
S'\x04\x00\x00\x00'
p400
tp401
Rp402
tp403
a(F121.52097
F25.07571
I1
g1
(g5
S'\x04\x00\x00\x00'
p404
tp405
Rp406
tp407
a(F121.58076
F24.98191
I1
g1
(g5
S'\x00\x00\x00\x00'
p408
tp409
Rp410
tp411
a(F121.51289
F25.04343
I1
g1
(g5
S'\x04\x00\x00\x00'
p412
tp413
Rp414
tp415
a(F121.51448
F25.05228
I1
g1
(g5
S'\x04\x00\x00\x00'
p416
tp417
Rp418
tp419
a(F121.58812
F25.03919
I1
g1
(g5
S'\x05\x00\x00\x00'
p420
tp421
Rp422
tp423
a(F121.55816
F25.04792
I1
g1
(g5
S'\x05\x00\x00\x00'
p424
tp425
Rp426
tp427
a(F121.57739
F25.0457
I1
g1
(g5
S'\x05\x00\x00\x00'
p428
tp429
Rp430
tp431
a(F121.54044
F24.99513
I1
g1
(g5
S'\x00\x00\x00\x00'
p432
tp433
Rp434
tp435
a(F121.55726
F24.98431
I1
g1
(g5
S'\x00\x00\x00\x00'
p436
tp437
Rp438
tp439
a(F121.5275
F25.01997
I1
g1
(g5
S'\x04\x00\x00\x00'
p440
tp441
Rp442
tp443
a(F121.53997
F25.06088
I1
g1
(g5
S'\x04\x00\x00\x00'
p444
tp445
Rp446
tp447
a(F121.57597
F24.99151
I1
g1
(g5
S'\x00\x00\x00\x00'
p448
tp449
Rp450
tp451
a(F121.59252
F25.07005
I2
g1
(g5
S'\x05\x00\x00\x00'
p452
tp453
Rp454
tp455
a(F121.5673
F24.98971
I1
g1
(g5
S'\x00\x00\x00\x00'
p456
tp457
Rp458
tp459
a(F121.53899
F25.06466
I1
g1
(g5
S'\x04\x00\x00\x00'
p460
tp461
Rp462
tp463
a(F121.53611
F25.04037
I1
g1
(g5
S'\x04\x00\x00\x00'
p464
tp465
Rp466
tp467
a(F121.52102
F25.10433
I1
g1
(g5
S'\x03\x00\x00\x00'
p468
tp469
Rp470
tp471
a(F121.5756
F25.08415
I1
g1
(g5
S'\x05\x00\x00\x00'
p472
tp473
Rp474
tp475
a(F121.57517
F25.11131
I1
g1
(g5
S'\x05\x00\x00\x00'
p476
tp477
Rp478
tp479
a(F121.55415
F25.04486
I1
g1
(g5
S'\x05\x00\x00\x00'
p480
tp481
Rp482
tp483
a(F121.52557
F25.04337
I1
g1
(g5
S'\x04\x00\x00\x00'
p484
tp485
Rp486
tp487
a(F121.51201
F25.02571
I1
g1
(g5
S'\x04\x00\x00\x00'
p488
tp489
Rp490
tp491
a(F121.5539
F25.03394
I1
g1
(g5
S'\x00\x00\x00\x00'
p492
tp493
Rp494
tp495
a(F121.55981
F25.08371
I1
g1
(g5
S'\x05\x00\x00\x00'
p496
tp497
Rp498
tp499
a(F121.53389
F25.02309
I1
g1
(g5
S'\x00\x00\x00\x00'
p500
tp501
Rp502
tp503
a(F121.52339
F25.08838
I1
g1
(g5
S'\x03\x00\x00\x00'
p504
tp505
Rp506
tp507
a(F121.54425
F24.99473
I1
g1
(g5
S'\x00\x00\x00\x00'
p508
tp509
Rp510
tp511
a(F121.59921
F25.08408
I1
g1
(g5
S'\x05\x00\x00\x00'
p512
tp513
Rp514
tp515
a(F121.50646
F25.04314
I2
g1
(g5
S'\x04\x00\x00\x00'
p516
tp517
Rp518
tp519
a(F121.57811
F25.04231
I1
g1
(g5
S'\x05\x00\x00\x00'
p520
tp521
Rp522
tp523
a(F121.54807
F25.05557
I2
g1
(g5
S'\x05\x00\x00\x00'
p524
tp525
Rp526
tp527
a(F121.51839
F25.04537
I2
g1
(g5
S'\x04\x00\x00\x00'
p528
tp529
Rp530
tp531
a(F121.51791
F25.052
I1
g1
(g5
S'\x04\x00\x00\x00'
p532
tp533
Rp534
tp535
a(F121.58015
F25.03827
I1
g1
(g5
S'\x05\x00\x00\x00'
p536
tp537
Rp538
tp539
a(F121.61135
F25.06604
I2
g1
(g5
S'\x05\x00\x00\x00'
p540
tp541
Rp542
tp543
a(F121.56145
F25.05633
I1
g1
(g5
S'\x05\x00\x00\x00'
p544
tp545
Rp546
tp547
a(F121.54905
F25.00003
I1
g1
(g5
S'\x00\x00\x00\x00'
p548
tp549
Rp550
tp551
a(F121.51825
F25.02278
I1
g1
(g5
S'\x04\x00\x00\x00'
p552
tp553
Rp554
tp555
a(F121.51994
F25.11238
I1
g1
(g5
S'\x03\x00\x00\x00'
p556
tp557
Rp558
tp559
a(F121.539
F25.06768
I1
g1
(g5
S'\x04\x00\x00\x00'
p560
tp561
Rp562
tp563
a(F121.53949
F25.05163
I1
g1
(g5
S'\x04\x00\x00\x00'
p564
tp565
Rp566
tp567
a(F121.55394
F24.99032
I1
g1
(g5
S'\x00\x00\x00\x00'
p568
tp569
Rp570
tp571
a(F121.53039
F25.01797
I1
g1
(g5
S'\x00\x00\x00\x00'
p572
tp573
Rp574
tp575
a(F121.51883
F25.08494
I1
g1
(g5
S'\x03\x00\x00\x00'
p576
tp577
Rp578
tp579
a(F121.54909
F25.02378
I1
g1
(g5
S'\x00\x00\x00\x00'
p580
tp581
Rp582
tp583
a(F121.57508
F25.03795
I1
g1
(g5
S'\x05\x00\x00\x00'
p584
tp585
Rp586
tp587
a(F121.52344
F25.09037
I1
g1
(g5
S'\x03\x00\x00\x00'
p588
tp589
Rp590
tp591
a(F121.52779
F25.02427
I1
g1
(g5
S'\x04\x00\x00\x00'
p592
tp593
Rp594
tp595
a(F121.51772
F25.1093
I1
g1
(g5
S'\x03\x00\x00\x00'
p596
tp597
Rp598
tp599
a(F121.51684
F25.05321
I2
g1
(g5
S'\x04\x00\x00\x00'
p600
tp601
Rp602
tp603
a(F121.54816
F25.08406
I1
g1
(g5
S'\x05\x00\x00\x00'
p604
tp605
Rp606
tp607
a(F121.55943
F24.98612
I1
g1
(g5
S'\x00\x00\x00\x00'
p608
tp609
Rp610
tp611
a(F121.55422
F25.05124
I1
g1
(g5
S'\x05\x00\x00\x00'
p612
tp613
Rp614
tp615
a(F121.53862
F25.00633
I1
g1
(g5
S'\x00\x00\x00\x00'
p616
tp617
Rp618
tp619
a(F121.52527
F25.03531
I1
g1
(g5
S'\x04\x00\x00\x00'
p620
tp621
Rp622
tp623
a(F121.54362
F24.99243
I1
g1
(g5
S'\x00\x00\x00\x00'
p624
tp625
Rp626
tp627
a(F121.52153
F25.09194
I1
g1
(g5
S'\x03\x00\x00\x00'
p628
tp629
Rp630
tp631
a(F121.54434
F25.05046
I1
g1
(g5
S'\x04\x00\x00\x00'
p632
tp633
Rp634
tp635
a(F121.52297
F25.02387
I1
g1
(g5
S'\x04\x00\x00\x00'
p636
tp637
Rp638
tp639
a(F121.53859
F25.08382
I1
g1
(g5
S'\x03\x00\x00\x00'
p640
tp641
Rp642
tp643
a(F121.58504
F25.07481
I1
g1
(g5
S'\x05\x00\x00\x00'
p644
tp645
Rp646
tp647
a(F121.53943
F25.02567
I1
g1
(g5
S'\x00\x00\x00\x00'
p648
tp649
Rp650
tp651
a(F121.56241
F25.02897
I1
g1
(g5
S'\x00\x00\x00\x00'
p652
tp653
Rp654
tp655
a(F121.55268
F25.02176
I1
g1
(g5
S'\x00\x00\x00\x00'
p656
tp657
Rp658
tp659
a(F121.58689
F25.06737
I1
g1
(g5
S'\x05\x00\x00\x00'
p660
tp661
Rp662
tp663
a(F121.54723
F25.08466
I1
g1
(g5
S'\x05\x00\x00\x00'
p664
tp665
Rp666
tp667
a(F121.52928
F25.0335
I1
g1
(g5
S'\x04\x00\x00\x00'
p668
tp669
Rp670
tp671
a(F121.51345
F25.08131
I2
g1
(g5
S'\x03\x00\x00\x00'
p672
tp673
Rp674
tp675
a(F121.52181
F25.10237
I1
g1
(g5
S'\x03\x00\x00\x00'
p676
tp677
Rp678
tp679
a(F121.5804
F25.07501
I3
g1
(g5
S'\x05\x00\x00\x00'
p680
tp681
Rp682
tp683
a(F121.53758
F25.10381
I4
g1
(g5
S'\x03\x00\x00\x00'
p684
tp685
Rp686
tp687
a(F121.54672
F24.99333
I1
g1
(g5
S'\x00\x00\x00\x00'
p688
tp689
Rp690
tp691
a(F121.52363
F25.10022
I1
g1
(g5
S'\x03\x00\x00\x00'
p692
tp693
Rp694
tp695
a(F121.53285
F25.12174
I1
g1
(g5
S'\x03\x00\x00\x00'
p696
tp697
Rp698
tp699
a(F121.53839
F25.03589
I1
g1
(g5
S'\x04\x00\x00\x00'
p700
tp701
Rp702
tp703
a(F121.52924
F25.11101
I1
g1
(g5
S'\x03\x00\x00\x00'
p704
tp705
Rp706
tp707
a(F121.56288
F25.0495
I1
g1
(g5
S'\x05\x00\x00\x00'
p708
tp709
Rp710
tp711
a(F121.52855
F25.03727
I1
g1
(g5
S'\x04\x00\x00\x00'
p712
tp713
Rp714
tp715
a(F121.50696
F25.04441
I1
g1
(g5
S'\x04\x00\x00\x00'
p716
tp717
Rp718
tp719
a(F121.52788
F25.03574
I1
g1
(g5
S'\x04\x00\x00\x00'
p720
tp721
Rp722
tp723
a(F121.53983
F25.05558
I1
g1
(g5
S'\x04\x00\x00\x00'
p724
tp725
Rp726
tp727
a(F121.52089
F25.12379
I1
g1
(g5
S'\x03\x00\x00\x00'
p728
tp729
Rp730
tp731
a(F121.5061
F25.12938
I1
g1
(g5
S'\x03\x00\x00\x00'
p732
tp733
Rp734
tp735
a(F121.54251
F25.05439
I2
g1
(g5
S'\x04\x00\x00\x00'
p736
tp737
Rp738
tp739
a(F121.5703
F25.03691
I1
g1
(g5
S'\x05\x00\x00\x00'
p740
tp741
Rp742
tp743
a(F121.28926
F24.87527
I1
g1
(g5
S'\x06\x00\x00\x00'
p744
tp745
Rp746
tp747
a(F121.5129
F25.05368
I1
g1
(g5
S'\x04\x00\x00\x00'
p748
tp749
Rp750
tp751
a(F121.4954
F25.02962
I1
g1
(g5
S'\x04\x00\x00\x00'
p752
tp753
Rp754
tp755
a(F121.50458
F25.04091
I1
g1
(g5
S'\x04\x00\x00\x00'
p756
tp757
Rp758
tp759
a(F121.52629
F25.03928
I1
g1
(g5
S'\x04\x00\x00\x00'
p760
tp761
Rp762
tp763
a(F121.53822
F25.03222
I1
g1
(g5
S'\x04\x00\x00\x00'
p764
tp765
Rp766
tp767
a(F121.53563
F25.02569
I1
g1
(g5
S'\x00\x00\x00\x00'
p768
tp769
Rp770
tp771
a(F121.55315
F25.05831
I2
g1
(g5
S'\x05\x00\x00\x00'
p772
tp773
Rp774
tp775
a(F121.5501
F25.07834
I1
g1
(g5
S'\x05\x00\x00\x00'
p776
tp777
Rp778
tp779
a(F121.57174
F25.04858
I1
g1
(g5
S'\x05\x00\x00\x00'
p780
tp781
Rp782
tp783
a(F121.55493
F25.0205
I1
g1
(g5
S'\x00\x00\x00\x00'
p784
tp785
Rp786
tp787
a(F121.52688
F25.10369
I2
g1
(g5
S'\x03\x00\x00\x00'
p788
tp789
Rp790
tp791
a(F121.56032
F25.09031
I1
g1
(g5
S'\x05\x00\x00\x00'
p792
tp793
Rp794
tp795
a(F121.55613
F25.03192
I1
g1
(g5
S'\x00\x00\x00\x00'
p796
tp797
Rp798
tp799
a(F121.50953
F25.0705
I1
g1
(g5
S'\x04\x00\x00\x00'
p800
tp801
Rp802
tp803
a(F121.56514
F25.1171
I1
g1
(g5
S'\x03\x00\x00\x00'
p804
tp805
Rp806
tp807
a(F121.54992
F25.03603
I1
g1
(g5
S'\x00\x00\x00\x00'
p808
tp809
Rp810
tp811
a(F121.55197
F25.0789
I2
g1
(g5
S'\x05\x00\x00\x00'
p812
tp813
Rp814
tp815
a(F121.5651
F24.98777
I1
g1
(g5
S'\x00\x00\x00\x00'
p816
tp817
Rp818
tp819
a(F121.56456
F25.05603
I1
g1
(g5
S'\x05\x00\x00\x00'
p820
tp821
Rp822
tp823
a(F121.50525
F25.04578
I2
g1
(g5
S'\x04\x00\x00\x00'
p824
tp825
Rp826
tp827
a(F121.53228
F25.05249
I1
g1
(g5
S'\x04\x00\x00\x00'
p828
tp829
Rp830
tp831
a(F121.52241
F25.06008
I1
g1
(g5
S'\x04\x00\x00\x00'
p832
tp833
Rp834
tp835
a(F121.55452
F25.03959
I1
g1
(g5
S'\x00\x00\x00\x00'
p836
tp837
Rp838
tp839
a(F121.52792
F25.05015
I1
g1
(g5
S'\x04\x00\x00\x00'
p840
tp841
Rp842
tp843
a(F121.56884
F25.00691
I1
g1
(g5
S'\x00\x00\x00\x00'
p844
tp845
Rp846
tp847
a(F121.50348
F25.0272
I1
g1
(g5
S'\x04\x00\x00\x00'
p848
tp849
Rp850
tp851
a(F121.54649
F24.99521
I1
g1
(g5
S'\x00\x00\x00\x00'
p852
tp853
Rp854
tp855
a(F121.52741
F25.06462
I1
g1
(g5
S'\x04\x00\x00\x00'
p856
tp857
Rp858
tp859
a(F121.61423
F25.0468
I1
g1
(g5
S'\x05\x00\x00\x00'
p860
tp861
Rp862
tp863
a(F121.56715
F25.03208
I1
g1
(g5
S'\x00\x00\x00\x00'
p864
tp865
Rp866
tp867
a(F121.52254
F25.02418
I1
g1
(g5
S'\x04\x00\x00\x00'
p868
tp869
Rp870
tp871
a(F121.54558
F25.02976
I1
g1
(g5
S'\x00\x00\x00\x00'
p872
tp873
Rp874
tp875
a(F121.6119
F25.05769
I1
g1
(g5
S'\x05\x00\x00\x00'
p876
tp877
Rp878
tp879
a(F121.51037
F25.11625
I1
g1
(g5
S'\x03\x00\x00\x00'
p880
tp881
Rp882
tp883
a(F121.56323
F25.03446
I2
g1
(g5
S'\x00\x00\x00\x00'
p884
tp885
Rp886
tp887
a(F121.53198
F25.03218
I1
g1
(g5
S'\x04\x00\x00\x00'
p888
tp889
Rp890
tp891
a(F121.50966
F25.08622
I2
g1
(g5
S'\x03\x00\x00\x00'
p892
tp893
Rp894
tp895
a(F121.53088
F25.12745
I1
g1
(g5
S'\x03\x00\x00\x00'
p896
tp897
Rp898
tp899
a(F121.52503
F25.06599
I1
g1
(g5
S'\x04\x00\x00\x00'
p900
tp901
Rp902
tp903
a(F121.50297
F25.12104
I1
g1
(g5
S'\x03\x00\x00\x00'
p904
tp905
Rp906
tp907
a(F121.54121
F25.0309
I1
g1
(g5
S'\x00\x00\x00\x00'
p908
tp909
Rp910
tp911
a(F121.56029
F25.05176
I3
g1
(g5
S'\x05\x00\x00\x00'
p912
tp913
Rp914
tp915
a(F121.52501
F25.09451
I1
g1
(g5
S'\x03\x00\x00\x00'
p916
tp917
Rp918
tp919
a(F121.5264
F25.08763
I1
g1
(g5
S'\x03\x00\x00\x00'
p920
tp921
Rp922
tp923
a(F121.54375
F25.05258
I2
g1
(g5
S'\x04\x00\x00\x00'
p924
tp925
Rp926
tp927
a(F121.55175
F25.05449
I1
g1
(g5
S'\x05\x00\x00\x00'
p928
tp929
Rp930
tp931
a(F121.51156
F25.07696
I1
g1
(g5
S'\x03\x00\x00\x00'
p932
tp933
Rp934
tp935
a(F121.60685
F25.0736
I1
g1
(g5
S'\x05\x00\x00\x00'
p936
tp937
Rp938
tp939
a(F121.5283
F25.06049
I1
g1
(g5
S'\x04\x00\x00\x00'
p940
tp941
Rp942
tp943
a(F121.54315
F25.06577
I1
g1
(g5
S'\x04\x00\x00\x00'
p944
tp945
Rp946
tp947
a(F121.56567
F25.05404
I1
g1
(g5
S'\x05\x00\x00\x00'
p948
tp949
Rp950
tp951
a(F121.53274
F25.04774
I1
g1
(g5
S'\x04\x00\x00\x00'
p952
tp953
Rp954
tp955
a(F121.49549
F25.02145
I2
g1
(g5
S'\x04\x00\x00\x00'
p956
tp957
Rp958
tp959
a(F121.5012
F25.0415
I1
g1
(g5
S'\x04\x00\x00\x00'
p960
tp961
Rp962
tp963
a(F121.59346
F25.05583
I1
g1
(g5
S'\x05\x00\x00\x00'
p964
tp965
Rp966
tp967
a(F121.50898
F25.11993
I1
g1
(g5
S'\x03\x00\x00\x00'
p968
tp969
Rp970
tp971
a(F121.51842
F25.11598
I1
g1
(g5
S'\x03\x00\x00\x00'
p972
tp973
Rp974
tp975
a(F121.51863
F25.02559
I1
g1
(g5
S'\x04\x00\x00\x00'
p976
tp977
Rp978
tp979
a(F121.51815
F25.12084
I1
g1
(g5
S'\x03\x00\x00\x00'
p980
tp981
Rp982
tp983
a(F121.54353
F25.0437
I1
g1
(g5
S'\x04\x00\x00\x00'
p984
tp985
Rp986
tp987
a(F121.53564
F25.1276
I1
g1
(g5
S'\x03\x00\x00\x00'
p988
tp989
Rp990
tp991
a(F121.57819
F25.0539
I1
g1
(g5
S'\x05\x00\x00\x00'
p992
tp993
Rp994
tp995
a(F121.59766
F25.08085
I1
g1
(g5
S'\x05\x00\x00\x00'
p996
tp997
Rp998
tp999
a(F121.51015
F25.07063
I1
g1
(g5
S'\x04\x00\x00\x00'
p1000
tp1001
Rp1002
tp1003
a(F121.54878
F25.08311
I1
g1
(g5
S'\x05\x00\x00\x00'
p1004
tp1005
Rp1006
tp1007
a(F121.58949
F25.07431
I1
g1
(g5
S'\x05\x00\x00\x00'
p1008
tp1009
Rp1010
tp1011
a(F121.59321
F25.04922
I1
g1
(g5
S'\x05\x00\x00\x00'
p1012
tp1013
Rp1014
tp1015
a(F121.52616
F25.03428
I1
g1
(g5
S'\x04\x00\x00\x00'
p1016
tp1017
Rp1018
tp1019
a(F121.5426
F25.05741
I1
g1
(g5
S'\x04\x00\x00\x00'
p1020
tp1021
Rp1022
tp1023
a(F121.5274
F25.08473
I1
g1
(g5
S'\x03\x00\x00\x00'
p1024
tp1025
Rp1026
tp1027
a(F121.51163
F25.06421
I1
g1
(g5
S'\x04\x00\x00\x00'
p1028
tp1029
Rp1030
tp1031
a(F121.55484
F25.01915
I2
g1
(g5
S'\x00\x00\x00\x00'
p1032
tp1033
Rp1034
tp1035
a(F121.59227
F25.05785
I1
g1
(g5
S'\x05\x00\x00\x00'
p1036
tp1037
Rp1038
tp1039
a(F121.50316
F25.13417
I1
g1
(g5
S'\x03\x00\x00\x00'
p1040
tp1041
Rp1042
tp1043
a(F121.53993
F25.05762
I1
g1
(g5
S'\x04\x00\x00\x00'
p1044
tp1045
Rp1046
tp1047
a(F121.52507
F25.09615
I1
g1
(g5
S'\x03\x00\x00\x00'
p1048
tp1049
Rp1050
tp1051
a(F121.52186
F25.08728
I1
g1
(g5
S'\x03\x00\x00\x00'
p1052
tp1053
Rp1054
tp1055
a(F121.50931
F25.04779
I1
g1
(g5
S'\x04\x00\x00\x00'
p1056
tp1057
Rp1058
tp1059
a(F121.54255
F25.04808
I1
g1
(g5
S'\x04\x00\x00\x00'
p1060
tp1061
Rp1062
tp1063
a(F121.46808
F25.12209
I1
g1
(g5
S'\x03\x00\x00\x00'
p1064
tp1065
Rp1066
tp1067
a(F121.57585
F25.03778
I1
g1
(g5
S'\x05\x00\x00\x00'
p1068
tp1069
Rp1070
tp1071
a(F121.52301
F24.99702
I1
g1
(g5
S'\x00\x00\x00\x00'
p1072
tp1073
Rp1074
tp1075
a(F121.50562
F25.03058
I1
g1
(g5
S'\x04\x00\x00\x00'
p1076
tp1077
Rp1078
tp1079
a(F121.53124
F25.05962
I1
g1
(g5
S'\x04\x00\x00\x00'
p1080
tp1081
Rp1082
tp1083
a(F121.5213
F25.09716
I1
g1
(g5
S'\x03\x00\x00\x00'
p1084
tp1085
Rp1086
tp1087
a(F121.50803
F25.086
I1
g1
(g5
S'\x03\x00\x00\x00'
p1088
tp1089
Rp1090
tp1091
a(F121.5434
F25.04448
I1
g1
(g5
S'\x04\x00\x00\x00'
p1092
tp1093
Rp1094
tp1095
a(F121.51714
F25.08532
I1
g1
(g5
S'\x03\x00\x00\x00'
p1096
tp1097
Rp1098
tp1099
a(F121.53696
F25.06551
I1
g1
(g5
S'\x04\x00\x00\x00'
p1100
tp1101
Rp1102
tp1103
a(F121.5027404
F25.1363615
I1
g1
(g5
S'\x03\x00\x00\x00'
p1104
tp1105
Rp1106
tp1107
a(F121.56952
F25.08133
I1
g1
(g5
S'\x05\x00\x00\x00'
p1108
tp1109
Rp1110
tp1111
a(F121.5254
F25.11691
I1
g1
(g5
S'\x03\x00\x00\x00'
p1112
tp1113
Rp1114
tp1115
a(F121.52663
F25.05787
I1
g1
(g5
S'\x04\x00\x00\x00'
p1116
tp1117
Rp1118
tp1119
a(F121.50663
F25.0462
I1
g1
(g5
S'\x04\x00\x00\x00'
p1120
tp1121
Rp1122
tp1123
a(F121.56263
F24.9839
I1
g1
(g5
S'\x00\x00\x00\x00'
p1124
tp1125
Rp1126
tp1127
a(F121.53439
F25.04868
I1
g1
(g5
S'\x04\x00\x00\x00'
p1128
tp1129
Rp1130
tp1131
a(F121.5125
F25.11973
I1
g1
(g5
S'\x03\x00\x00\x00'
p1132
tp1133
Rp1134
tp1135
a(F121.53225
F25.03651
I1
g1
(g5
S'\x04\x00\x00\x00'
p1136
tp1137
Rp1138
tp1139
a(F121.55319
F25.03811
I1
g1
(g5
S'\x00\x00\x00\x00'
p1140
tp1141
Rp1142
tp1143
a(F121.55229
F25.12618
I1
g1
(g5
S'\x03\x00\x00\x00'
p1144
tp1145
Rp1146
tp1147
a(F121.52381
F25.101
I1
g1
(g5
S'\x03\x00\x00\x00'
p1148
tp1149
Rp1150
tp1151
a(F121.57031
F25.03821
I1
g1
(g5
S'\x05\x00\x00\x00'
p1152
tp1153
Rp1154
tp1155
a(F121.53016
F25.11654
I2
g1
(g5
S'\x03\x00\x00\x00'
p1156
tp1157
Rp1158
tp1159
a(F121.51276
F25.11135
I1
g1
(g5
S'\x03\x00\x00\x00'
p1160
tp1161
Rp1162
tp1163
a(F121.50631
F25.03462
I1
g1
(g5
S'\x04\x00\x00\x00'
p1164
tp1165
Rp1166
tp1167
a(F121.58115
F25.05066
I1
g1
(g5
S'\x05\x00\x00\x00'
p1168
tp1169
Rp1170
tp1171
a(F121.60466
F25.08476
I1
g1
(g5
S'\x05\x00\x00\x00'
p1172
tp1173
Rp1174
tp1175
a(F121.5454
F25.06543
I1
g1
(g5
S'\x05\x00\x00\x00'
p1176
tp1177
Rp1178
tp1179
a(F121.56557
F24.98737
I1
g1
(g5
S'\x00\x00\x00\x00'
p1180
tp1181
Rp1182
tp1183
a(F121.56471
F25.06224
I1
g1
(g5
S'\x05\x00\x00\x00'
p1184
tp1185
Rp1186
tp1187
a(F121.54851
F25.05473
I1
g1
(g5
S'\x05\x00\x00\x00'
p1188
tp1189
Rp1190
tp1191
a(F121.54932
F25.06276
I1
g1
(g5
S'\x05\x00\x00\x00'
p1192
tp1193
Rp1194
tp1195
a(F121.50238
F25.03097
I1
g1
(g5
S'\x04\x00\x00\x00'
p1196
tp1197
Rp1198
tp1199
a(F121.59389
F25.07177
I5
g1
(g5
S'\x05\x00\x00\x00'
p1200
tp1201
Rp1202
tp1203
a(F121.51657
F25.08613
I1
g1
(g5
S'\x03\x00\x00\x00'
p1204
tp1205
Rp1206
tp1207
a(F121.60681
F25.05465
I2
g1
(g5
S'\x05\x00\x00\x00'
p1208
tp1209
Rp1210
tp1211
a(F121.51789
F25.05013
I1
g1
(g5
S'\x04\x00\x00\x00'
p1212
tp1213
Rp1214
tp1215
a(F121.55339
F25.02453
I1
g1
(g5
S'\x00\x00\x00\x00'
p1216
tp1217
Rp1218
tp1219
a(F121.55808
F25.03237
I1
g1
(g5
S'\x00\x00\x00\x00'
p1220
tp1221
Rp1222
tp1223
a(F121.54677
F25.01713
I1
g1
(g5
S'\x00\x00\x00\x00'
p1224
tp1225
Rp1226
tp1227
a(F121.55189
F25.03078
I1
g1
(g5
S'\x00\x00\x00\x00'
p1228
tp1229
Rp1230
tp1231
a(F121.51824
F25.09184
I1
g1
(g5
S'\x03\x00\x00\x00'
p1232
tp1233
Rp1234
tp1235
a(F121.51674
F25.04595
I2
g1
(g5
S'\x04\x00\x00\x00'
p1236
tp1237
Rp1238
tp1239
a(F121.54923
F25.03371
I1
g1
(g5
S'\x00\x00\x00\x00'
p1240
tp1241
Rp1242
tp1243
a(F121.60155
F25.08503
I1
g1
(g5
S'\x05\x00\x00\x00'
p1244
tp1245
Rp1246
tp1247
a(F121.55056
F25.05402
I1
g1
(g5
S'\x05\x00\x00\x00'
p1248
tp1249
Rp1250
tp1251
a(F121.56815
F25.04907
I1
g1
(g5
S'\x05\x00\x00\x00'
p1252
tp1253
Rp1254
tp1255
a(F121.5666
F25.04135
I2
g1
(g5
S'\x05\x00\x00\x00'
p1256
tp1257
Rp1258
tp1259
a(F121.53093
F25.10617
I1
g1
(g5
S'\x03\x00\x00\x00'
p1260
tp1261
Rp1262
tp1263
a(F121.61303
F25.09584
I1
g1
(g5
S'\x05\x00\x00\x00'
p1264
tp1265
Rp1266
tp1267
a(F121.48907
F25.14067
I1
g1
(g5
S'\x03\x00\x00\x00'
p1268
tp1269
Rp1270
tp1271
a(F121.58168
F25.04298
I1
g1
(g5
S'\x05\x00\x00\x00'
p1272
tp1273
Rp1274
tp1275
a(F121.50696
F25.11654
I1
g1
(g5
S'\x03\x00\x00\x00'
p1276
tp1277
Rp1278
tp1279
a(F121.51943
F25.03184
I1
g1
(g5
S'\x04\x00\x00\x00'
p1280
tp1281
Rp1282
tp1283
a(F121.54223
F25.0658
I1
g1
(g5
S'\x04\x00\x00\x00'
p1284
tp1285
Rp1286
tp1287
a(F121.5148
F25.0653
I1
g1
(g5
S'\x04\x00\x00\x00'
p1288
tp1289
Rp1290
tp1291
a(F121.57316
F25.08529
I1
g1
(g5
S'\x05\x00\x00\x00'
p1292
tp1293
Rp1294
tp1295
a(F121.31628
F25.00506
I1
g1
(g5
S'\x06\x00\x00\x00'
p1296
tp1297
Rp1298
tp1299
a(F121.46684
F25.11906
I1
g1
(g5
S'\x03\x00\x00\x00'
p1300
tp1301
Rp1302
tp1303
a(F121.51942
F25.08821
I2
g1
(g5
S'\x03\x00\x00\x00'
p1304
tp1305
Rp1306
tp1307
a(F121.50805
F25.04277
I2
g1
(g5
S'\x04\x00\x00\x00'
p1308
tp1309
Rp1310
tp1311
a(F121.53227
F25.05119
I1
g1
(g5
S'\x04\x00\x00\x00'
p1312
tp1313
Rp1314
tp1315
a(F121.5095
F25.06171
I1
g1
(g5
S'\x04\x00\x00\x00'
p1316
tp1317
Rp1318
tp1319
a(F121.53628
F25.0454
I1
g1
(g5
S'\x04\x00\x00\x00'
p1320
tp1321
Rp1322
tp1323
a(F121.5474
F25.04562
I1
g1
(g5
S'\x04\x00\x00\x00'
p1324
tp1325
Rp1326
tp1327
a(F121.52457
F25.03358
I1
g1
(g5
S'\x04\x00\x00\x00'
p1328
tp1329
Rp1330
tp1331
a(F121.46804
F25.1284
I1
g1
(g5
S'\x03\x00\x00\x00'
p1332
tp1333
Rp1334
tp1335
a(F121.52868
F25.12092
I1
g1
(g5
S'\x03\x00\x00\x00'
p1336
tp1337
Rp1338
tp1339
a(F121.56685
F25.0538
I2
g1
(g5
S'\x05\x00\x00\x00'
p1340
tp1341
Rp1342
tp1343
a(F121.54372
F25.02529
I1
g1
(g5
S'\x00\x00\x00\x00'
p1344
tp1345
Rp1346
tp1347
a(F121.5841
F25.04552
I1
g1
(g5
S'\x05\x00\x00\x00'
p1348
tp1349
Rp1350
tp1351
a(F121.52133
F25.18552
I1
g1
(g5
S'\x03\x00\x00\x00'
p1352
tp1353
Rp1354
tp1355
a(F121.4935
F25.13964
I3
g1
(g5
S'\x03\x00\x00\x00'
p1356
tp1357
Rp1358
tp1359
a(F121.56335
F25.04347
I1
g1
(g5
S'\x05\x00\x00\x00'
p1360
tp1361
Rp1362
tp1363
a(F121.61165
F25.0597
I1
g1
(g5
S'\x05\x00\x00\x00'
p1364
tp1365
Rp1366
tp1367
a(F121.5359
F25.04995
I1
g1
(g5
S'\x04\x00\x00\x00'
p1368
tp1369
Rp1370
tp1371
a(F121.54801
F24.99507
I1
g1
(g5
S'\x00\x00\x00\x00'
p1372
tp1373
Rp1374
tp1375
a(F121.54641
F24.99044
I1
g1
(g5
S'\x00\x00\x00\x00'
p1376
tp1377
Rp1378
tp1379
a(F121.58058
F25.02855
I2
g1
(g5
S'\x00\x00\x00\x00'
p1380
tp1381
Rp1382
tp1383
a(F121.54763
F25.00626
I1
g1
(g5
S'\x00\x00\x00\x00'
p1384
tp1385
Rp1386
tp1387
a(F121.53737
F25.05851
I1
g1
(g5
S'\x04\x00\x00\x00'
p1388
tp1389
Rp1390
tp1391
a(F121.55556
F25.03806
I1
g1
(g5
S'\x00\x00\x00\x00'
p1392
tp1393
Rp1394
tp1395
a(F121.4984
F25.02556
I1
g1
(g5
S'\x04\x00\x00\x00'
p1396
tp1397
Rp1398
tp1399
a(F121.54242
F25.10057
I2
g1
(g5
S'\x03\x00\x00\x00'
p1400
tp1401
Rp1402
tp1403
a(F121.53008
F25.04647
I1
g1
(g5
S'\x04\x00\x00\x00'
p1404
tp1405
Rp1406
tp1407
a(F121.55749
F25.05286
I1
g1
(g5
S'\x05\x00\x00\x00'
p1408
tp1409
Rp1410
tp1411
a(F121.57901
F24.98463
I2
g1
(g5
S'\x00\x00\x00\x00'
p1412
tp1413
Rp1414
tp1415
a(F121.50406
F25.09323
I1
g1
(g5
S'\x03\x00\x00\x00'
p1416
tp1417
Rp1418
tp1419
a(F121.52822
F25.05234
I1
g1
(g5
S'\x04\x00\x00\x00'
p1420
tp1421
Rp1422
tp1423
a(F121.53354
F25.09904
I1
g1
(g5
S'\x03\x00\x00\x00'
p1424
tp1425
Rp1426
tp1427
a(F121.51893
F25.08385
I1
g1
(g5
S'\x03\x00\x00\x00'
p1428
tp1429
Rp1430
tp1431
a(F121.55097
F24.98793
I1
g1
(g5
S'\x00\x00\x00\x00'
p1432
tp1433
Rp1434
tp1435
a(F121.50685
F25.04098
I1
g1
(g5
S'\x04\x00\x00\x00'
p1436
tp1437
Rp1438
tp1439
a(F121.52533
F25.02137
I1
g1
(g5
S'\x04\x00\x00\x00'
p1440
tp1441
Rp1442
tp1443
a(F121.55936
F25.12654
I1
g1
(g5
S'\x03\x00\x00\x00'
p1444
tp1445
Rp1446
tp1447
a(F121.57902
F25.03806
I1
g1
(g5
S'\x05\x00\x00\x00'
p1448
tp1449
Rp1450
tp1451
a(F121.52973
F25.08792
I2
g1
(g5
S'\x03\x00\x00\x00'
p1452
tp1453
Rp1454
tp1455
a(F121.49975
F25.13869
I1
g1
(g5
S'\x03\x00\x00\x00'
p1456
tp1457
Rp1458
tp1459
a(F121.50616
F25.04458
I1
g1
(g5
S'\x04\x00\x00\x00'
p1460
tp1461
Rp1462
tp1463
a(F121.57511
F25.05172
I1
g1
(g5
S'\x05\x00\x00\x00'
p1464
tp1465
Rp1466
tp1467
a(F121.52847
F25.10562
I1
g1
(g5
S'\x03\x00\x00\x00'
p1468
tp1469
Rp1470
tp1471
a(F121.58301
F25.03726
I1
g1
(g5
S'\x05\x00\x00\x00'
p1472
tp1473
Rp1474
tp1475
a(F121.57132
F25.08531
I1
g1
(g5
S'\x05\x00\x00\x00'
p1476
tp1477
Rp1478
tp1479
a(F121.58702
F24.98546
I1
g1
(g5
S'\x00\x00\x00\x00'
p1480
tp1481
Rp1482
tp1483
a(F121.50582
F25.04547
I1
g1
(g5
S'\x04\x00\x00\x00'
p1484
tp1485
Rp1486
tp1487
a(F121.50093
F25.1393
I1
g1
(g5
S'\x03\x00\x00\x00'
p1488
tp1489
Rp1490
tp1491
a(F121.50228
F25.0392
I1
g1
(g5
S'\x04\x00\x00\x00'
p1492
tp1493
Rp1494
tp1495
a(F121.57427
F25.0821
I1
g1
(g5
S'\x05\x00\x00\x00'
p1496
tp1497
Rp1498
tp1499
a(F121.53525
F25.03555
I1
g1
(g5
S'\x04\x00\x00\x00'
p1500
tp1501
Rp1502
tp1503
a(F121.54029
F25.06046
I1
g1
(g5
S'\x04\x00\x00\x00'
p1504
tp1505
Rp1506
tp1507
a(F121.53984
F25.13624
I1
g1
(g5
S'\x03\x00\x00\x00'
p1508
tp1509
Rp1510
tp1511
a(F121.5638
F25.06276
I1
g1
(g5
S'\x05\x00\x00\x00'
p1512
tp1513
Rp1514
tp1515
a(F121.50715
F25.04293
I1
g1
(g5
S'\x04\x00\x00\x00'
p1516
tp1517
Rp1518
tp1519
a(F121.50977
F25.04488
I1
g1
(g5
S'\x04\x00\x00\x00'
p1520
tp1521
Rp1522
tp1523
a(F121.53005
F25.03864
I2
g1
(g5
S'\x04\x00\x00\x00'
p1524
tp1525
Rp1526
tp1527
a(F121.52722
F25.10899
I1
g1
(g5
S'\x03\x00\x00\x00'
p1528
tp1529
Rp1530
tp1531
a(F121.50395
F25.09246
I1
g1
(g5
S'\x03\x00\x00\x00'
p1532
tp1533
Rp1534
tp1535
a(F121.52597
F25.05681
I1
g1
(g5
S'\x04\x00\x00\x00'
p1536
tp1537
Rp1538
tp1539
a(F121.56039
F24.98447
I1
g1
(g5
S'\x00\x00\x00\x00'
p1540
tp1541
Rp1542
tp1543
a(F121.50285
F25.13231
I1
g1
(g5
S'\x03\x00\x00\x00'
p1544
tp1545
Rp1546
tp1547
a(F121.53873
F25.04143
I3
g1
(g5
S'\x04\x00\x00\x00'
p1548
tp1549
Rp1550
tp1551
a(F121.5085
F25.1177
I1
g1
(g5
S'\x03\x00\x00\x00'
p1552
tp1553
Rp1554
tp1555
a(F121.58886
F25.05374
I3
g1
(g5
S'\x05\x00\x00\x00'
p1556
tp1557
Rp1558
tp1559
a(F121.5294
F25.09698
I2
g1
(g5
S'\x03\x00\x00\x00'
p1560
tp1561
Rp1562
tp1563
a(F121.55626
F25.03565
I1
g1
(g5
S'\x00\x00\x00\x00'
p1564
tp1565
Rp1566
tp1567
a(F121.58531
F25.03972
I1
g1
(g5
S'\x05\x00\x00\x00'
p1568
tp1569
Rp1570
tp1571
a(F121.56173
F24.9829
I1
g1
(g5
S'\x00\x00\x00\x00'
p1572
tp1573
Rp1574
tp1575
a(F121.53777
F24.99171
I1
g1
(g5
S'\x00\x00\x00\x00'
p1576
tp1577
Rp1578
tp1579
a(F121.52649
F25.05297
I1
g1
(g5
S'\x04\x00\x00\x00'
p1580
tp1581
Rp1582
tp1583
a(F121.55654
F25.04889
I1
g1
(g5
S'\x05\x00\x00\x00'
p1584
tp1585
Rp1586
tp1587
a(F121.54034
F25.07856
I2
g1
(g5
S'\x04\x00\x00\x00'
p1588
tp1589
Rp1590
tp1591
a(F121.54
F25.00976
I1
g1
(g5
S'\x00\x00\x00\x00'
p1592
tp1593
Rp1594
tp1595
a(F121.5446
F25.0272
I1
g1
(g5
S'\x00\x00\x00\x00'
p1596
tp1597
Rp1598
tp1599
a(F121.54022
F25.04293
I1
g1
(g5
S'\x04\x00\x00\x00'
p1600
tp1601
Rp1602
tp1603
a(F121.5625
F24.98174
I1
g1
(g5
S'\x00\x00\x00\x00'
p1604
tp1605
Rp1606
tp1607
a(F121.58202
F25.0457
I1
g1
(g5
S'\x05\x00\x00\x00'
p1608
tp1609
Rp1610
tp1611
a(F121.50471
F25.13616
I1
g1
(g5
S'\x03\x00\x00\x00'
p1612
tp1613
Rp1614
tp1615
a(F121.54937
F25.02899
I1
g1
(g5
S'\x00\x00\x00\x00'
p1616
tp1617
Rp1618
tp1619
a(F121.53719
F25.00698
I1
g1
(g5
S'\x00\x00\x00\x00'
p1620
tp1621
Rp1622
tp1623
a(F121.46501
F25.11964
I1
g1
(g5
S'\x03\x00\x00\x00'
p1624
tp1625
Rp1626
tp1627
a(F121.54549
F25.02812
I1
g1
(g5
S'\x00\x00\x00\x00'
p1628
tp1629
Rp1630
tp1631
a(F121.55761
F25.02804
I1
g1
(g5
S'\x00\x00\x00\x00'
p1632
tp1633
Rp1634
tp1635
a(F121.55646
F25.00029
I1
g1
(g5
S'\x00\x00\x00\x00'
p1636
tp1637
Rp1638
tp1639
a(F121.57105
F25.04072
I1
g1
(g5
S'\x05\x00\x00\x00'
p1640
tp1641
Rp1642
tp1643
a(F121.47261
F25.02915
I1
g1
(g5
S'\x04\x00\x00\x00'
p1644
tp1645
Rp1646
tp1647
a(F121.50833
F25.04464
I3
g1
(g5
S'\x04\x00\x00\x00'
p1648
tp1649
Rp1650
tp1651
a(F121.56993
F25.00363
I1
g1
(g5
S'\x00\x00\x00\x00'
p1652
tp1653
Rp1654
tp1655
a(F121.55978
F24.98805
I1
g1
(g5
S'\x00\x00\x00\x00'
p1656
tp1657
Rp1658
tp1659
a(F121.50516
F25.09236
I4
g1
(g5
S'\x03\x00\x00\x00'
p1660
tp1661
Rp1662
tp1663
a(F121.53058
F25.02253
I1
g1
(g5
S'\x04\x00\x00\x00'
p1664
tp1665
Rp1666
tp1667
a(F121.5389
F24.99038
I1
g1
(g5
S'\x00\x00\x00\x00'
p1668
tp1669
Rp1670
tp1671
a(F121.54049
F25.03529
I1
g1
(g5
S'\x04\x00\x00\x00'
p1672
tp1673
Rp1674
tp1675
a(F121.524
F25.07733
I2
g1
(g5
S'\x04\x00\x00\x00'
p1676
tp1677
Rp1678
tp1679
a(F121.519
F25.05725
I1
g1
(g5
S'\x04\x00\x00\x00'
p1680
tp1681
Rp1682
tp1683
a(F121.57929
F24.98674
I1
g1
(g5
S'\x00\x00\x00\x00'
p1684
tp1685
Rp1686
tp1687
a(F121.55805
F25.00003
I1
g1
(g5
S'\x00\x00\x00\x00'
p1688
tp1689
Rp1690
tp1691
a(F121.53517
F25.00853
I1
g1
(g5
S'\x00\x00\x00\x00'
p1692
tp1693
Rp1694
tp1695
a(F121.5245
F25.01824
I2
g1
(g5
S'\x04\x00\x00\x00'
p1696
tp1697
Rp1698
tp1699
a(F121.51761
F25.08658
I1
g1
(g5
S'\x03\x00\x00\x00'
p1700
tp1701
Rp1702
tp1703
a(F121.51276
F25.07092
I1
g1
(g5
S'\x04\x00\x00\x00'
p1704
tp1705
Rp1706
tp1707
a(F121.58463
F25.03776
I1
g1
(g5
S'\x05\x00\x00\x00'
p1708
tp1709
Rp1710
tp1711
a(F121.50552
F25.11663
I1
g1
(g5
S'\x03\x00\x00\x00'
p1712
tp1713
Rp1714
tp1715
a(F120.68485
F24.18727
I1
g1
(g5
S'\x02\x00\x00\x00'
p1716
tp1717
Rp1718
tp1719
a(F121.50677
F25.08531
I1
g1
(g5
S'\x03\x00\x00\x00'
p1720
tp1721
Rp1722
tp1723
a(F121.52275
F25.05105
I2
g1
(g5
S'\x04\x00\x00\x00'
p1724
tp1725
Rp1726
tp1727
a(F121.52395
F25.06109
I1
g1
(g5
S'\x04\x00\x00\x00'
p1728
tp1729
Rp1730
tp1731
a(F121.55601
F25.0405
I1
g1
(g5
S'\x05\x00\x00\x00'
p1732
tp1733
Rp1734
tp1735
a(F121.49884
F25.03596
I1
g1
(g5
S'\x04\x00\x00\x00'
p1736
tp1737
Rp1738
tp1739
a(F121.49927
F25.14187
I1
g1
(g5
S'\x03\x00\x00\x00'
p1740
tp1741
Rp1742
tp1743
a(F121.50833
F25.04507
I1
g1
(g5
S'\x04\x00\x00\x00'
p1744
tp1745
Rp1746
tp1747
a(F121.56346
F25.04844
I1
g1
(g5
S'\x05\x00\x00\x00'
p1748
tp1749
Rp1750
tp1751
a(F121.56695
F25.00515
I1
g1
(g5
S'\x00\x00\x00\x00'
p1752
tp1753
Rp1754
tp1755
a(F121.53333
F25.1193
I1
g1
(g5
S'\x03\x00\x00\x00'
p1756
tp1757
Rp1758
tp1759
a(F121.5284
F25.11409
I1
g1
(g5
S'\x03\x00\x00\x00'
p1760
tp1761
Rp1762
tp1763
a(F121.56023
F25.08966
I1
g1
(g5
S'\x05\x00\x00\x00'
p1764
tp1765
Rp1766
tp1767
a(F121.48899
F25.10082
I1
g1
(g5
S'\x03\x00\x00\x00'
p1768
tp1769
Rp1770
tp1771
a(F121.50361
F25.12334
I1
g1
(g5
S'\x03\x00\x00\x00'
p1772
tp1773
Rp1774
tp1775
a(F121.55429
F25.02136
I1
g1
(g5
S'\x00\x00\x00\x00'
p1776
tp1777
Rp1778
tp1779
a(F121.55253
F24.9997
I1
g1
(g5
S'\x00\x00\x00\x00'
p1780
tp1781
Rp1782
tp1783
a(F121.53363
F25.11835
I1
g1
(g5
S'\x03\x00\x00\x00'
p1784
tp1785
Rp1786
tp1787
a(F121.58004
F25.03866
I2
g1
(g5
S'\x05\x00\x00\x00'
p1788
tp1789
Rp1790
tp1791
a(F121.56863
F25.05296
I3
g1
(g5
S'\x05\x00\x00\x00'
p1792
tp1793
Rp1794
tp1795
a(F121.53081
F25.11287
I1
g1
(g5
S'\x03\x00\x00\x00'
p1796
tp1797
Rp1798
tp1799
a(F121.51952
F25.08889
I1
g1
(g5
S'\x03\x00\x00\x00'
p1800
tp1801
Rp1802
tp1803
a(F121.57734
F24.99054
I1
g1
(g5
S'\x00\x00\x00\x00'
p1804
tp1805
Rp1806
tp1807
a(F121.55542
F25.02207
I1
g1
(g5
S'\x00\x00\x00\x00'
p1808
tp1809
Rp1810
tp1811
a(F121.54314
F25.02424
I1
g1
(g5
S'\x00\x00\x00\x00'
p1812
tp1813
Rp1814
tp1815
a(F121.57984
F25.04861
I1
g1
(g5
S'\x05\x00\x00\x00'
p1816
tp1817
Rp1818
tp1819
a(F121.52041
F25.1059
I1
g1
(g5
S'\x03\x00\x00\x00'
p1820
tp1821
Rp1822
tp1823
a(F121.49866
F25.14325
I1
g1
(g5
S'\x03\x00\x00\x00'
p1824
tp1825
Rp1826
tp1827
a(F121.54835
F25.0259
I1
g1
(g5
S'\x00\x00\x00\x00'
p1828
tp1829
Rp1830
tp1831
a(F121.57606
F25.00334
I2
g1
(g5
S'\x00\x00\x00\x00'
p1832
tp1833
Rp1834
tp1835
a(F121.52363
F25.02427
I1
g1
(g5
S'\x04\x00\x00\x00'
p1836
tp1837
Rp1838
tp1839
a(F121.57636
F25.03973
I1
g1
(g5
S'\x05\x00\x00\x00'
p1840
tp1841
Rp1842
tp1843
a(F121.53454
F25.02642
I1
g1
(g5
S'\x04\x00\x00\x00'
p1844
tp1845
Rp1846
tp1847
a(F121.57646
F25.07703
I1
g1
(g5
S'\x05\x00\x00\x00'
p1848
tp1849
Rp1850
tp1851
a(F121.48515
F25.13849
I1
g1
(g5
S'\x03\x00\x00\x00'
p1852
tp1853
Rp1854
tp1855
a(F121.5537
F25.06738
I3
g1
(g5
S'\x05\x00\x00\x00'
p1856
tp1857
Rp1858
tp1859
a(F121.50333
F25.03882
I1
g1
(g5
S'\x04\x00\x00\x00'
p1860
tp1861
Rp1862
tp1863
a(F121.52755
F25.02057
I1
g1
(g5
S'\x04\x00\x00\x00'
p1864
tp1865
Rp1866
tp1867
a(F121.52906
F25.13859
I1
g1
(g5
S'\x03\x00\x00\x00'
p1868
tp1869
Rp1870
tp1871
a(F121.54562
F25.03917
I1
g1
(g5
S'\x04\x00\x00\x00'
p1872
tp1873
Rp1874
tp1875
a(F121.52021
F25.02535
I1
g1
(g5
S'\x04\x00\x00\x00'
p1876
tp1877
Rp1878
tp1879
a(F121.56984
F25.05576
I1
g1
(g5
S'\x05\x00\x00\x00'
p1880
tp1881
Rp1882
tp1883
a(F121.57409
F25.03604
I1
g1
(g5
S'\x05\x00\x00\x00'
p1884
tp1885
Rp1886
tp1887
a(F121.55812
F25.03471
I1
g1
(g5
S'\x00\x00\x00\x00'
p1888
tp1889
Rp1890
tp1891
a(F121.54072
F24.99802
I1
g1
(g5
S'\x00\x00\x00\x00'
p1892
tp1893
Rp1894
tp1895
a(F121.52955
F25.05726
I1
g1
(g5
S'\x04\x00\x00\x00'
p1896
tp1897
Rp1898
tp1899
a(F121.52438
F25.04545
I2
g1
(g5
S'\x04\x00\x00\x00'
p1900
tp1901
Rp1902
tp1903
a(F121.57286
F25.00129
I1
g1
(g5
S'\x00\x00\x00\x00'
p1904
tp1905
Rp1906
tp1907
a(F121.57479
F25.04394
I1
g1
(g5
S'\x05\x00\x00\x00'
p1908
tp1909
Rp1910
tp1911
a(F121.52328
F25.06023
I1
g1
(g5
S'\x04\x00\x00\x00'
p1912
tp1913
Rp1914
tp1915
a(F121.61396
F25.05225
I1
g1
(g5
S'\x05\x00\x00\x00'
p1916
tp1917
Rp1918
tp1919
a(F121.58871
F25.06634
I1
g1
(g5
S'\x05\x00\x00\x00'
p1920
tp1921
Rp1922
tp1923
a(F121.55092
F24.99613
I1
g1
(g5
S'\x00\x00\x00\x00'
p1924
tp1925
Rp1926
tp1927
a(F121.564
F25.0608
I1
g1
(g5
S'\x05\x00\x00\x00'
p1928
tp1929
Rp1930
tp1931
a(F121.59352
F25.07003
I1
g1
(g5
S'\x05\x00\x00\x00'
p1932
tp1933
Rp1934
tp1935
a(F121.57583
F24.9863
I4
g1
(g5
S'\x00\x00\x00\x00'
p1936
tp1937
Rp1938
tp1939
a(F121.50569
F25.04432
I1
g1
(g5
S'\x04\x00\x00\x00'
p1940
tp1941
Rp1942
tp1943
a(F121.55555
F25.01993
I1
g1
(g5
S'\x00\x00\x00\x00'
p1944
tp1945
Rp1946
tp1947
a(F121.53153
F25.12258
I1
g1
(g5
S'\x03\x00\x00\x00'
p1948
tp1949
Rp1950
tp1951
a(F121.5987
F25.07915
I1
g1
(g5
S'\x05\x00\x00\x00'
p1952
tp1953
Rp1954
tp1955
a(F121.55628
F25.02545
I1
g1
(g5
S'\x00\x00\x00\x00'
p1956
tp1957
Rp1958
tp1959
a(F121.53877
F25.03746
I4
g1
(g5
S'\x04\x00\x00\x00'
p1960
tp1961
Rp1962
tp1963
a(F121.57854
F25.01678
I1
g1
(g5
S'\x00\x00\x00\x00'
p1964
tp1965
Rp1966
tp1967
a(F121.52602
F25.10644
I1
g1
(g5
S'\x03\x00\x00\x00'
p1968
tp1969
Rp1970
tp1971
a(F121.47863
F25.11321
I1
g1
(g5
S'\x03\x00\x00\x00'
p1972
tp1973
Rp1974
tp1975
a(F121.52119
F25.06011
I1
g1
(g5
S'\x04\x00\x00\x00'
p1976
tp1977
Rp1978
tp1979
a(F121.5541264
F25.0552958
I1
g1
(g5
S'\x05\x00\x00\x00'
p1980
tp1981
Rp1982
tp1983
a(F121.52761
F25.02315
I1
g1
(g5
S'\x04\x00\x00\x00'
p1984
tp1985
Rp1986
tp1987
a(F121.5551
F25.03396
I1
g1
(g5
S'\x00\x00\x00\x00'
p1988
tp1989
Rp1990
tp1991
a(F121.5198716
F25.0421407
I1
g1
(g5
S'\x04\x00\x00\x00'
p1992
tp1993
Rp1994
tp1995
a(F121.5249
F25.08701
I1
g1
(g5
S'\x03\x00\x00\x00'
p1996
tp1997
Rp1998
tp1999
a(F121.5411
F25.05624
I1
g1
(g5
S'\x04\x00\x00\x00'
p2000
tp2001
Rp2002
tp2003
a(F121.56079
F25.03139
I1
g1
(g5
S'\x00\x00\x00\x00'
p2004
tp2005
Rp2006
tp2007
a(F121.57714
F25.01902
I2
g1
(g5
S'\x00\x00\x00\x00'
p2008
tp2009
Rp2010
tp2011
a(F121.52504
F25.06729
I1
g1
(g5
S'\x04\x00\x00\x00'
p2012
tp2013
Rp2014
tp2015
a(F120.34252
F22.64679
I1
g1
(g5
S'\x01\x00\x00\x00'
p2016
tp2017
Rp2018
tp2019
a(F121.56662
F25.05208
I3
g1
(g5
S'\x05\x00\x00\x00'
p2020
tp2021
Rp2022
tp2023
a(F121.48141
F25.11524
I1
g1
(g5
S'\x03\x00\x00\x00'
p2024
tp2025
Rp2026
tp2027
a(F121.52531
F25.09873
I1
g1
(g5
S'\x03\x00\x00\x00'
p2028
tp2029
Rp2030
tp2031
a(F121.5428
F25.05074
I1
g1
(g5
S'\x04\x00\x00\x00'
p2032
tp2033
Rp2034
tp2035
a(F121.52242
F25.04471
I4
g1
(g5
S'\x04\x00\x00\x00'
p2036
tp2037
Rp2038
tp2039
a(F121.52598
F25.11871
I1
g1
(g5
S'\x03\x00\x00\x00'
p2040
tp2041
Rp2042
tp2043
a(F121.56111
F24.99313
I1
g1
(g5
S'\x00\x00\x00\x00'
p2044
tp2045
Rp2046
tp2047
a(F121.55167
F25.04516
I1
g1
(g5
S'\x05\x00\x00\x00'
p2048
tp2049
Rp2050
tp2051
a(F121.53662
F25.06429
I2
g1
(g5
S'\x04\x00\x00\x00'
p2052
tp2053
Rp2054
tp2055
a(F121.53912
F25.11289
I1
g1
(g5
S'\x03\x00\x00\x00'
p2056
tp2057
Rp2058
tp2059
a(F121.56688
F25.03344
I1
g1
(g5
S'\x00\x00\x00\x00'
p2060
tp2061
Rp2062
tp2063
a(F121.58832
F25.04061
I1
g1
(g5
S'\x05\x00\x00\x00'
p2064
tp2065
Rp2066
tp2067
a(F121.52872
F25.10151
I1
g1
(g5
S'\x03\x00\x00\x00'
p2068
tp2069
Rp2070
tp2071
a(F121.55712
F25.02174
I1
g1
(g5
S'\x00\x00\x00\x00'
p2072
tp2073
Rp2074
tp2075
a(F121.54975
F24.98895
I1
g1
(g5
S'\x00\x00\x00\x00'
p2076
tp2077
Rp2078
tp2079
a(F121.54835
F25.05929
I1
g1
(g5
S'\x05\x00\x00\x00'
p2080
tp2081
Rp2082
tp2083
a(F121.51552
F25.0756
I1
g1
(g5
S'\x04\x00\x00\x00'
p2084
tp2085
Rp2086
tp2087
a(F121.50953
F25.07959
I1
g1
(g5
S'\x03\x00\x00\x00'
p2088
tp2089
Rp2090
tp2091
a(F121.53484
F25.01916
I4
g1
(g5
S'\x00\x00\x00\x00'
p2092
tp2093
Rp2094
tp2095
a(F121.51557
F25.0461
I2
g1
(g5
S'\x04\x00\x00\x00'
p2096
tp2097
Rp2098
tp2099
a(F121.58518
F25.05212
I2
g1
(g5
S'\x05\x00\x00\x00'
p2100
tp2101
Rp2102
tp2103
a(F121.46765
F25.12685
I1
g1
(g5
S'\x03\x00\x00\x00'
p2104
tp2105
Rp2106
tp2107
a(F120.29236
F22.64552
I1
g1
(g5
S'\x01\x00\x00\x00'
p2108
tp2109
Rp2110
tp2111
a(F121.55719
F25.04208
I3
g1
(g5
S'\x05\x00\x00\x00'
p2112
tp2113
Rp2114
tp2115
a(F121.29443
F25.05134
I1
g1
(g5
S'\x06\x00\x00\x00'
p2116
tp2117
Rp2118
tp2119
a(F121.60041
F25.0569
I1
g1
(g5
S'\x05\x00\x00\x00'
p2120
tp2121
Rp2122
tp2123
a(F121.5457
F25.10414
I1
g1
(g5
S'\x03\x00\x00\x00'
p2124
tp2125
Rp2126
tp2127
a(F121.49081
F25.03183
I1
g1
(g5
S'\x04\x00\x00\x00'
p2128
tp2129
Rp2130
tp2131
a(F121.49533
F25.13771
I1
g1
(g5
S'\x03\x00\x00\x00'
p2132
tp2133
Rp2134
tp2135
a(F121.53433
F25.06122
I1
g1
(g5
S'\x04\x00\x00\x00'
p2136
tp2137
Rp2138
tp2139
a(F121.51557
F25.04509
I1
g1
(g5
S'\x04\x00\x00\x00'
p2140
tp2141
Rp2142
tp2143
a(F121.47119
F25.11905
I1
g1
(g5
S'\x03\x00\x00\x00'
p2144
tp2145
Rp2146
tp2147
a(F121.50344
F25.0091
I1
g1
(g5
S'\x04\x00\x00\x00'
p2148
tp2149
Rp2150
tp2151
a(F121.47442
F25.12921
I1
g1
(g5
S'\x03\x00\x00\x00'
p2152
tp2153
Rp2154
tp2155
a(F121.50522
F25.09269
I9
g1
(g5
S'\x03\x00\x00\x00'
p2156
tp2157
Rp2158
tp2159
a(F121.52469
F25.01797
I2
g1
(g5
S'\x04\x00\x00\x00'
p2160
tp2161
Rp2162
tp2163
a(F121.53338
F25.05651
I1
g1
(g5
S'\x04\x00\x00\x00'
p2164
tp2165
Rp2166
tp2167
a(F121.53924
F24.99745
I1
g1
(g5
S'\x00\x00\x00\x00'
p2168
tp2169
Rp2170
tp2171
a(F121.53199
F25.02422
I1
g1
(g5
S'\x04\x00\x00\x00'
p2172
tp2173
Rp2174
tp2175
a(F121.57463
F24.99868
I1
g1
(g5
S'\x00\x00\x00\x00'
p2176
tp2177
Rp2178
tp2179
a(F121.54654
F25.0362
I1
g1
(g5
S'\x00\x00\x00\x00'
p2180
tp2181
Rp2182
tp2183
a(F121.55537
F25.05379
I1
g1
(g5
S'\x05\x00\x00\x00'
p2184
tp2185
Rp2186
tp2187
a(F121.46929
F25.12193
I1
g1
(g5
S'\x03\x00\x00\x00'
p2188
tp2189
Rp2190
tp2191
a(F121.52584
F25.02455
I1
g1
(g5
S'\x04\x00\x00\x00'
p2192
tp2193
Rp2194
tp2195
a(F121.5043
F25.04684
I1
g1
(g5
S'\x04\x00\x00\x00'
p2196
tp2197
Rp2198
tp2199
a(F121.52359
F25.06507
I1
g1
(g5
S'\x04\x00\x00\x00'
p2200
tp2201
Rp2202
tp2203
a(F121.53017
F25.10703
I1
g1
(g5
S'\x03\x00\x00\x00'
p2204
tp2205
Rp2206
tp2207
a(F121.50277
F25.09296
I1
g1
(g5
S'\x03\x00\x00\x00'
p2208
tp2209
Rp2210
tp2211
a(F121.5769572
F25.0287024
I2
g1
(g5
S'\x00\x00\x00\x00'
p2212
tp2213
Rp2214
tp2215
a(F121.57724
F25.05047
I1
g1
(g5
S'\x05\x00\x00\x00'
p2216
tp2217
Rp2218
tp2219
a(F121.5218
F25.03069
I1
g1
(g5
S'\x04\x00\x00\x00'
p2220
tp2221
Rp2222
tp2223
a(F121.50293
F25.04539
I1
g1
(g5
S'\x04\x00\x00\x00'
p2224
tp2225
Rp2226
tp2227
a(F121.57557
F25.04966
I1
g1
(g5
S'\x05\x00\x00\x00'
p2228
tp2229
Rp2230
tp2231
a(F121.50527
F25.02654
I1
g1
(g5
S'\x04\x00\x00\x00'
p2232
tp2233
Rp2234
tp2235
a(F121.61353
F25.04873
I1
g1
(g5
S'\x05\x00\x00\x00'
p2236
tp2237
Rp2238
tp2239
a(F121.51734
F25.07544
I1
g1
(g5
S'\x04\x00\x00\x00'
p2240
tp2241
Rp2242
tp2243
a(F121.52241
F25.09777
I1
g1
(g5
S'\x03\x00\x00\x00'
p2244
tp2245
Rp2246
tp2247
a(F121.52984
F25.03101
I1
g1
(g5
S'\x04\x00\x00\x00'
p2248
tp2249
Rp2250
tp2251
a(F121.57461
F25.01809
I2
g1
(g5
S'\x00\x00\x00\x00'
p2252
tp2253
Rp2254
tp2255
a(F121.54234
F25.02317
I2
g1
(g5
S'\x00\x00\x00\x00'
p2256
tp2257
Rp2258
tp2259
a(F121.51782
F25.0242
I1
g1
(g5
S'\x04\x00\x00\x00'
p2260
tp2261
Rp2262
tp2263
a(F121.58917
F25.04616
I1
g1
(g5
S'\x05\x00\x00\x00'
p2264
tp2265
Rp2266
tp2267
a(F121.53194
F25.04734
I2
g1
(g5
S'\x04\x00\x00\x00'
p2268
tp2269
Rp2270
tp2271
a(F121.55315
F25.04478
I1
g1
(g5
S'\x05\x00\x00\x00'
p2272
tp2273
Rp2274
tp2275
a(F121.58573
F25.05091
I1
g1
(g5
S'\x05\x00\x00\x00'
p2276
tp2277
Rp2278
tp2279
a(F121.53349
F25.12555
I1
g1
(g5
S'\x03\x00\x00\x00'
p2280
tp2281
Rp2282
tp2283
a(F121.55237
F25.02972
I1
g1
(g5
S'\x00\x00\x00\x00'
p2284
tp2285
Rp2286
tp2287
a(F121.55707
F25.02616
I1
g1
(g5
S'\x00\x00\x00\x00'
p2288
tp2289
Rp2290
tp2291
a(F121.53544
F25.05936
I1
g1
(g5
S'\x04\x00\x00\x00'
p2292
tp2293
Rp2294
tp2295
a(F121.55595
F25.08545
I1
g1
(g5
S'\x05\x00\x00\x00'
p2296
tp2297
Rp2298
tp2299
a(F121.56924
F25.0298
I3
g1
(g5
S'\x00\x00\x00\x00'
p2300
tp2301
Rp2302
tp2303
a(F121.55368
F25.05791
I1
g1
(g5
S'\x05\x00\x00\x00'
p2304
tp2305
Rp2306
tp2307
a(F121.55566
F25.02955
I2
g1
(g5
S'\x00\x00\x00\x00'
p2308
tp2309
Rp2310
tp2311
a(F121.52722
F25.04999
I2
g1
(g5
S'\x04\x00\x00\x00'
p2312
tp2313
Rp2314
tp2315
a(F121.538
F25.05655
I1
g1
(g5
S'\x04\x00\x00\x00'
p2316
tp2317
Rp2318
tp2319
a(F121.52815
F25.10335
I2
g1
(g5
S'\x03\x00\x00\x00'
p2320
tp2321
Rp2322
tp2323
a(F121.5609
F25.03272
I1
g1
(g5
S'\x00\x00\x00\x00'
p2324
tp2325
Rp2326
tp2327
a(F121.57093
F25.02813
I1
g1
(g5
S'\x00\x00\x00\x00'
p2328
tp2329
Rp2330
tp2331
a(F121.55136
F25.04606
I1
g1
(g5
S'\x05\x00\x00\x00'
p2332
tp2333
Rp2334
tp2335
a(F121.50727
F25.03649
I1
g1
(g5
S'\x04\x00\x00\x00'
p2336
tp2337
Rp2338
tp2339
a(F121.53021
F25.11108
I1
g1
(g5
S'\x03\x00\x00\x00'
p2340
tp2341
Rp2342
tp2343
a(F121.51704
F25.0246
I1
g1
(g5
S'\x04\x00\x00\x00'
p2344
tp2345
Rp2346
tp2347
a(F121.4909
F25.02685
I1
g1
(g5
S'\x04\x00\x00\x00'
p2348
tp2349
Rp2350
tp2351
a(F121.55147
F25.00486
I1
g1
(g5
S'\x00\x00\x00\x00'
p2352
tp2353
Rp2354
tp2355
a(F121.52711
F25.06515
I1
g1
(g5
S'\x04\x00\x00\x00'
p2356
tp2357
Rp2358
tp2359
a(F121.54583
F24.98612
I1
g1
(g5
S'\x00\x00\x00\x00'
p2360
tp2361
Rp2362
tp2363
a(F121.51426
F25.03116
I1
g1
(g5
S'\x04\x00\x00\x00'
p2364
tp2365
Rp2366
tp2367
a(F121.60633
F25.0556
I1
g1
(g5
S'\x05\x00\x00\x00'
p2368
tp2369
Rp2370
tp2371
a(F121.56181
F24.99099
I1
g1
(g5
S'\x00\x00\x00\x00'
p2372
tp2373
Rp2374
tp2375
a(F121.55618
F25.05816
I2
g1
(g5
S'\x05\x00\x00\x00'
p2376
tp2377
Rp2378
tp2379
a(F121.56753
F25.05579
I1
g1
(g5
S'\x05\x00\x00\x00'
p2380
tp2381
Rp2382
tp2383
a(F121.54443
F25.0528
I1
g1
(g5
S'\x04\x00\x00\x00'
p2384
tp2385
Rp2386
tp2387
a(F121.51456
F25.05811
I1
g1
(g5
S'\x04\x00\x00\x00'
p2388
tp2389
Rp2390
tp2391
a(F121.56012
F25.05021
I1
g1
(g5
S'\x05\x00\x00\x00'
p2392
tp2393
Rp2394
tp2395
a(F121.53377
F25.00192
I1
g1
(g5
S'\x00\x00\x00\x00'
p2396
tp2397
Rp2398
tp2399
a(F121.53412
F25.03942
I1
g1
(g5
S'\x04\x00\x00\x00'
p2400
tp2401
Rp2402
tp2403
a(F121.57147
F25.05019
I1
g1
(g5
S'\x05\x00\x00\x00'
p2404
tp2405
Rp2406
tp2407
a(F121.50561
F25.04713
I1
g1
(g5
S'\x04\x00\x00\x00'
p2408
tp2409
Rp2410
tp2411
a(F121.56906
F25.05678
I1
g1
(g5
S'\x05\x00\x00\x00'
p2412
tp2413
Rp2414
tp2415
a(F121.51235
F25.04254
I1
g1
(g5
S'\x04\x00\x00\x00'
p2416
tp2417
Rp2418
tp2419
a(F121.4970294
F25.0262857
I1
g1
(g5
S'\x04\x00\x00\x00'
p2420
tp2421
Rp2422
tp2423
a(F121.55014
F25.05891
I1
g1
(g5
S'\x05\x00\x00\x00'
p2424
tp2425
Rp2426
tp2427
a(F121.55136
F25.04628
I1
g1
(g5
S'\x05\x00\x00\x00'
p2428
tp2429
Rp2430
tp2431
a(F121.53426
F25.10191
I2
g1
(g5
S'\x03\x00\x00\x00'
p2432
tp2433
Rp2434
tp2435
a(F121.51685
F25.08933
I1
g1
(g5
S'\x03\x00\x00\x00'
p2436
tp2437
Rp2438
tp2439
a(F121.53549
F25.10567
I1
g1
(g5
S'\x03\x00\x00\x00'
p2440
tp2441
Rp2442
tp2443
a(F121.54492
F25.04129
I2
g1
(g5
S'\x04\x00\x00\x00'
p2444
tp2445
Rp2446
tp2447
a(F121.54394
F25.0345
I1
g1
(g5
S'\x00\x00\x00\x00'
p2448
tp2449
Rp2450
tp2451
a(F121.55717
F25.03735
I1
g1
(g5
S'\x00\x00\x00\x00'
p2452
tp2453
Rp2454
tp2455
a(F121.5515
F25.02911
I1
g1
(g5
S'\x00\x00\x00\x00'
p2456
tp2457
Rp2458
tp2459
a(F121.54555
F24.99713
I1
g1
(g5
S'\x00\x00\x00\x00'
p2460
tp2461
Rp2462
tp2463
a(F121.58263
F25.04457
I1
g1
(g5
S'\x05\x00\x00\x00'
p2464
tp2465
Rp2466
tp2467
a(F121.49984
F25.03489
I1
g1
(g5
S'\x04\x00\x00\x00'
p2468
tp2469
Rp2470
tp2471
a(F121.53089
F25.04726
I1
g1
(g5
S'\x04\x00\x00\x00'
p2472
tp2473
Rp2474
tp2475
a(F121.51893
F25.08353
I1
g1
(g5
S'\x03\x00\x00\x00'
p2476
tp2477
Rp2478
tp2479
a(F121.54503
F25.13226
I1
g1
(g5
S'\x03\x00\x00\x00'
p2480
tp2481
Rp2482
tp2483
a(F121.59031
F25.05482
I1
g1
(g5
S'\x05\x00\x00\x00'
p2484
tp2485
Rp2486
tp2487
a(F121.53114
F25.03714
I1
g1
(g5
S'\x04\x00\x00\x00'
p2488
tp2489
Rp2490
tp2491
a(F121.56905
F25.04593
I1
g1
(g5
S'\x05\x00\x00\x00'
p2492
tp2493
Rp2494
tp2495
a(F121.52475
F25.09569
I1
g1
(g5
S'\x03\x00\x00\x00'
p2496
tp2497
Rp2498
tp2499
a(F121.50838
F25.14137
I1
g1
(g5
S'\x03\x00\x00\x00'
p2500
tp2501
Rp2502
tp2503
a(F121.56536
F25.02591
I1
g1
(g5
S'\x00\x00\x00\x00'
p2504
tp2505
Rp2506
tp2507
a(F121.58151
F25.04334
I1
g1
(g5
S'\x05\x00\x00\x00'
p2508
tp2509
Rp2510
tp2511
a(F121.51215
F25.06263
I1
g1
(g5
S'\x04\x00\x00\x00'
p2512
tp2513
Rp2514
tp2515
a(F121.53313
F25.10909
I1
g1
(g5
S'\x03\x00\x00\x00'
p2516
tp2517
Rp2518
tp2519
a(F121.61275
F25.06631
I1
g1
(g5
S'\x05\x00\x00\x00'
p2520
tp2521
Rp2522
tp2523
a(F121.51718
F25.0827
I1
g1
(g5
S'\x03\x00\x00\x00'
p2524
tp2525
Rp2526
tp2527
a(F121.53541
F25.10192
I1
g1
(g5
S'\x03\x00\x00\x00'
p2528
tp2529
Rp2530
tp2531
a(F121.53846
F25.05492
I1
g1
(g5
S'\x04\x00\x00\x00'
p2532
tp2533
Rp2534
tp2535
a(F121.52731
F25.03579
I1
g1
(g5
S'\x04\x00\x00\x00'
p2536
tp2537
Rp2538
tp2539
a(F121.59379
F25.07903
I1
g1
(g5
S'\x05\x00\x00\x00'
p2540
tp2541
Rp2542
tp2543
a(F121.52292
F25.09978
I1
g1
(g5
S'\x03\x00\x00\x00'
p2544
tp2545
Rp2546
tp2547
a(F121.50715
F25.04515
I2
g1
(g5
S'\x04\x00\x00\x00'
p2548
tp2549
Rp2550
tp2551
a(F121.53653
F25.10189
I1
g1
(g5
S'\x03\x00\x00\x00'
p2552
tp2553
Rp2554
tp2555
a(F121.51205
F25.07982
I1
g1
(g5
S'\x03\x00\x00\x00'
p2556
tp2557
Rp2558
tp2559
a(F121.54769
F25.02122
I1
g1
(g5
S'\x00\x00\x00\x00'
p2560
tp2561
Rp2562
tp2563
a(F121.5228
F25.04994
I1
g1
(g5
S'\x04\x00\x00\x00'
p2564
tp2565
Rp2566
tp2567
a(F121.56411
F25.05945
I1
g1
(g5
S'\x05\x00\x00\x00'
p2568
tp2569
Rp2570
tp2571
a(F121.52484
F25.06465
I1
g1
(g5
S'\x04\x00\x00\x00'
p2572
tp2573
Rp2574
tp2575
a(F121.56652
F25.05263
I1
g1
(g5
S'\x05\x00\x00\x00'
p2576
tp2577
Rp2578
tp2579
a(F121.5541
F25.04657
I1
g1
(g5
S'\x05\x00\x00\x00'
p2580
tp2581
Rp2582
tp2583
a.