(lp0
(F121.15681
F22.75479
I1
cnumpy.core.multiarray
scalar
p1
(cnumpy
dtype
p2
(S'i4'
p3
I0
I1
tp4
Rp5
(I3
S'<'
p6
NNNI-1
I-1
I0
tp7
bS'\x00\x00\x00\x00'
p8
tp9
Rp10
tp11
a(F121.16454
F23.0413
I1
g1
(g5
S'\x03\x00\x00\x00'
p12
tp13
Rp14
tp15
a(F120.32589
F22.62039
I1
g1
(g5
S'\x02\x00\x00\x00'
p16
tp17
Rp18
tp19
a(F121.1523
F23.01286
I1
g1
(g5
S'\x03\x00\x00\x00'
p20
tp21
Rp22
tp23
a(F121.39076
F23.25465
I1
g1
(g5
S'\x04\x00\x00\x00'
p24
tp25
Rp26
tp27
a(F121.15606
F22.75922
I1
g1
(g5
S'\x00\x00\x00\x00'
p28
tp29
Rp30
tp31
a(F121.13672
F22.76046
I1
g1
(g5
S'\x00\x00\x00\x00'
p32
tp33
Rp34
tp35
a(F121.15402
F22.75806
I1
g1
(g5
S'\x00\x00\x00\x00'
p36
tp37
Rp38
tp39
a(F120.9647
F22.53308
I4
g1
(g5
S'\x01\x00\x00\x00'
p40
tp41
Rp42
tp43
a(F121.08792
F22.785
I1
g1
(g5
S'\x05\x00\x00\x00'
p44
tp45
Rp46
tp47
a(F120.94974
F22.55178
I1
g1
(g5
S'\x01\x00\x00\x00'
p48
tp49
Rp50
tp51
a(F121.30337
F22.9686
I1
g1
(g5
S'\x06\x00\x00\x00'
p52
tp53
Rp54
tp55
a(F121.12419
F22.78055
I1
g1
(g5
S'\x00\x00\x00\x00'
p56
tp57
Rp58
tp59
a(F121.09033
F22.7749
I1
g1
(g5
S'\x05\x00\x00\x00'
p60
tp61
Rp62
tp63
a(F120.96347
F22.5338
I1
g1
(g5
S'\x01\x00\x00\x00'
p64
tp65
Rp66
tp67
a(F121.14399
F22.75245
I1
g1
(g5
S'\x00\x00\x00\x00'
p68
tp69
Rp70
tp71
a(F121.08668
F22.77313
I1
g1
(g5
S'\x05\x00\x00\x00'
p72
tp73
Rp74
tp75
a(F121.09701
F22.87141
I1
g1
(g5
S'\x05\x00\x00\x00'
p76
tp77
Rp78
tp79
a(F121.21632
F23.12348
I1
g1
(g5
S'\x03\x00\x00\x00'
p80
tp81
Rp82
tp83
a(F121.34798
F23.07545
I1
g1
(g5
S'\x06\x00\x00\x00'
p84
tp85
Rp86
tp87
a(F121.11403
F22.78455
I4
g1
(g5
S'\x05\x00\x00\x00'
p88
tp89
Rp90
tp91
a(F121.15
F22.75
I1
g1
(g5
S'\x00\x00\x00\x00'
p92
tp93
Rp94
tp95
a(F121.07272
F22.80183
I1
g1
(g5
S'\x05\x00\x00\x00'
p96
tp97
Rp98
tp99
a(F120.96494
F22.53407
I2
g1
(g5
S'\x01\x00\x00\x00'
p100
tp101
Rp102
tp103
a(F121.13215
F22.75363
I1
g1
(g5
S'\x00\x00\x00\x00'
p104
tp105
Rp106
tp107
a(F120.96574
F22.5342
I1
g1
(g5
S'\x01\x00\x00\x00'
p108
tp109
Rp110
tp111
a(F121.09817
F22.83304
I1
g1
(g5
S'\x05\x00\x00\x00'
p112
tp113
Rp114
tp115
a(F121.03504
F22.70604
I1
g1
(g5
S'\x05\x00\x00\x00'
p116
tp117
Rp118
tp119
a(F121.12264
F22.77094
I1
g1
(g5
S'\x00\x00\x00\x00'
p120
tp121
Rp122
tp123
a(F121.13605
F22.77494
I1
g1
(g5
S'\x00\x00\x00\x00'
p124
tp125
Rp126
tp127
a(F121.10939
F22.79284
I2
g1
(g5
S'\x05\x00\x00\x00'
p128
tp129
Rp130
tp131
a(F121.14318
F22.76281
I1
g1
(g5
S'\x00\x00\x00\x00'
p132
tp133
Rp134
tp135
a(F121.37482
F23.10381
I1
g1
(g5
S'\x06\x00\x00\x00'
p136
tp137
Rp138
tp139
a(F121.16177
F22.78846
I2
g1
(g5
S'\x00\x00\x00\x00'
p140
tp141
Rp142
tp143
a(F120.96441
F22.5322
I3
g1
(g5
S'\x01\x00\x00\x00'
p144
tp145
Rp146
tp147
a(F121.11625
F22.78576
I1
g1
(g5
S'\x05\x00\x00\x00'
p148
tp149
Rp150
tp151
a(F121.1125
F22.8085
I1
g1
(g5
S'\x05\x00\x00\x00'
p152
tp153
Rp154
tp155
a(F121.07223
F22.71401
I1
g1
(g5
S'\x05\x00\x00\x00'
p156
tp157
Rp158
tp159
a(F121.14455
F22.76533
I1
g1
(g5
S'\x00\x00\x00\x00'
p160
tp161
Rp162
tp163
a(F120.34028
F22.63359
I1
g1
(g5
S'\x02\x00\x00\x00'
p164
tp165
Rp166
tp167
a(F120.94322
F22.53685
I1
g1
(g5
S'\x01\x00\x00\x00'
p168
tp169
Rp170
tp171
a(F121.14156
F22.76883
I1
g1
(g5
S'\x00\x00\x00\x00'
p172
tp173
Rp174
tp175
a(F121.14029
F22.75112
I1
g1
(g5
S'\x00\x00\x00\x00'
p176
tp177
Rp178
tp179
a(F121.14055
F22.75735
I1
g1
(g5
S'\x00\x00\x00\x00'
p180
tp181
Rp182
tp183
a.