(lp0
(F121.13206
F25.02565
I1
cnumpy.core.multiarray
scalar
p1
(cnumpy
dtype
p2
(S'i4'
p3
I0
I1
tp4
Rp5
(I3
S'<'
p6
NNNI-1
I-1
I0
tp7
bS'\x06\x00\x00\x00'
p8
tp9
Rp10
tp11
a(F121.10379
F25.02749
I1
g1
(g5
S'\x06\x00\x00\x00'
p12
tp13
Rp14
tp15
a(F121.31981
F25.00795
I1
g1
(g5
S'\x00\x00\x00\x00'
p16
tp17
Rp18
tp19
a(F121.31756
F24.97041
I1
g1
(g5
S'\x00\x00\x00\x00'
p20
tp21
Rp22
tp23
a(F121.23588
F24.87497
I1
g1
(g5
S'\x05\x00\x00\x00'
p24
tp25
Rp26
tp27
a(F121.23335
F24.93716
I1
g1
(g5
S'\x05\x00\x00\x00'
p28
tp29
Rp30
tp31
a(F121.32058
F25.0197
I1
g1
(g5
S'\x00\x00\x00\x00'
p32
tp33
Rp34
tp35
a(F121.12183
F24.91692
I1
g1
(g5
S'\x06\x00\x00\x00'
p36
tp37
Rp38
tp39
a(F121.36782
F24.99997
I1
g1
(g5
S'\x03\x00\x00\x00'
p40
tp41
Rp42
tp43
a(F121.14247
F25.0456
I1
g1
(g5
S'\x06\x00\x00\x00'
p44
tp45
Rp46
tp47
a(F121.31484
F25.01434
I1
g1
(g5
S'\x00\x00\x00\x00'
p48
tp49
Rp50
tp51
a(F121.07057
F24.93649
I1
g1
(g5
S'\x06\x00\x00\x00'
p52
tp53
Rp54
tp55
a(F121.30886
F25.00657
I1
g1
(g5
S'\x00\x00\x00\x00'
p56
tp57
Rp58
tp59
a(F121.2254
F24.93121
I1
g1
(g5
S'\x05\x00\x00\x00'
p60
tp61
Rp62
tp63
a(F121.30554
F24.99495
I1
g1
(g5
S'\x00\x00\x00\x00'
p64
tp65
Rp66
tp67
a(F121.15704
F24.91277
I1
g1
(g5
S'\x05\x00\x00\x00'
p68
tp69
Rp70
tp71
a(F121.29995
F25.05279
I1
g1
(g5
S'\x04\x00\x00\x00'
p72
tp73
Rp74
tp75
a(F121.23588
F24.99485
I1
g1
(g5
S'\x00\x00\x00\x00'
p76
tp77
Rp78
tp79
a(F121.17325
F24.88208
I1
g1
(g5
S'\x05\x00\x00\x00'
p80
tp81
Rp82
tp83
a(F121.28739
F25.04642
I1
g1
(g5
S'\x04\x00\x00\x00'
p84
tp85
Rp86
tp87
a(F121.29864
F24.94813
I1
g1
(g5
S'\x00\x00\x00\x00'
p88
tp89
Rp90
tp91
a(F121.30879
F25.00438
I1
g1
(g5
S'\x00\x00\x00\x00'
p92
tp93
Rp94
tp95
a(F121.2866
F25.07095
I1
g1
(g5
S'\x04\x00\x00\x00'
p96
tp97
Rp98
tp99
a(F121.19072
F24.96496
I1
g1
(g5
S'\x05\x00\x00\x00'
p100
tp101
Rp102
tp103
a(F121.21551
F24.95784
I1
g1
(g5
S'\x05\x00\x00\x00'
p104
tp105
Rp106
tp107
a(F121.25874
F25.07276
I1
g1
(g5
S'\x04\x00\x00\x00'
p108
tp109
Rp110
tp111
a(F121.18902
F24.99971
I1
g1
(g5
S'\x05\x00\x00\x00'
p112
tp113
Rp114
tp115
a(F121.289
F25.06259
I1
g1
(g5
S'\x04\x00\x00\x00'
p116
tp117
Rp118
tp119
a(F121.15919
F24.91179
I1
g1
(g5
S'\x05\x00\x00\x00'
p120
tp121
Rp122
tp123
a(F121.3034
F25.03151
I1
g1
(g5
S'\x00\x00\x00\x00'
p124
tp125
Rp126
tp127
a(F121.25364
F25.07955
I7
g1
(g5
S'\x04\x00\x00\x00'
p128
tp129
Rp130
tp131
a(F121.24834
F24.94513
I1
g1
(g5
S'\x05\x00\x00\x00'
p132
tp133
Rp134
tp135
a(F121.20841
F24.96154
I1
g1
(g5
S'\x05\x00\x00\x00'
p136
tp137
Rp138
tp139
a(F121.27571
F24.98168
I1
g1
(g5
S'\x00\x00\x00\x00'
p140
tp141
Rp142
tp143
a(F120.32103
F22.62928
I1
g1
(g5
S'\x01\x00\x00\x00'
p144
tp145
Rp146
tp147
a(F121.38178
F25.05644
I1
g1
(g5
S'\x03\x00\x00\x00'
p148
tp149
Rp150
tp151
a(F121.22883
F24.92462
I1
g1
(g5
S'\x05\x00\x00\x00'
p152
tp153
Rp154
tp155
a(F121.23662
F25.06098
I1
g1
(g5
S'\x04\x00\x00\x00'
p156
tp157
Rp158
tp159
a(F121.19612
F25.01649
I1
g1
(g5
S'\x04\x00\x00\x00'
p160
tp161
Rp162
tp163
a(F121.29471
F25.01355
I1
g1
(g5
S'\x00\x00\x00\x00'
p164
tp165
Rp166
tp167
a(F121.30454
F25.00978
I1
g1
(g5
S'\x00\x00\x00\x00'
p168
tp169
Rp170
tp171
a(F121.26611
F25.02582
I1
g1
(g5
S'\x04\x00\x00\x00'
p172
tp173
Rp174
tp175
a(F121.23264
F24.95354
I1
g1
(g5
S'\x05\x00\x00\x00'
p176
tp177
Rp178
tp179
a(F121.29162
F25.02014
I1
g1
(g5
S'\x00\x00\x00\x00'
p180
tp181
Rp182
tp183
a(F121.29321
F24.98741
I1
g1
(g5
S'\x00\x00\x00\x00'
p184
tp185
Rp186
tp187
a(F121.22676
F24.96965
I1
g1
(g5
S'\x05\x00\x00\x00'
p188
tp189
Rp190
tp191
a(F121.26391
F25.07447
I6
g1
(g5
S'\x04\x00\x00\x00'
p192
tp193
Rp194
tp195
a(F121.2303
F24.91463
I1
g1
(g5
S'\x05\x00\x00\x00'
p196
tp197
Rp198
tp199
a(F121.28935
F24.99087
I1
g1
(g5
S'\x00\x00\x00\x00'
p200
tp201
Rp202
tp203
a(F121.26687
F25.0787
I1
g1
(g5
S'\x04\x00\x00\x00'
p204
tp205
Rp206
tp207
a(F121.22414
F25.08743
I1
g1
(g5
S'\x04\x00\x00\x00'
p208
tp209
Rp210
tp211
a(F121.30384
F25.00754
I1
g1
(g5
S'\x00\x00\x00\x00'
p212
tp213
Rp214
tp215
a(F121.20366
F24.95075
I1
g1
(g5
S'\x05\x00\x00\x00'
p216
tp217
Rp218
tp219
a(F121.20581
F24.94214
I1
g1
(g5
S'\x05\x00\x00\x00'
p220
tp221
Rp222
tp223
a(F121.31701
F25.01728
I1
g1
(g5
S'\x00\x00\x00\x00'
p224
tp225
Rp226
tp227
a(F121.35946
F25.05521
I1
g1
(g5
S'\x03\x00\x00\x00'
p228
tp229
Rp230
tp231
a(F121.25669
F24.96819
I1
g1
(g5
S'\x00\x00\x00\x00'
p232
tp233
Rp234
tp235
a(F121.25057
F25.07302
I1
g1
(g5
S'\x04\x00\x00\x00'
p236
tp237
Rp238
tp239
a(F121.26006
F25.10112
I1
g1
(g5
S'\x04\x00\x00\x00'
p240
tp241
Rp242
tp243
a(F121.3073
F25.01253
I1
g1
(g5
S'\x00\x00\x00\x00'
p244
tp245
Rp246
tp247
a(F121.32125
F24.97678
I1
g1
(g5
S'\x00\x00\x00\x00'
p248
tp249
Rp250
tp251
a(F121.20689
F24.95051
I2
g1
(g5
S'\x05\x00\x00\x00'
p252
tp253
Rp254
tp255
a(F121.28769
F25.05786
I1
g1
(g5
S'\x04\x00\x00\x00'
p256
tp257
Rp258
tp259
a(F121.36816
F25.01873
I1
g1
(g5
S'\x03\x00\x00\x00'
p260
tp261
Rp262
tp263
a(F121.24208
F24.92724
I1
g1
(g5
S'\x05\x00\x00\x00'
p264
tp265
Rp266
tp267
a(F121.22459
F24.9337
I1
g1
(g5
S'\x05\x00\x00\x00'
p268
tp269
Rp270
tp271
a(F121.2566
F24.97474
I1
g1
(g5
S'\x00\x00\x00\x00'
p272
tp273
Rp274
tp275
a(F121.20897
F25.0612
I1
g1
(g5
S'\x04\x00\x00\x00'
p276
tp277
Rp278
tp279
a(F121.34185
F24.99381
I1
g1
(g5
S'\x00\x00\x00\x00'
p280
tp281
Rp282
tp283
a(F121.29897
F24.96304
I1
g1
(g5
S'\x00\x00\x00\x00'
p284
tp285
Rp286
tp287
a(F121.19333
F24.92692
I1
g1
(g5
S'\x05\x00\x00\x00'
p288
tp289
Rp290
tp291
a(F121.31292
F24.9925
I1
g1
(g5
S'\x00\x00\x00\x00'
p292
tp293
Rp294
tp295
a(F121.29984
F25.01944
I1
g1
(g5
S'\x00\x00\x00\x00'
p296
tp297
Rp298
tp299
a(F121.19926
F25.06632
I1
g1
(g5
S'\x04\x00\x00\x00'
p300
tp301
Rp302
tp303
a(F121.17389
F24.88974
I1
g1
(g5
S'\x05\x00\x00\x00'
p304
tp305
Rp306
tp307
a(F121.30255
F25.03024
I1
g1
(g5
S'\x00\x00\x00\x00'
p308
tp309
Rp310
tp311
a(F120.96448
F24.79984
I1
g1
(g5
S'\x06\x00\x00\x00'
p312
tp313
Rp314
tp315
a(F121.3422
F25.00276
I1
g1
(g5
S'\x00\x00\x00\x00'
p316
tp317
Rp318
tp319
a(F121.31496
F25.01572
I1
g1
(g5
S'\x00\x00\x00\x00'
p320
tp321
Rp322
tp323
a(F121.29388
F24.96059
I1
g1
(g5
S'\x00\x00\x00\x00'
p324
tp325
Rp326
tp327
a(F121.29599
F25.04993
I1
g1
(g5
S'\x04\x00\x00\x00'
p328
tp329
Rp330
tp331
a(F121.29388
F25.05022
I1
g1
(g5
S'\x04\x00\x00\x00'
p332
tp333
Rp334
tp335
a(F121.31554
F25.01188
I1
g1
(g5
S'\x00\x00\x00\x00'
p336
tp337
Rp338
tp339
a(F121.26359
F24.8872
I1
g1
(g5
S'\x05\x00\x00\x00'
p340
tp341
Rp342
tp343
a(F121.2411
F24.92701
I1
g1
(g5
S'\x05\x00\x00\x00'
p344
tp345
Rp346
tp347
a(F121.57477
F25.07533
I1
g1
(g5
S'\x03\x00\x00\x00'
p348
tp349
Rp350
tp351
a(F121.25833
F24.97057
I1
g1
(g5
S'\x00\x00\x00\x00'
p352
tp353
Rp354
tp355
a(F121.31912
F25.00374
I1
g1
(g5
S'\x00\x00\x00\x00'
p356
tp357
Rp358
tp359
a(F121.21334
F24.93416
I1
g1
(g5
S'\x05\x00\x00\x00'
p360
tp361
Rp362
tp363
a(F121.31144
F25.0248
I1
g1
(g5
S'\x00\x00\x00\x00'
p364
tp365
Rp366
tp367
a(F121.3702
F25.01944
I1
g1
(g5
S'\x03\x00\x00\x00'
p368
tp369
Rp370
tp371
a(F121.21505
F24.86422
I1
g1
(g5
S'\x05\x00\x00\x00'
p372
tp373
Rp374
tp375
a(F121.14013
F24.92669
I1
g1
(g5
S'\x06\x00\x00\x00'
p376
tp377
Rp378
tp379
a(F120.33418
F22.64699
I1
g1
(g5
S'\x01\x00\x00\x00'
p380
tp381
Rp382
tp383
a(F121.21041
F24.87778
I1
g1
(g5
S'\x05\x00\x00\x00'
p384
tp385
Rp386
tp387
a(F121.08605
F24.93721
I1
g1
(g5
S'\x06\x00\x00\x00'
p388
tp389
Rp390
tp391
a(F121.21625
F24.96308
I1
g1
(g5
S'\x05\x00\x00\x00'
p392
tp393
Rp394
tp395
a(F121.2651
F24.96434
I1
g1
(g5
S'\x00\x00\x00\x00'
p396
tp397
Rp398
tp399
a(F121.17057
F24.84254
I1
g1
(g5
S'\x05\x00\x00\x00'
p400
tp401
Rp402
tp403
a(F121.19699
F25.00065
I1
g1
(g5
S'\x05\x00\x00\x00'
p404
tp405
Rp406
tp407
a(F121.22957
F24.94619
I1
g1
(g5
S'\x05\x00\x00\x00'
p408
tp409
Rp410
tp411
a(F121.23339
F24.95216
I1
g1
(g5
S'\x05\x00\x00\x00'
p412
tp413
Rp414
tp415
a(F121.05645
F25.00596
I1
g1
(g5
S'\x06\x00\x00\x00'
p416
tp417
Rp418
tp419
a(F121.21612
F24.8678
I1
g1
(g5
S'\x05\x00\x00\x00'
p420
tp421
Rp422
tp423
a(F121.25617
F25.0215
I1
g1
(g5
S'\x04\x00\x00\x00'
p424
tp425
Rp426
tp427
a(F121.22609
F24.96299
I1
g1
(g5
S'\x05\x00\x00\x00'
p428
tp429
Rp430
tp431
a(F121.20132
F24.86352
I1
g1
(g5
S'\x05\x00\x00\x00'
p432
tp433
Rp434
tp435
a(F121.28785
F24.99132
I1
g1
(g5
S'\x00\x00\x00\x00'
p436
tp437
Rp438
tp439
a(F121.22358
F24.9627
I1
g1
(g5
S'\x05\x00\x00\x00'
p440
tp441
Rp442
tp443
a(F121.30652
F25.0291
I1
g1
(g5
S'\x00\x00\x00\x00'
p444
tp445
Rp446
tp447
a(F121.30507
F25.00348
I1
g1
(g5
S'\x00\x00\x00\x00'
p448
tp449
Rp450
tp451
a(F121.00393
F24.95205
I1
g1
(g5
S'\x06\x00\x00\x00'
p452
tp453
Rp454
tp455
a(F121.29863
F25.05045
I1
g1
(g5
S'\x04\x00\x00\x00'
p456
tp457
Rp458
tp459
a(F121.30504
F25.02189
I1
g1
(g5
S'\x00\x00\x00\x00'
p460
tp461
Rp462
tp463
a(F121.25605
F25.0436
I1
g1
(g5
S'\x04\x00\x00\x00'
p464
tp465
Rp466
tp467
a(F121.29432
F24.99139
I1
g1
(g5
S'\x00\x00\x00\x00'
p468
tp469
Rp470
tp471
a(F121.181
F24.90921
I2
g1
(g5
S'\x05\x00\x00\x00'
p472
tp473
Rp474
tp475
a(F121.36795
F25.06226
I1
g1
(g5
S'\x03\x00\x00\x00'
p476
tp477
Rp478
tp479
a(F121.36607
F25.05729
I1
g1
(g5
S'\x03\x00\x00\x00'
p480
tp481
Rp482
tp483
a(F121.37255
F25.03618
I1
g1
(g5
S'\x03\x00\x00\x00'
p484
tp485
Rp486
tp487
a(F121.1397
F24.89897
I1
g1
(g5
S'\x05\x00\x00\x00'
p488
tp489
Rp490
tp491
a(F121.19264
F25.06027
I1
g1
(g5
S'\x04\x00\x00\x00'
p492
tp493
Rp494
tp495
a(F121.38533
F25.05861
I1
g1
(g5
S'\x03\x00\x00\x00'
p496
tp497
Rp498
tp499
a(F121.28695
F24.98666
I1
g1
(g5
S'\x00\x00\x00\x00'
p500
tp501
Rp502
tp503
a(F121.23904
F25.04008
I1
g1
(g5
S'\x04\x00\x00\x00'
p504
tp505
Rp506
tp507
a(F121.30403
F25.05932
I1
g1
(g5
S'\x04\x00\x00\x00'
p508
tp509
Rp510
tp511
a(F121.24272
F24.99256
I1
g1
(g5
S'\x00\x00\x00\x00'
p512
tp513
Rp514
tp515
a(F121.30634
F24.99294
I1
g1
(g5
S'\x00\x00\x00\x00'
p516
tp517
Rp518
tp519
a(F121.12216
F25.05775
I1
g1
(g5
S'\x06\x00\x00\x00'
p520
tp521
Rp522
tp523
a(F121.29177
F25.05138
I3
g1
(g5
S'\x04\x00\x00\x00'
p524
tp525
Rp526
tp527
a(F121.21335
F24.97088
I1
g1
(g5
S'\x05\x00\x00\x00'
p528
tp529
Rp530
tp531
a(F121.1707
F24.88235
I1
g1
(g5
S'\x05\x00\x00\x00'
p532
tp533
Rp534
tp535
a(F121.2952
F25.02804
I1
g1
(g5
S'\x00\x00\x00\x00'
p536
tp537
Rp538
tp539
a(F121.29971
F24.94793
I1
g1
(g5
S'\x00\x00\x00\x00'
p540
tp541
Rp542
tp543
a(F121.26155
F25.07433
I1
g1
(g5
S'\x04\x00\x00\x00'
p544
tp545
Rp546
tp547
a(F121.26038
F24.96372
I1
g1
(g5
S'\x00\x00\x00\x00'
p548
tp549
Rp550
tp551
a(F121.29414
F25.01228
I2
g1
(g5
S'\x00\x00\x00\x00'
p552
tp553
Rp554
tp555
a(F121.24879
F24.91891
I1
g1
(g5
S'\x05\x00\x00\x00'
p556
tp557
Rp558
tp559
a(F121.31193
F24.98763
I2
g1
(g5
S'\x00\x00\x00\x00'
p560
tp561
Rp562
tp563
a(F121.22634
F24.87095
I1
g1
(g5
S'\x05\x00\x00\x00'
p564
tp565
Rp566
tp567
a(F121.29672
F24.95874
I1
g1
(g5
S'\x00\x00\x00\x00'
p568
tp569
Rp570
tp571
a(F121.25393
F24.92848
I1
g1
(g5
S'\x05\x00\x00\x00'
p572
tp573
Rp574
tp575
a(F121.33091
F24.98932
I2
g1
(g5
S'\x00\x00\x00\x00'
p576
tp577
Rp578
tp579
a(F121.25115
F24.94467
I1
g1
(g5
S'\x05\x00\x00\x00'
p580
tp581
Rp582
tp583
a(F121.2182
F24.85736
I1
g1
(g5
S'\x05\x00\x00\x00'
p584
tp585
Rp586
tp587
a(F121.10077
F24.94265
I1
g1
(g5
S'\x06\x00\x00\x00'
p588
tp589
Rp590
tp591
a(F121.36875
F25.00294
I1
g1
(g5
S'\x03\x00\x00\x00'
p592
tp593
Rp594
tp595
a(F121.20828
F24.95214
I1
g1
(g5
S'\x05\x00\x00\x00'
p596
tp597
Rp598
tp599
a(F121.1353
F25.01533
I1
g1
(g5
S'\x06\x00\x00\x00'
p600
tp601
Rp602
tp603
a(F121.067907
F24.9826597
I1
g1
(g5
S'\x06\x00\x00\x00'
p604
tp605
Rp606
tp607
a(F121.26589
F24.88751
I1
g1
(g5
S'\x05\x00\x00\x00'
p608
tp609
Rp610
tp611
a(F121.2087
F25.0768
I1
g1
(g5
S'\x04\x00\x00\x00'
p612
tp613
Rp614
tp615
a(F121.2459
F25.10624
I1
g1
(g5
S'\x04\x00\x00\x00'
p616
tp617
Rp618
tp619
a(F121.25114
F24.97902
I1
g1
(g5
S'\x00\x00\x00\x00'
p620
tp621
Rp622
tp623
a(F121.30518
F25.05572
I2
g1
(g5
S'\x04\x00\x00\x00'
p624
tp625
Rp626
tp627
a(F121.336
F24.99316
I1
g1
(g5
S'\x00\x00\x00\x00'
p628
tp629
Rp630
tp631
a(F121.29285
F24.96682
I1
g1
(g5
S'\x00\x00\x00\x00'
p632
tp633
Rp634
tp635
a(F121.28736
F25.02135
I1
g1
(g5
S'\x00\x00\x00\x00'
p636
tp637
Rp638
tp639
a(F121.24738
F24.97141
I1
g1
(g5
S'\x05\x00\x00\x00'
p640
tp641
Rp642
tp643
a(F121.3433
F24.98969
I1
g1
(g5
S'\x00\x00\x00\x00'
p644
tp645
Rp646
tp647
a(F121.3118
F24.98032
I1
g1
(g5
S'\x00\x00\x00\x00'
p648
tp649
Rp650
tp651
a(F121.06458
F25.01173
I1
g1
(g5
S'\x06\x00\x00\x00'
p652
tp653
Rp654
tp655
a(F121.41021
F25.01947
I1
g1
(g5
S'\x03\x00\x00\x00'
p656
tp657
Rp658
tp659
a(F121.30006
F25.02463
I1
g1
(g5
S'\x00\x00\x00\x00'
p660
tp661
Rp662
tp663
a(F121.30983
F25.01158
I1
g1
(g5
S'\x00\x00\x00\x00'
p664
tp665
Rp666
tp667
a(F121.28366
F24.99104
I1
g1
(g5
S'\x00\x00\x00\x00'
p668
tp669
Rp670
tp671
a(F121.21765
F24.95689
I1
g1
(g5
S'\x05\x00\x00\x00'
p672
tp673
Rp674
tp675
a(F121.14619
F25.02954
I2
g1
(g5
S'\x06\x00\x00\x00'
p676
tp677
Rp678
tp679
a(F121.54542
F25.04856
I1
g1
(g5
S'\x03\x00\x00\x00'
p680
tp681
Rp682
tp683
a(F121.24396
F24.96515
I1
g1
(g5
S'\x05\x00\x00\x00'
p684
tp685
Rp686
tp687
a(F121.31199
F25.01204
I1
g1
(g5
S'\x00\x00\x00\x00'
p688
tp689
Rp690
tp691
a(F121.27567
F24.98014
I1
g1
(g5
S'\x00\x00\x00\x00'
p692
tp693
Rp694
tp695
a(F121.24472
F24.97638
I1
g1
(g5
S'\x05\x00\x00\x00'
p696
tp697
Rp698
tp699
a(F121.2497
F24.9692
I1
g1
(g5
S'\x05\x00\x00\x00'
p700
tp701
Rp702
tp703
a(F121.28028
F25.05887
I1
g1
(g5
S'\x04\x00\x00\x00'
p704
tp705
Rp706
tp707
a(F121.31637
F24.98615
I1
g1
(g5
S'\x00\x00\x00\x00'
p708
tp709
Rp710
tp711
a(F121.10859
F25.06129
I1
g1
(g5
S'\x06\x00\x00\x00'
p712
tp713
Rp714
tp715
a(F121.29595
F25.01869
I1
g1
(g5
S'\x00\x00\x00\x00'
p716
tp717
Rp718
tp719
a(F121.29501
F24.92589
I1
g1
(g5
S'\x00\x00\x00\x00'
p720
tp721
Rp722
tp723
a(F121.27566
F24.97473
I1
g1
(g5
S'\x00\x00\x00\x00'
p724
tp725
Rp726
tp727
a(F121.29524
F25.05383
I1
g1
(g5
S'\x04\x00\x00\x00'
p728
tp729
Rp730
tp731
a(F121.23351
F25.00107
I1
g1
(g5
S'\x00\x00\x00\x00'
p732
tp733
Rp734
tp735
a(F121.25458
F24.93353
I1
g1
(g5
S'\x05\x00\x00\x00'
p736
tp737
Rp738
tp739
a(F121.23282
F24.87659
I1
g1
(g5
S'\x05\x00\x00\x00'
p740
tp741
Rp742
tp743
a(F121.30846
F25.02142
I1
g1
(g5
S'\x00\x00\x00\x00'
p744
tp745
Rp746
tp747
a(F121.25499
F24.97504
I1
g1
(g5
S'\x00\x00\x00\x00'
p748
tp749
Rp750
tp751
a(F121.26189
F24.97131
I1
g1
(g5
S'\x00\x00\x00\x00'
p752
tp753
Rp754
tp755
a(F121.3054
F24.99026
I1
g1
(g5
S'\x00\x00\x00\x00'
p756
tp757
Rp758
tp759
a(F121.30182
F24.93043
I1
g1
(g5
S'\x00\x00\x00\x00'
p760
tp761
Rp762
tp763
a(F121.31927
F24.98742
I1
g1
(g5
S'\x00\x00\x00\x00'
p764
tp765
Rp766
tp767
a(F121.24976
F24.91322
I1
g1
(g5
S'\x05\x00\x00\x00'
p768
tp769
Rp770
tp771
a(F121.09983
F24.95175
I1
g1
(g5
S'\x06\x00\x00\x00'
p772
tp773
Rp774
tp775
a(F121.1957
F25.05841
I1
g1
(g5
S'\x04\x00\x00\x00'
p776
tp777
Rp778
tp779
a(F121.24688
F24.97081
I3
g1
(g5
S'\x05\x00\x00\x00'
p780
tp781
Rp782
tp783
a(F121.29246
F25.0143
I1
g1
(g5
S'\x00\x00\x00\x00'
p784
tp785
Rp786
tp787
a(F121.24847
F24.92003
I1
g1
(g5
S'\x05\x00\x00\x00'
p788
tp789
Rp790
tp791
a(F121.3611
F25.05795
I1
g1
(g5
S'\x03\x00\x00\x00'
p792
tp793
Rp794
tp795
a(F121.27581
F25.0956
I1
g1
(g5
S'\x04\x00\x00\x00'
p796
tp797
Rp798
tp799
a(F121.29675
F25.04742
I1
g1
(g5
S'\x04\x00\x00\x00'
p800
tp801
Rp802
tp803
a(F121.29525
F24.88111
I1
g1
(g5
S'\x05\x00\x00\x00'
p804
tp805
Rp806
tp807
a(F121.2023
F24.94564
I1
g1
(g5
S'\x05\x00\x00\x00'
p808
tp809
Rp810
tp811
a(F121.32957
F24.98778
I1
g1
(g5
S'\x00\x00\x00\x00'
p812
tp813
Rp814
tp815
a(F121.29651
F25.04431
I1
g1
(g5
S'\x04\x00\x00\x00'
p816
tp817
Rp818
tp819
a(F121.28835
F24.97627
I1
g1
(g5
S'\x00\x00\x00\x00'
p820
tp821
Rp822
tp823
a(F121.31675
F24.90701
I1
g1
(g5
S'\x00\x00\x00\x00'
p824
tp825
Rp826
tp827
a(F121.32057
F24.98872
I1
g1
(g5
S'\x00\x00\x00\x00'
p828
tp829
Rp830
tp831
a(F121.29058
F24.98632
I1
g1
(g5
S'\x00\x00\x00\x00'
p832
tp833
Rp834
tp835
a(F121.28353
F25.00691
I1
g1
(g5
S'\x00\x00\x00\x00'
p836
tp837
Rp838
tp839
a(F121.34784
F24.98591
I1
g1
(g5
S'\x00\x00\x00\x00'
p840
tp841
Rp842
tp843
a(F121.32565
F24.9939
I1
g1
(g5
S'\x00\x00\x00\x00'
p844
tp845
Rp846
tp847
a(F121.34953
F25.00393
I1
g1
(g5
S'\x00\x00\x00\x00'
p848
tp849
Rp850
tp851
a(F121.18951
F25.00534
I1
g1
(g5
S'\x05\x00\x00\x00'
p852
tp853
Rp854
tp855
a(F121.29376
F25.01409
I1
g1
(g5
S'\x00\x00\x00\x00'
p856
tp857
Rp858
tp859
a(F121.29013
F25.04803
I1
g1
(g5
S'\x04\x00\x00\x00'
p860
tp861
Rp862
tp863
a(F121.2353
F24.9715
I1
g1
(g5
S'\x05\x00\x00\x00'
p864
tp865
Rp866
tp867
a(F121.26448
F25.04769
I1
g1
(g5
S'\x04\x00\x00\x00'
p868
tp869
Rp870
tp871
a(F121.27099
F25.02893
I1
g1
(g5
S'\x04\x00\x00\x00'
p872
tp873
Rp874
tp875
a(F121.16274
F24.84628
I1
g1
(g5
S'\x05\x00\x00\x00'
p876
tp877
Rp878
tp879
a(F121.29509
F24.95793
I1
g1
(g5
S'\x00\x00\x00\x00'
p880
tp881
Rp882
tp883
a(F121.2157
F24.84392
I1
g1
(g5
S'\x05\x00\x00\x00'
p884
tp885
Rp886
tp887
a(F121.32481
F24.97078
I1
g1
(g5
S'\x00\x00\x00\x00'
p888
tp889
Rp890
tp891
a(F121.22446
F24.8475
I1
g1
(g5
S'\x05\x00\x00\x00'
p892
tp893
Rp894
tp895
a(F121.36205
F24.99531
I1
g1
(g5
S'\x03\x00\x00\x00'
p896
tp897
Rp898
tp899
a(F121.17742
F25.00126
I1
g1
(g5
S'\x05\x00\x00\x00'
p900
tp901
Rp902
tp903
a(F121.20353
F25.0099
I1
g1
(g5
S'\x05\x00\x00\x00'
p904
tp905
Rp906
tp907
a(F121.38176
F25.05537
I1
g1
(g5
S'\x03\x00\x00\x00'
p908
tp909
Rp910
tp911
a(F121.24704
F24.90309
I1
g1
(g5
S'\x05\x00\x00\x00'
p912
tp913
Rp914
tp915
a(F121.27494
F24.94302
I1
g1
(g5
S'\x00\x00\x00\x00'
p916
tp917
Rp918
tp919
a(F121.18077
F24.98838
I1
g1
(g5
S'\x05\x00\x00\x00'
p920
tp921
Rp922
tp923
a(F121.20517
F24.94699
I1
g1
(g5
S'\x05\x00\x00\x00'
p924
tp925
Rp926
tp927
a(F121.34562
F24.99069
I1
g1
(g5
S'\x00\x00\x00\x00'
p928
tp929
Rp930
tp931
a(F121.17838
F25.05129
I1
g1
(g5
S'\x04\x00\x00\x00'
p932
tp933
Rp934
tp935
a(F121.15303
F24.91074
I1
g1
(g5
S'\x05\x00\x00\x00'
p936
tp937
Rp938
tp939
a(F121.29283
F24.96819
I1
g1
(g5
S'\x00\x00\x00\x00'
p940
tp941
Rp942
tp943
a(F121.19974
F24.96752
I1
g1
(g5
S'\x05\x00\x00\x00'
p944
tp945
Rp946
tp947
a(F121.29406
F25.04241
I1
g1
(g5
S'\x04\x00\x00\x00'
p948
tp949
Rp950
tp951
a(F121.30056
F25.02304
I2
g1
(g5
S'\x00\x00\x00\x00'
p952
tp953
Rp954
tp955
a(F121.29569
F25.01658
I1
g1
(g5
S'\x00\x00\x00\x00'
p956
tp957
Rp958
tp959
a(F121.09399
F24.94324
I1
g1
(g5
S'\x06\x00\x00\x00'
p960
tp961
Rp962
tp963
a(F121.35751
F25.00217
I1
g1
(g5
S'\x03\x00\x00\x00'
p964
tp965
Rp966
tp967
a(F121.22861
F24.97037
I1
g1
(g5
S'\x05\x00\x00\x00'
p968
tp969
Rp970
tp971
a(F121.2096
F24.96065
I1
g1
(g5
S'\x05\x00\x00\x00'
p972
tp973
Rp974
tp975
a(F121.23148
F24.95446
I1
g1
(g5
S'\x05\x00\x00\x00'
p976
tp977
Rp978
tp979
a(F121.24621
F24.98081
I1
g1
(g5
S'\x00\x00\x00\x00'
p980
tp981
Rp982
tp983
a(F121.29503
F25.01292
I1
g1
(g5
S'\x00\x00\x00\x00'
p984
tp985
Rp986
tp987
a(F121.17408
F24.88353
I1
g1
(g5
S'\x05\x00\x00\x00'
p988
tp989
Rp990
tp991
a(F121.46018
F24.9923
I1
g1
(g5
S'\x03\x00\x00\x00'
p992
tp993
Rp994
tp995
a(F121.27602
F24.98015
I1
g1
(g5
S'\x00\x00\x00\x00'
p996
tp997
Rp998
tp999
a(F121.15936
F24.89964
I1
g1
(g5
S'\x05\x00\x00\x00'
p1000
tp1001
Rp1002
tp1003
a(F121.22087
F24.86497
I1
g1
(g5
S'\x05\x00\x00\x00'
p1004
tp1005
Rp1006
tp1007
a(F121.25746
F24.95256
I1
g1
(g5
S'\x05\x00\x00\x00'
p1008
tp1009
Rp1010
tp1011
a(F121.30497
F25.02051
I1
g1
(g5
S'\x00\x00\x00\x00'
p1012
tp1013
Rp1014
tp1015
a(F121.29489
F24.95485
I1
g1
(g5
S'\x00\x00\x00\x00'
p1016
tp1017
Rp1018
tp1019
a(F121.27564
F24.98733
I1
g1
(g5
S'\x00\x00\x00\x00'
p1020
tp1021
Rp1022
tp1023
a(F121.35528
F25.05792
I1
g1
(g5
S'\x03\x00\x00\x00'
p1024
tp1025
Rp1026
tp1027
a(F121.30162
F25.04695
I1
g1
(g5
S'\x04\x00\x00\x00'
p1028
tp1029
Rp1030
tp1031
a(F121.17765
F24.91254
I1
g1
(g5
S'\x05\x00\x00\x00'
p1032
tp1033
Rp1034
tp1035
a(F121.19914
F24.87137
I1
g1
(g5
S'\x05\x00\x00\x00'
p1036
tp1037
Rp1038
tp1039
a(F121.20835
F24.95919
I1
g1
(g5
S'\x05\x00\x00\x00'
p1040
tp1041
Rp1042
tp1043
a(F121.30104
F25.02491
I1
g1
(g5
S'\x00\x00\x00\x00'
p1044
tp1045
Rp1046
tp1047
a(F121.29609
F25.01226
I1
g1
(g5
S'\x00\x00\x00\x00'
p1048
tp1049
Rp1050
tp1051
a(F121.44482
F25.0933
I1
g1
(g5
S'\x03\x00\x00\x00'
p1052
tp1053
Rp1054
tp1055
a(F121.32338
F24.95022
I1
g1
(g5
S'\x00\x00\x00\x00'
p1056
tp1057
Rp1058
tp1059
a(F121.23376
F24.83951
I1
g1
(g5
S'\x05\x00\x00\x00'
p1060
tp1061
Rp1062
tp1063
a(F121.28262
F25.05262
I1
g1
(g5
S'\x04\x00\x00\x00'
p1064
tp1065
Rp1066
tp1067
a(F121.02989
F24.99037
I1
g1
(g5
S'\x06\x00\x00\x00'
p1068
tp1069
Rp1070
tp1071
a(F121.35441
F25.00223
I1
g1
(g5
S'\x03\x00\x00\x00'
p1072
tp1073
Rp1074
tp1075
a(F121.18191
F25.00809
I1
g1
(g5
S'\x05\x00\x00\x00'
p1076
tp1077
Rp1078
tp1079
a(F121.35693
F25.05179
I1
g1
(g5
S'\x03\x00\x00\x00'
p1080
tp1081
Rp1082
tp1083
a(F121.2053963
F24.9721514
I2
g1
(g5
S'\x05\x00\x00\x00'
p1084
tp1085
Rp1086
tp1087
a(F121.31661
F24.95743
I1
g1
(g5
S'\x00\x00\x00\x00'
p1088
tp1089
Rp1090
tp1091
a(F121.25896
F24.96485
I2
g1
(g5
S'\x00\x00\x00\x00'
p1092
tp1093
Rp1094
tp1095
a(F121.29369
F24.95666
I2
g1
(g5
S'\x00\x00\x00\x00'
p1096
tp1097
Rp1098
tp1099
a(F121.22458
F24.94777
I1
g1
(g5
S'\x05\x00\x00\x00'
p1100
tp1101
Rp1102
tp1103
a(F121.3545
F24.99125
I1
g1
(g5
S'\x00\x00\x00\x00'
p1104
tp1105
Rp1106
tp1107
a(F121.29879
F24.99706
I1
g1
(g5
S'\x00\x00\x00\x00'
p1108
tp1109
Rp1110
tp1111
a(F121.29315
F25.01617
I1
g1
(g5
S'\x00\x00\x00\x00'
p1112
tp1113
Rp1114
tp1115
a(F121.31165
F25.01287
I1
g1
(g5
S'\x00\x00\x00\x00'
p1116
tp1117
Rp1118
tp1119
a(F121.25202
F24.96966
I1
g1
(g5
S'\x00\x00\x00\x00'
p1120
tp1121
Rp1122
tp1123
a(F121.29421
F24.88314
I1
g1
(g5
S'\x05\x00\x00\x00'
p1124
tp1125
Rp1126
tp1127
a(F121.2053963
F24.9296022
I2
g1
(g5
S'\x05\x00\x00\x00'
p1128
tp1129
Rp1130
tp1131
a(F121.23771
F24.97882
I1
g1
(g5
S'\x05\x00\x00\x00'
p1132
tp1133
Rp1134
tp1135
a(F121.30179
F25.02336
I1
g1
(g5
S'\x00\x00\x00\x00'
p1136
tp1137
Rp1138
tp1139
a(F121.21415
F24.94076
I1
g1
(g5
S'\x05\x00\x00\x00'
p1140
tp1141
Rp1142
tp1143
a(F121.22289
F24.94648
I1
g1
(g5
S'\x05\x00\x00\x00'
p1144
tp1145
Rp1146
tp1147
a(F121.30629
F25.02085
I1
g1
(g5
S'\x00\x00\x00\x00'
p1148
tp1149
Rp1150
tp1151
a(F121.25193
F24.98351
I1
g1
(g5
S'\x00\x00\x00\x00'
p1152
tp1153
Rp1154
tp1155
a(F121.51159
F25.06896
I1
g1
(g5
S'\x03\x00\x00\x00'
p1156
tp1157
Rp1158
tp1159
a(F121.2912463
F24.9469059
I2
g1
(g5
S'\x00\x00\x00\x00'
p1160
tp1161
Rp1162
tp1163
a(F121.28836
F24.9847
I1
g1
(g5
S'\x00\x00\x00\x00'
p1164
tp1165
Rp1166
tp1167
a(F121.28802
F24.98378
I1
g1
(g5
S'\x00\x00\x00\x00'
p1168
tp1169
Rp1170
tp1171
a(F120.64726
F24.14726
I1
g1
(g5
S'\x02\x00\x00\x00'
p1172
tp1173
Rp1174
tp1175
a(F121.18455
F24.95873
I1
g1
(g5
S'\x05\x00\x00\x00'
p1176
tp1177
Rp1178
tp1179
a(F121.19475
F25.06219
I1
g1
(g5
S'\x04\x00\x00\x00'
p1180
tp1181
Rp1182
tp1183
a(F121.24205
F24.95464
I1
g1
(g5
S'\x05\x00\x00\x00'
p1184
tp1185
Rp1186
tp1187
a(F121.24267
F24.95338
I1
g1
(g5
S'\x05\x00\x00\x00'
p1188
tp1189
Rp1190
tp1191
a(F121.2157
F25.05508
I4
g1
(g5
S'\x04\x00\x00\x00'
p1192
tp1193
Rp1194
tp1195
a(F121.20312
F24.99326
I1
g1
(g5
S'\x05\x00\x00\x00'
p1196
tp1197
Rp1198
tp1199
a(F121.30069
F24.93145
I1
g1
(g5
S'\x00\x00\x00\x00'
p1200
tp1201
Rp1202
tp1203
a(F121.2516
F24.93439
I2
g1
(g5
S'\x05\x00\x00\x00'
p1204
tp1205
Rp1206
tp1207
a(F121.1412
F24.90131
I1
g1
(g5
S'\x05\x00\x00\x00'
p1208
tp1209
Rp1210
tp1211
a(F121.2251
F24.94969
I1
g1
(g5
S'\x05\x00\x00\x00'
p1212
tp1213
Rp1214
tp1215
a(F121.28394
F25.07538
I1
g1
(g5
S'\x04\x00\x00\x00'
p1216
tp1217
Rp1218
tp1219
a(F121.06172
F24.92824
I1
g1
(g5
S'\x06\x00\x00\x00'
p1220
tp1221
Rp1222
tp1223
a(F121.04845
F25.01709
I1
g1
(g5
S'\x06\x00\x00\x00'
p1224
tp1225
Rp1226
tp1227
a(F121.20013
F24.8684
I1
g1
(g5
S'\x05\x00\x00\x00'
p1228
tp1229
Rp1230
tp1231
a(F121.22461
F24.94447
I2
g1
(g5
S'\x05\x00\x00\x00'
p1232
tp1233
Rp1234
tp1235
a(F121.30216
F24.97022
I1
g1
(g5
S'\x00\x00\x00\x00'
p1236
tp1237
Rp1238
tp1239
a(F121.36329
F25.03558
I1
g1
(g5
S'\x03\x00\x00\x00'
p1240
tp1241
Rp1242
tp1243
a(F121.3022
F24.94163
I1
g1
(g5
S'\x00\x00\x00\x00'
p1244
tp1245
Rp1246
tp1247
a(F121.2841
F24.99207
I2
g1
(g5
S'\x00\x00\x00\x00'
p1248
tp1249
Rp1250
tp1251
a(F121.25023
F24.95331
I1
g1
(g5
S'\x05\x00\x00\x00'
p1252
tp1253
Rp1254
tp1255
a(F121.26184
F24.95993
I1
g1
(g5
S'\x00\x00\x00\x00'
p1256
tp1257
Rp1258
tp1259
a(F121.30778
F24.99453
I1
g1
(g5
S'\x00\x00\x00\x00'
p1260
tp1261
Rp1262
tp1263
a(F121.33352
F24.98252
I1
g1
(g5
S'\x00\x00\x00\x00'
p1264
tp1265
Rp1266
tp1267
a(F121.28558
F24.89958
I1
g1
(g5
S'\x05\x00\x00\x00'
p1268
tp1269
Rp1270
tp1271
a(F121.21106
F24.96402
I1
g1
(g5
S'\x05\x00\x00\x00'
p1272
tp1273
Rp1274
tp1275
a(F121.23583
F24.91411
I1
g1
(g5
S'\x05\x00\x00\x00'
p1276
tp1277
Rp1278
tp1279
a(F121.28849
F25.04595
I1
g1
(g5
S'\x04\x00\x00\x00'
p1280
tp1281
Rp1282
tp1283
a(F121.2926
F25.05252
I2
g1
(g5
S'\x04\x00\x00\x00'
p1284
tp1285
Rp1286
tp1287
a(F121.25267
F24.9543
I1
g1
(g5
S'\x05\x00\x00\x00'
p1288
tp1289
Rp1290
tp1291
a(F121.31697
F24.99549
I1
g1
(g5
S'\x00\x00\x00\x00'
p1292
tp1293
Rp1294
tp1295
a(F121.20154
F25.01396
I1
g1
(g5
S'\x04\x00\x00\x00'
p1296
tp1297
Rp1298
tp1299
a(F121.29896
F25.05216
I1
g1
(g5
S'\x04\x00\x00\x00'
p1300
tp1301
Rp1302
tp1303
a(F121.36424
F25.06075
I2
g1
(g5
S'\x03\x00\x00\x00'
p1304
tp1305
Rp1306
tp1307
a(F121.20781
F24.96311
I1
g1
(g5
S'\x05\x00\x00\x00'
p1308
tp1309
Rp1310
tp1311
a(F121.33418
F24.98238
I2
g1
(g5
S'\x00\x00\x00\x00'
p1312
tp1313
Rp1314
tp1315
a(F121.30527
F25.00897
I1
g1
(g5
S'\x00\x00\x00\x00'
p1316
tp1317
Rp1318
tp1319
a(F121.30337
F24.95452
I1
g1
(g5
S'\x00\x00\x00\x00'
p1320
tp1321
Rp1322
tp1323
a(F121.29636
F25.05955
I2
g1
(g5
S'\x04\x00\x00\x00'
p1324
tp1325
Rp1326
tp1327
a(F121.20615
F24.91037
I1
g1
(g5
S'\x05\x00\x00\x00'
p1328
tp1329
Rp1330
tp1331
a(F121.29943
F24.99708
I1
g1
(g5
S'\x00\x00\x00\x00'
p1332
tp1333
Rp1334
tp1335
a(F121.25576
F24.97086
I1
g1
(g5
S'\x00\x00\x00\x00'
p1336
tp1337
Rp1338
tp1339
a(F121.19304
F24.99043
I1
g1
(g5
S'\x05\x00\x00\x00'
p1340
tp1341
Rp1342
tp1343
a(F121.312
F24.99221
I1
g1
(g5
S'\x00\x00\x00\x00'
p1344
tp1345
Rp1346
tp1347
a(F121.2045
F24.89143
I1
g1
(g5
S'\x05\x00\x00\x00'
p1348
tp1349
Rp1350
tp1351
a(F121.28903
F25.05085
I1
g1
(g5
S'\x04\x00\x00\x00'
p1352
tp1353
Rp1354
tp1355
a(F121.3219
F24.99145
I1
g1
(g5
S'\x00\x00\x00\x00'
p1356
tp1357
Rp1358
tp1359
a(F121.20342
F24.94753
I1
g1
(g5
S'\x05\x00\x00\x00'
p1360
tp1361
Rp1362
tp1363
a(F121.21664
F24.96495
I3
g1
(g5
S'\x05\x00\x00\x00'
p1364
tp1365
Rp1366
tp1367
a(F121.31443
F25.0208
I1
g1
(g5
S'\x00\x00\x00\x00'
p1368
tp1369
Rp1370
tp1371
a(F121.25986
F24.95126
I1
g1
(g5
S'\x05\x00\x00\x00'
p1372
tp1373
Rp1374
tp1375
a(F121.18094
F24.87023
I1
g1
(g5
S'\x05\x00\x00\x00'
p1376
tp1377
Rp1378
tp1379
a(F121.33235
F25.07364
I7
g1
(g5
S'\x04\x00\x00\x00'
p1380
tp1381
Rp1382
tp1383
a(F121.19041
F24.90025
I1
g1
(g5
S'\x05\x00\x00\x00'
p1384
tp1385
Rp1386
tp1387
a(F121.23445
F24.87464
I1
g1
(g5
S'\x05\x00\x00\x00'
p1388
tp1389
Rp1390
tp1391
a(F121.24875
F24.98399
I1
g1
(g5
S'\x00\x00\x00\x00'
p1392
tp1393
Rp1394
tp1395
a(F121.3655989
F25.0199092
I1
g1
(g5
S'\x03\x00\x00\x00'
p1396
tp1397
Rp1398
tp1399
a(F121.30108
F24.9703
I1
g1
(g5
S'\x00\x00\x00\x00'
p1400
tp1401
Rp1402
tp1403
a(F121.12489
F24.93664
I1
g1
(g5
S'\x06\x00\x00\x00'
p1404
tp1405
Rp1406
tp1407
a(F121.18995
F24.91866
I1
g1
(g5
S'\x05\x00\x00\x00'
p1408
tp1409
Rp1410
tp1411
a(F121.23783
F25.04535
I1
g1
(g5
S'\x04\x00\x00\x00'
p1412
tp1413
Rp1414
tp1415
a(F121.27065
F25.00979
I1
g1
(g5
S'\x00\x00\x00\x00'
p1416
tp1417
Rp1418
tp1419
a(F121.26385
F24.96775
I2
g1
(g5
S'\x00\x00\x00\x00'
p1420
tp1421
Rp1422
tp1423
a(F121.28745
F25.03963
I1
g1
(g5
S'\x04\x00\x00\x00'
p1424
tp1425
Rp1426
tp1427
a(F121.31371
F25.01534
I1
g1
(g5
S'\x00\x00\x00\x00'
p1428
tp1429
Rp1430
tp1431
a(F121.31483
F24.99067
I1
g1
(g5
S'\x00\x00\x00\x00'
p1432
tp1433
Rp1434
tp1435
a(F121.13537
F24.90553
I1
g1
(g5
S'\x05\x00\x00\x00'
p1436
tp1437
Rp1438
tp1439
a(F121.2967
F25.01567
I3
g1
(g5
S'\x00\x00\x00\x00'
p1440
tp1441
Rp1442
tp1443
a(F120.66889
F24.1303
I1
g1
(g5
S'\x02\x00\x00\x00'
p1444
tp1445
Rp1446
tp1447
a(F121.21521
F25.05995
I1
g1
(g5
S'\x04\x00\x00\x00'
p1448
tp1449
Rp1450
tp1451
a(F121.21099
F25.0618
I1
g1
(g5
S'\x04\x00\x00\x00'
p1452
tp1453
Rp1454
tp1455
a(F121.18628
F24.96272
I1
g1
(g5
S'\x05\x00\x00\x00'
p1456
tp1457
Rp1458
tp1459
a(F121.33264
F24.98477
I1
g1
(g5
S'\x00\x00\x00\x00'
p1460
tp1461
Rp1462
tp1463
a(F121.25989
F24.96501
I3
g1
(g5
S'\x00\x00\x00\x00'
p1464
tp1465
Rp1466
tp1467
a(F121.21096
F24.95864
I1
g1
(g5
S'\x05\x00\x00\x00'
p1468
tp1469
Rp1470
tp1471
a(F121.20648
F24.95503
I1
g1
(g5
S'\x05\x00\x00\x00'
p1472
tp1473
Rp1474
tp1475
a(F121.29399
F25.0233
I2
g1
(g5
S'\x00\x00\x00\x00'
p1476
tp1477
Rp1478
tp1479
a(F121.2493
F24.91384
I3
g1
(g5
S'\x05\x00\x00\x00'
p1480
tp1481
Rp1482
tp1483
a(F121.25613
F24.96168
I1
g1
(g5
S'\x05\x00\x00\x00'
p1484
tp1485
Rp1486
tp1487
a(F121.29521
F25.0126
I2
g1
(g5
S'\x00\x00\x00\x00'
p1488
tp1489
Rp1490
tp1491
a(F121.22719
F24.95079
I1
g1
(g5
S'\x05\x00\x00\x00'
p1492
tp1493
Rp1494
tp1495
a(F121.2245
F24.9391
I1
g1
(g5
S'\x05\x00\x00\x00'
p1496
tp1497
Rp1498
tp1499
a(F121.31243
F25.01133
I1
g1
(g5
S'\x00\x00\x00\x00'
p1500
tp1501
Rp1502
tp1503
a(F121.36699
F25.01634
I1
g1
(g5
S'\x03\x00\x00\x00'
p1504
tp1505
Rp1506
tp1507
a(F121.20905
F24.93449
I1
g1
(g5
S'\x05\x00\x00\x00'
p1508
tp1509
Rp1510
tp1511
a(F121.26409
F24.95522
I1
g1
(g5
S'\x00\x00\x00\x00'
p1512
tp1513
Rp1514
tp1515
a(F121.25877
F24.9338
I1
g1
(g5
S'\x05\x00\x00\x00'
p1516
tp1517
Rp1518
tp1519
a(F121.23009
F24.96645
I1
g1
(g5
S'\x05\x00\x00\x00'
p1520
tp1521
Rp1522
tp1523
a(F121.2916
F25.05207
I1
g1
(g5
S'\x04\x00\x00\x00'
p1524
tp1525
Rp1526
tp1527
a(F121.29669
F24.95662
I2
g1
(g5
S'\x00\x00\x00\x00'
p1528
tp1529
Rp1530
tp1531
a(F121.22717
F25.01432
I1
g1
(g5
S'\x04\x00\x00\x00'
p1532
tp1533
Rp1534
tp1535
a(F121.31301
F25.01455
I1
g1
(g5
S'\x00\x00\x00\x00'
p1536
tp1537
Rp1538
tp1539
a(F121.25647
F24.94076
I1
g1
(g5
S'\x05\x00\x00\x00'
p1540
tp1541
Rp1542
tp1543
a(F121.55493
F25.04109
I1
g1
(g5
S'\x03\x00\x00\x00'
p1544
tp1545
Rp1546
tp1547
a(F121.28848
F24.98897
I1
g1
(g5
S'\x00\x00\x00\x00'
p1548
tp1549
Rp1550
tp1551
a(F121.24048
F24.95508
I1
g1
(g5
S'\x05\x00\x00\x00'
p1552
tp1553
Rp1554
tp1555
a(F121.25844
F25.07233
I1
g1
(g5
S'\x04\x00\x00\x00'
p1556
tp1557
Rp1558
tp1559
a(F121.20694
F25.08441
I1
g1
(g5
S'\x04\x00\x00\x00'
p1560
tp1561
Rp1562
tp1563
a(F121.1823
F24.90941
I1
g1
(g5
S'\x05\x00\x00\x00'
p1564
tp1565
Rp1566
tp1567
a(F121.29306
F25.00504
I1
g1
(g5
S'\x00\x00\x00\x00'
p1568
tp1569
Rp1570
tp1571
a(F121.29139
F25.02156
I1
g1
(g5
S'\x00\x00\x00\x00'
p1572
tp1573
Rp1574
tp1575
a(F121.29996
F25.0217
I1
g1
(g5
S'\x00\x00\x00\x00'
p1576
tp1577
Rp1578
tp1579
a(F121.27131
F25.05282
I1
g1
(g5
S'\x04\x00\x00\x00'
p1580
tp1581
Rp1582
tp1583
a(F121.12883
F25.05115
I1
g1
(g5
S'\x06\x00\x00\x00'
p1584
tp1585
Rp1586
tp1587
a(F121.22921
F24.96754
I2
g1
(g5
S'\x05\x00\x00\x00'
p1588
tp1589
Rp1590
tp1591
a(F121.28999
F24.98718
I1
g1
(g5
S'\x00\x00\x00\x00'
p1592
tp1593
Rp1594
tp1595
a(F121.2588
F25.10194
I2
g1
(g5
S'\x04\x00\x00\x00'
p1596
tp1597
Rp1598
tp1599
a(F121.28778
F24.99041
I1
g1
(g5
S'\x00\x00\x00\x00'
p1600
tp1601
Rp1602
tp1603
a(F121.36716
F25.0305
I1
g1
(g5
S'\x03\x00\x00\x00'
p1604
tp1605
Rp1606
tp1607
a(F121.22519
F24.97066
I1
g1
(g5
S'\x05\x00\x00\x00'
p1608
tp1609
Rp1610
tp1611
a(F121.20973
F24.95386
I1
g1
(g5
S'\x05\x00\x00\x00'
p1612
tp1613
Rp1614
tp1615
a(F121.25074
F24.93786
I1
g1
(g5
S'\x05\x00\x00\x00'
p1616
tp1617
Rp1618
tp1619
a(F121.28016
F24.99018
I2
g1
(g5
S'\x00\x00\x00\x00'
p1620
tp1621
Rp1622
tp1623
a(F121.21434
F24.86879
I1
g1
(g5
S'\x05\x00\x00\x00'
p1624
tp1625
Rp1626
tp1627
a(F121.31935
F24.98669
I1
g1
(g5
S'\x00\x00\x00\x00'
p1628
tp1629
Rp1630
tp1631
a(F121.31514
F25.01175
I1
g1
(g5
S'\x00\x00\x00\x00'
p1632
tp1633
Rp1634
tp1635
a.