(lp0
(F120.30402
F23.60111
I1
cnumpy.core.multiarray
scalar
p1
(cnumpy
dtype
p2
(S'i4'
p3
I0
I1
tp4
Rp5
(I3
S'<'
p6
NNNI-1
I-1
I0
tp7
bS'\x00\x00\x00\x00'
p8
tp9
Rp10
tp11
a(F120.40778
F23.79732
I1
g1
(g5
S'\x06\x00\x00\x00'
p12
tp13
Rp14
tp15
a(F120.56194
F23.68894
I1
g1
(g5
S'\x02\x00\x00\x00'
p16
tp17
Rp18
tp19
a(F120.55019
F23.7063
I1
g1
(g5
S'\x02\x00\x00\x00'
p20
tp21
Rp22
tp23
a(F120.42652
F23.69985
I1
g1
(g5
S'\x05\x00\x00\x00'
p24
tp25
Rp26
tp27
a(F120.43722
F23.71169
I1
g1
(g5
S'\x05\x00\x00\x00'
p28
tp29
Rp30
tp31
a(F120.2118
F23.80233
I2
g1
(g5
S'\x04\x00\x00\x00'
p32
tp33
Rp34
tp35
a(F120.52364
F23.69832
I1
g1
(g5
S'\x02\x00\x00\x00'
p36
tp37
Rp38
tp39
a(F120.35429
F22.64263
I1
g1
(g5
S'\x01\x00\x00\x00'
p40
tp41
Rp42
tp43
a(F120.55897
F23.6778
I1
g1
(g5
S'\x02\x00\x00\x00'
p44
tp45
Rp46
tp47
a(F120.59009
F23.75305
I1
g1
(g5
S'\x02\x00\x00\x00'
p48
tp49
Rp50
tp51
a(F120.47042
F23.66414
I1
g1
(g5
S'\x05\x00\x00\x00'
p52
tp53
Rp54
tp55
a(F120.45993
F23.79966
I1
g1
(g5
S'\x06\x00\x00\x00'
p56
tp57
Rp58
tp59
a(F120.50544
F23.74017
I1
g1
(g5
S'\x06\x00\x00\x00'
p60
tp61
Rp62
tp63
a(F120.5503
F23.70684
I1
g1
(g5
S'\x02\x00\x00\x00'
p64
tp65
Rp66
tp67
a(F120.5532
F23.73949
I1
g1
(g5
S'\x02\x00\x00\x00'
p68
tp69
Rp70
tp71
a(F120.25434
F23.74882
I1
g1
(g5
S'\x04\x00\x00\x00'
p72
tp73
Rp74
tp75
a(F120.43059
F23.70631
I1
g1
(g5
S'\x05\x00\x00\x00'
p76
tp77
Rp78
tp79
a(F120.3455
F23.66496
I1
g1
(g5
S'\x05\x00\x00\x00'
p80
tp81
Rp82
tp83
a(F120.29063
F23.57592
I1
g1
(g5
S'\x00\x00\x00\x00'
p84
tp85
Rp86
tp87
a(F120.44524
F23.70861
I1
g1
(g5
S'\x05\x00\x00\x00'
p88
tp89
Rp90
tp91
a(F120.50396
F23.75995
I1
g1
(g5
S'\x06\x00\x00\x00'
p92
tp93
Rp94
tp95
a(F120.60892
F23.613
I1
g1
(g5
S'\x02\x00\x00\x00'
p96
tp97
Rp98
tp99
a(F120.59552
F23.61301
I1
g1
(g5
S'\x02\x00\x00\x00'
p100
tp101
Rp102
tp103
a(F120.59782
F23.70191
I1
g1
(g5
S'\x02\x00\x00\x00'
p104
tp105
Rp106
tp107
a(F120.35065
F23.71204
I1
g1
(g5
S'\x05\x00\x00\x00'
p108
tp109
Rp110
tp111
a(F120.52851
F23.6921
I3
g1
(g5
S'\x02\x00\x00\x00'
p112
tp113
Rp114
tp115
a(F120.36447
F22.56629
I1
g1
(g5
S'\x01\x00\x00\x00'
p116
tp117
Rp118
tp119
a(F120.53885
F23.6791
I1
g1
(g5
S'\x02\x00\x00\x00'
p120
tp121
Rp122
tp123
a(F120.27616
F23.82104
I1
g1
(g5
S'\x04\x00\x00\x00'
p124
tp125
Rp126
tp127
a(F120.39127
F23.68703
I1
g1
(g5
S'\x05\x00\x00\x00'
p128
tp129
Rp130
tp131
a(F120.53966
F23.71568
I1
g1
(g5
S'\x02\x00\x00\x00'
p132
tp133
Rp134
tp135
a(F120.53932
F23.69908
I1
g1
(g5
S'\x02\x00\x00\x00'
p136
tp137
Rp138
tp139
a(F120.43833
F23.69186
I1
g1
(g5
S'\x05\x00\x00\x00'
p140
tp141
Rp142
tp143
a(F120.44961
F23.70456
I1
g1
(g5
S'\x05\x00\x00\x00'
p144
tp145
Rp146
tp147
a(F120.46
F23.79763
I1
g1
(g5
S'\x06\x00\x00\x00'
p148
tp149
Rp150
tp151
a(F120.57554
F23.76216
I1
g1
(g5
S'\x02\x00\x00\x00'
p152
tp153
Rp154
tp155
a(F120.42754
F23.70128
I1
g1
(g5
S'\x05\x00\x00\x00'
p156
tp157
Rp158
tp159
a(F120.31368
F23.64456
I1
g1
(g5
S'\x00\x00\x00\x00'
p160
tp161
Rp162
tp163
a(F120.27797
F23.60126
I1
g1
(g5
S'\x00\x00\x00\x00'
p164
tp165
Rp166
tp167
a(F120.35987
F23.70638
I1
g1
(g5
S'\x05\x00\x00\x00'
p168
tp169
Rp170
tp171
a(F120.21093
F23.73942
I1
g1
(g5
S'\x04\x00\x00\x00'
p172
tp173
Rp174
tp175
a(F120.5468
F23.75202
I1
g1
(g5
S'\x02\x00\x00\x00'
p176
tp177
Rp178
tp179
a(F120.53974
F23.69694
I1
g1
(g5
S'\x02\x00\x00\x00'
p180
tp181
Rp182
tp183
a(F120.47435
F23.6949
I1
g1
(g5
S'\x05\x00\x00\x00'
p184
tp185
Rp186
tp187
a(F120.25092
F23.67423
I1
g1
(g5
S'\x00\x00\x00\x00'
p188
tp189
Rp190
tp191
a(F120.46534
F23.79359
I1
g1
(g5
S'\x06\x00\x00\x00'
p192
tp193
Rp194
tp195
a(F120.16579
F23.55289
I1
g1
(g5
S'\x00\x00\x00\x00'
p196
tp197
Rp198
tp199
a(F120.56138
F23.62948
I1
g1
(g5
S'\x02\x00\x00\x00'
p200
tp201
Rp202
tp203
a(F120.39181
F23.67465
I1
g1
(g5
S'\x05\x00\x00\x00'
p204
tp205
Rp206
tp207
a(F120.28454
F23.64235
I1
g1
(g5
S'\x00\x00\x00\x00'
p208
tp209
Rp210
tp211
a(F120.44038
F23.63677
I1
g1
(g5
S'\x05\x00\x00\x00'
p212
tp213
Rp214
tp215
a(F120.51739
F23.76475
I1
g1
(g5
S'\x06\x00\x00\x00'
p216
tp217
Rp218
tp219
a(F120.44755
F23.80782
I1
g1
(g5
S'\x06\x00\x00\x00'
p220
tp221
Rp222
tp223
a(F120.47831
F23.67904
I1
g1
(g5
S'\x05\x00\x00\x00'
p224
tp225
Rp226
tp227
a(F120.24652
F23.80203
I2
g1
(g5
S'\x04\x00\x00\x00'
p228
tp229
Rp230
tp231
a(F120.19011
F23.68382
I1
g1
(g5
S'\x00\x00\x00\x00'
p232
tp233
Rp234
tp235
a(F120.45708
F23.80247
I1
g1
(g5
S'\x06\x00\x00\x00'
p236
tp237
Rp238
tp239
a(F120.61429
F23.75896
I1
g1
(g5
S'\x02\x00\x00\x00'
p240
tp241
Rp242
tp243
a(F120.1817
F23.66695
I1
g1
(g5
S'\x00\x00\x00\x00'
p244
tp245
Rp246
tp247
a(F120.64951
F24.17557
I1
g1
(g5
S'\x03\x00\x00\x00'
p248
tp249
Rp250
tp251
a(F120.35425
F23.76032
I1
g1
(g5
S'\x05\x00\x00\x00'
p252
tp253
Rp254
tp255
a(F120.54883
F23.66848
I1
g1
(g5
S'\x02\x00\x00\x00'
p256
tp257
Rp258
tp259
a(F120.57948
F23.72511
I1
g1
(g5
S'\x02\x00\x00\x00'
p260
tp261
Rp262
tp263
a(F120.3502
F22.68908
I1
g1
(g5
S'\x01\x00\x00\x00'
p264
tp265
Rp266
tp267
a(F120.46644
F23.68028
I1
g1
(g5
S'\x05\x00\x00\x00'
p268
tp269
Rp270
tp271
a(F120.61967
F23.76269
I1
g1
(g5
S'\x02\x00\x00\x00'
p272
tp273
Rp274
tp275
a(F120.64219
F24.13542
I1
g1
(g5
S'\x03\x00\x00\x00'
p276
tp277
Rp278
tp279
a(F120.57607
F23.5932
I1
g1
(g5
S'\x02\x00\x00\x00'
p280
tp281
Rp282
tp283
a(F120.52817
F23.72044
I2
g1
(g5
S'\x02\x00\x00\x00'
p284
tp285
Rp286
tp287
a(F120.42551
F23.70202
I1
g1
(g5
S'\x05\x00\x00\x00'
p288
tp289
Rp290
tp291
a(F120.55753
F23.70516
I1
g1
(g5
S'\x02\x00\x00\x00'
p292
tp293
Rp294
tp295
a(F120.31722
F23.67713
I1
g1
(g5
S'\x00\x00\x00\x00'
p296
tp297
Rp298
tp299
a(F120.45691
F23.65762
I1
g1
(g5
S'\x05\x00\x00\x00'
p300
tp301
Rp302
tp303
a(F120.51964
F23.68793
I1
g1
(g5
S'\x02\x00\x00\x00'
p304
tp305
Rp306
tp307
a(F120.55028
F23.71601
I1
g1
(g5
S'\x02\x00\x00\x00'
p308
tp309
Rp310
tp311
a(F120.31807
F22.6589
I1
g1
(g5
S'\x01\x00\x00\x00'
p312
tp313
Rp314
tp315
a(F120.48123
F23.67552
I1
g1
(g5
S'\x05\x00\x00\x00'
p316
tp317
Rp318
tp319
a(F120.55676
F23.69074
I1
g1
(g5
S'\x02\x00\x00\x00'
p320
tp321
Rp322
tp323
a(F120.4751
F23.67078
I1
g1
(g5
S'\x05\x00\x00\x00'
p324
tp325
Rp326
tp327
a(F120.55483
F23.63055
I1
g1
(g5
S'\x02\x00\x00\x00'
p328
tp329
Rp330
tp331
a(F120.4775
F23.67449
I1
g1
(g5
S'\x05\x00\x00\x00'
p332
tp333
Rp334
tp335
a(F120.26791
F23.79405
I1
g1
(g5
S'\x04\x00\x00\x00'
p336
tp337
Rp338
tp339
a(F120.16215
F23.62315
I1
g1
(g5
S'\x00\x00\x00\x00'
p340
tp341
Rp342
tp343
a(F120.53006
F23.6913
I1
g1
(g5
S'\x02\x00\x00\x00'
p344
tp345
Rp346
tp347
a(F120.5357
F23.70184
I1
g1
(g5
S'\x02\x00\x00\x00'
p348
tp349
Rp350
tp351
a.