(lp0
(F120.783
F24.617
I4
cnumpy.core.multiarray
scalar
p1
(cnumpy
dtype
p2
(S'i4'
p3
I0
I1
tp4
Rp5
(I3
S'<'
p6
NNNI-1
I-1
I0
tp7
bS'\x00\x00\x00\x00'
p8
tp9
Rp10
tp11
a(F120.878
F24.7082
I2
g1
(g5
S'\x02\x00\x00\x00'
p12
tp13
Rp14
tp15
a(F120.817
F24.55
I4
g1
(g5
S'\x03\x00\x00\x00'
p16
tp17
Rp18
tp19
a(F120.95
F24.65
I1
g1
(g5
S'\x04\x00\x00\x00'
p20
tp21
Rp22
tp23
a(F120.783
F24.4896
I1
g1
(g5
S'\x05\x00\x00\x00'
p24
tp25
Rp26
tp27
a(F120.85
F24.567
I1
g1
(g5
S'\x03\x00\x00\x00'
p28
tp29
Rp30
tp31
a(F121.01
F24.594
I1
g1
(g5
S'\x04\x00\x00\x00'
p32
tp33
Rp34
tp35
a(F120.65
F24.45
I4
g1
(g5
S'\x01\x00\x00\x00'
p36
tp37
Rp38
tp39
a(F120.85
F24.633
I1
g1
(g5
S'\x06\x00\x00\x00'
p40
tp41
Rp42
tp43
a(F120.667
F24.483
I2
g1
(g5
S'\x01\x00\x00\x00'
p44
tp45
Rp46
tp47
a(F120.838
F24.5084
I1
g1
(g5
S'\x05\x00\x00\x00'
p48
tp49
Rp50
tp51
a(F120.8541887
F24.6666839
I9
g1
(g5
S'\x06\x00\x00\x00'
p52
tp53
Rp54
tp55
a.