(lp0
(F120.683
F23.9
I6
cnumpy.core.multiarray
scalar
p1
(cnumpy
dtype
p2
(S'i4'
p3
I0
I1
tp4
Rp5
(I3
S'<'
p6
NNNI-1
I-1
I0
tp7
bS'\x00\x00\x00\x00'
p8
tp9
Rp10
tp11
a(F120.667
F23.767
I3
g1
(g5
S'\x02\x00\x00\x00'
p12
tp13
Rp14
tp15
a(F120.683
F23.983
I7
g1
(g5
S'\x04\x00\x00\x00'
p16
tp17
Rp18
tp19
a(F120.861
F23.805
I1
g1
(g5
S'\x01\x00\x00\x00'
p20
tp21
Rp22
tp23
a(F120.991
F23.694
I1
g1
(g5
S'\x03\x00\x00\x00'
p24
tp25
Rp26
tp27
a(F120.75
F23.833
I1
g1
(g5
S'\x05\x00\x00\x00'
p28
tp29
Rp30
tp31
a.