(lp0
(F120.533
F24.15
I2
cnumpy.core.multiarray
scalar
p1
(cnumpy
dtype
p2
(S'i4'
p3
I0
I1
tp4
Rp5
(I3
S'<'
p6
NNNI-1
I-1
I0
tp7
bS'\x05\x00\x00\x00'
p8
tp9
Rp10
tp11
a(F120.7
F24.217
I1
g1
(g5
S'\x03\x00\x00\x00'
p12
tp13
Rp14
tp15
a(F120.683
F24.167
I9
g1
(g5
S'\x06\x00\x00\x00'
p16
tp17
Rp18
tp19
a(F120.6604
F24.1228
I5
g1
(g5
S'\x01\x00\x00\x00'
p20
tp21
Rp22
tp23
a(F120.533
F24.2
I9
g1
(g5
S'\x05\x00\x00\x00'
p24
tp25
Rp26
tp27
a(F120.683
F24.1
I3
g1
(g5
S'\x01\x00\x00\x00'
p28
tp29
Rp30
tp31
a(F120.617
F24.133
I5
g1
(g5
S'\x04\x00\x00\x00'
p32
tp33
Rp34
tp35
a(F120.583
F24.35
I5
g1
(g5
S'\x02\x00\x00\x00'
p36
tp37
Rp38
tp39
a(F120.65
F24.25
I3
g1
(g5
S'\x00\x00\x00\x00'
p40
tp41
Rp42
tp43
a(F120.55
F24.233
I4
g1
(g5
S'\x05\x00\x00\x00'
p44
tp45
Rp46
tp47
a(F120.6817
F24.1416
I1
g1
(g5
S'\x06\x00\x00\x00'
p48
tp49
Rp50
tp51
a(F120.7
F24.3
I6
g1
(g5
S'\x03\x00\x00\x00'
p52
tp53
Rp54
tp55
a(F120.667
F24.1
I14
g1
(g5
S'\x01\x00\x00\x00'
p56
tp57
Rp58
tp59
a(F120.517
F24.25
I1
g1
(g5
S'\x05\x00\x00\x00'
p60
tp61
Rp62
tp63
a(F120.567
F24.267
I3
g1
(g5
S'\x05\x00\x00\x00'
p64
tp65
Rp66
tp67
a(F120.65
F24.333
I5
g1
(g5
S'\x02\x00\x00\x00'
p68
tp69
Rp70
tp71
a(F120.617
F24.183
I19
g1
(g5
S'\x00\x00\x00\x00'
p72
tp73
Rp74
tp75
a(F120.517
F24.35
I2
g1
(g5
S'\x02\x00\x00\x00'
p76
tp77
Rp78
tp79
a(F120.6632
F24.1444
I6
g1
(g5
S'\x06\x00\x00\x00'
p80
tp81
Rp82
tp83
a(F120.767
F24.283
I1
g1
(g5
S'\x03\x00\x00\x00'
p84
tp85
Rp86
tp87
a(F120.6834
F24.1599
I4
g1
(g5
S'\x06\x00\x00\x00'
p88
tp89
Rp90
tp91
a(F120.7
F24.133
I8
g1
(g5
S'\x06\x00\x00\x00'
p92
tp93
Rp94
tp95
a(F120.617
F24.1
I13
g1
(g5
S'\x04\x00\x00\x00'
p96
tp97
Rp98
tp99
a(F120.633
F24.217
I6
g1
(g5
S'\x00\x00\x00\x00'
p100
tp101
Rp102
tp103
a(F120.717
F24.25
I8
g1
(g5
S'\x03\x00\x00\x00'
p104
tp105
Rp106
tp107
a(F120.6948
F24.1345
I4
g1
(g5
S'\x06\x00\x00\x00'
p108
tp109
Rp110
tp111
a(F120.817
F24.25
I2
g1
(g5
S'\x03\x00\x00\x00'
p112
tp113
Rp114
tp115
a.