(lp0
(F121.083
F24.733
I23
cnumpy.core.multiarray
scalar
p1
(cnumpy
dtype
p2
(S'i4'
p3
I0
I1
tp4
Rp5
(I3
S'<'
p6
NNNI-1
I-1
I0
tp7
bS'\x00\x00\x00\x00'
p8
tp9
Rp10
tp11
a(F121.0
F24.833
I31
g1
(g5
S'\x01\x00\x00\x00'
p12
tp13
Rp14
tp15
a(F120.9474747
F24.8238676
I13
g1
(g5
S'\x01\x00\x00\x00'
p16
tp17
Rp18
tp19
a(F121.2
F24.717
I1
g1
(g5
S'\x05\x00\x00\x00'
p20
tp21
Rp22
tp23
a(F120.983
F24.767
I2
g1
(g5
S'\x02\x00\x00\x00'
p24
tp25
Rp26
tp27
a(F121.067
F24.783
I4
g1
(g5
S'\x06\x00\x00\x00'
p28
tp29
Rp30
tp31
a(F121.067
F24.833
I6
g1
(g5
S'\x06\x00\x00\x00'
p32
tp33
Rp34
tp35
a(F120.983
F24.9
I4
g1
(g5
S'\x03\x00\x00\x00'
p36
tp37
Rp38
tp39
a(F120.9933678
F24.7920604
I38
g1
(g5
S'\x02\x00\x00\x00'
p40
tp41
Rp42
tp43
a(F121.033
F24.9
I9
g1
(g5
S'\x03\x00\x00\x00'
p44
tp45
Rp46
tp47
a(F121.117
F24.717
I3
g1
(g5
S'\x00\x00\x00\x00'
p48
tp49
Rp50
tp51
a(F120.9333333333
F24.7666666667
I10
g1
(g5
S'\x04\x00\x00\x00'
p52
tp53
Rp54
tp55
a(F121.167
F24.8
I3
g1
(g5
S'\x05\x00\x00\x00'
p56
tp57
Rp58
tp59
a(F121.017
F24.683
I1
g1
(g5
S'\x00\x00\x00\x00'
p60
tp61
Rp62
tp63
a.