(lp0
(F121.5666666667
F23.9666666667
I8
cnumpy.core.multiarray
scalar
p1
(cnumpy
dtype
p2
(S'i4'
p3
I0
I1
tp4
Rp5
(I3
S'<'
p6
NNNI-1
I-1
I0
tp7
bS'\x00\x00\x00\x00'
p8
tp9
Rp10
tp11
a(F121.2333333333
F23.1666666667
I1
g1
(g5
S'\x04\x00\x00\x00'
p12
tp13
Rp14
tp15
a(F121.65
F24.0333333333
I6
g1
(g5
S'\x03\x00\x00\x00'
p16
tp17
Rp18
tp19
a(F121.45
F23.75
I2
g1
(g5
S'\x02\x00\x00\x00'
p20
tp21
Rp22
tp23
a(F121.6
F23.9833333333
I6
g1
(g5
S'\x00\x00\x00\x00'
p24
tp25
Rp26
tp27
a(F121.5
F23.8833333333
I1
g1
(g5
S'\x05\x00\x00\x00'
p28
tp29
Rp30
tp31
a(F121.6166666667
F24.1166666667
I1
g1
(g5
S'\x06\x00\x00\x00'
p32
tp33
Rp34
tp35
a(F121.3158222
F23.3326186
I6
g1
(g5
S'\x01\x00\x00\x00'
p36
tp37
Rp38
tp39
a.