(lp0
(F121.7309452
F24.8068769
I6
cnumpy.core.multiarray
scalar
p1
(cnumpy
dtype
p2
(S'i4'
p3
I0
I1
tp4
Rp5
(I3
S'<'
p6
NNNI-1
I-1
I0
tp7
bS'\x00\x00\x00\x00'
p8
tp9
Rp10
tp11
a(F121.7708337
F24.675606
I10
g1
(g5
S'\x04\x00\x00\x00'
p12
tp13
Rp14
tp15
a(F121.7993168
F24.769569
I3
g1
(g5
S'\x06\x00\x00\x00'
p16
tp17
Rp18
tp19
a(F121.8676464
F24.9440106
I2
g1
(g5
S'\x02\x00\x00\x00'
p20
tp21
Rp22
tp23
a(F121.75
F24.7666666667
I12
g1
(g5
S'\x06\x00\x00\x00'
p24
tp25
Rp26
tp27
a(F121.8448745
F24.568141
I7
g1
(g5
S'\x03\x00\x00\x00'
p28
tp29
Rp30
tp31
a(F121.8050125
F24.6887633
I6
g1
(g5
S'\x04\x00\x00\x00'
p32
tp33
Rp34
tp35
a(F121.662532
F24.7381293
I2
g1
(g5
S'\x05\x00\x00\x00'
p36
tp37
Rp38
tp39
a(F121.7537404
F24.631919
I9
g1
(g5
S'\x01\x00\x00\x00'
p40
tp41
Rp42
tp43
a.