(lp0
(F121.7252457
F25.152587
I6
cnumpy.core.multiarray
scalar
p1
(cnumpy
dtype
p2
(S'i4'
p3
I0
I1
tp4
Rp5
(I3
S'<'
p6
NNNI-1
I-1
I0
tp7
bS'\x06\x00\x00\x00'
p8
tp9
Rp10
tp11
a(F121.7451927
F25.1187161
I13
g1
(g5
S'\x01\x00\x00\x00'
p12
tp13
Rp14
tp15
a(F121.685341
F25.1143924
I6
g1
(g5
S'\x00\x00\x00\x00'
p16
tp17
Rp18
tp19
a(F121.7736823
F25.1489988
I10
g1
(g5
S'\x02\x00\x00\x00'
p20
tp21
Rp22
tp23
a(F121.7024448
F25.1474144
I22
g1
(g5
S'\x03\x00\x00\x00'
p24
tp25
Rp26
tp27
a(F121.7822278
F25.1284336
I11
g1
(g5
S'\x05\x00\x00\x00'
p28
tp29
Rp30
tp31
a(F121.748042
F25.0836163
I8
g1
(g5
S'\x04\x00\x00\x00'
p32
tp33
Rp34
tp35
a.