(lp0
(F120.733
F23.75
I1
cnumpy.core.multiarray
scalar
p1
(cnumpy
dtype
p2
(S'i4'
p3
I0
I1
tp4
Rp5
(I3
S'<'
p6
NNNI-1
I-1
I0
tp7
bS'\x02\x00\x00\x00'
p8
tp9
Rp10
tp11
a(F120.85
F24.05
I1
g1
(g5
S'\x06\x00\x00\x00'
p12
tp13
Rp14
tp15
a(F120.667
F23.767
I4
g1
(g5
S'\x02\x00\x00\x00'
p16
tp17
Rp18
tp19
a(F120.933
F23.9
I4
g1
(g5
S'\x05\x00\x00\x00'
p20
tp21
Rp22
tp23
a(F120.683
F23.833
I1
g1
(g5
S'\x04\x00\x00\x00'
p24
tp25
Rp26
tp27
a(F120.95
F23.967
I8
g1
(g5
S'\x00\x00\x00\x00'
p28
tp29
Rp30
tp31
a(F120.861
F23.805
I1
g1
(g5
S'\x05\x00\x00\x00'
p32
tp33
Rp34
tp35
a(F120.683
F23.983
I12
g1
(g5
S'\x01\x00\x00\x00'
p36
tp37
Rp38
tp39
a(F120.75
F23.833
I1
g1
(g5
S'\x04\x00\x00\x00'
p40
tp41
Rp42
tp43
a(F120.991
F23.694
I1
g1
(g5
S'\x03\x00\x00\x00'
p44
tp45
Rp46
tp47
a(F120.683
F23.9
I6
g1
(g5
S'\x04\x00\x00\x00'
p48
tp49
Rp50
tp51
a.