(lp0
(F119.65
F23.5833333333
I1
cnumpy.core.multiarray
scalar
p1
(cnumpy
dtype
p2
(S'i4'
p3
I0
I1
tp4
Rp5
(I3
S'<'
p6
NNNI-1
I-1
I0
tp7
bS'\x01\x00\x00\x00'
p8
tp9
Rp10
tp11
a(F119.55
F23.5666666667
I3
g1
(g5
S'\x00\x00\x00\x00'
p12
tp13
Rp14
tp15
a(F119.5833333333
F23.6666666667
I1
g1
(g5
S'\x02\x00\x00\x00'
p16
tp17
Rp18
tp19
a(F119.5136711
F23.6054584
I2
g1
(g5
S'\x03\x00\x00\x00'
p20
tp21
Rp22
tp23
a.