(lp0
(F120.533
F22.55
I6
cnumpy.core.multiarray
scalar
p1
(cnumpy
dtype
p2
(S'i4'
p3
I0
I1
tp4
Rp5
(I3
S'<'
p6
NNNI-1
I-1
I0
tp7
bS'\x03\x00\x00\x00'
p8
tp9
Rp10
tp11
a(F120.45
F22.533
I1
g1
(g5
S'\x00\x00\x00\x00'
p12
tp13
Rp14
tp15
a(F120.533
F22.417
I1
g1
(g5
S'\x05\x00\x00\x00'
p16
tp17
Rp18
tp19
a(F120.367
F22.583
I1
g1
(g5
S'\x00\x00\x00\x00'
p20
tp21
Rp22
tp23
a(F120.567
F22.617
I6
g1
(g5
S'\x06\x00\x00\x00'
p24
tp25
Rp26
tp27
a(F120.483
F22.667
I16
g1
(g5
S'\x01\x00\x00\x00'
p28
tp29
Rp30
tp31
a(F120.433
F22.467
I4
g1
(g5
S'\x00\x00\x00\x00'
p32
tp33
Rp34
tp35
a(F120.483
F22.583
I4
g1
(g5
S'\x03\x00\x00\x00'
p36
tp37
Rp38
tp39
a(F120.586
F22.488
I1
g1
(g5
S'\x03\x00\x00\x00'
p40
tp41
Rp42
tp43
a(F120.517
F22.65
I1
g1
(g5
S'\x01\x00\x00\x00'
p44
tp45
Rp46
tp47
a(F120.5833333333
F22.8333333333
I1
g1
(g5
S'\x04\x00\x00\x00'
p48
tp49
Rp50
tp51
a(F120.483
F22.733
I1
g1
(g5
S'\x01\x00\x00\x00'
p52
tp53
Rp54
tp55
a(F120.583
F22.367
I1
g1
(g5
S'\x05\x00\x00\x00'
p56
tp57
Rp58
tp59
a(F120.517
F22.683
I3
g1
(g5
S'\x01\x00\x00\x00'
p60
tp61
Rp62
tp63
a(F120.567
F22.75
I4
g1
(g5
S'\x04\x00\x00\x00'
p64
tp65
Rp66
tp67
a(F120.733
F22.0
I1
g1
(g5
S'\x02\x00\x00\x00'
p68
tp69
Rp70
tp71
a(F120.55
F22.567
I2
g1
(g5
S'\x03\x00\x00\x00'
p72
tp73
Rp74
tp75
a.