(lp0
(F121.1824925
F23.0170591
I1
cnumpy.core.multiarray
scalar
p1
(cnumpy
dtype
p2
(S'i4'
p3
I0
I1
tp4
Rp5
(I3
S'<'
p6
NNNI-1
I-1
I0
tp7
bS'\x02\x00\x00\x00'
p8
tp9
Rp10
tp11
a(F121.3
F22.9833333333
I1
g1
(g5
S'\x01\x00\x00\x00'
p12
tp13
Rp14
tp15
a(F121.0833333333
F22.9
I1
g1
(g5
S'\x03\x00\x00\x00'
p16
tp17
Rp18
tp19
a(F121.15
F22.75
I4
g1
(g5
S'\x04\x00\x00\x00'
p20
tp21
Rp22
tp23
a(F121.1166666667
F22.7833333333
I2
g1
(g5
S'\x00\x00\x00\x00'
p24
tp25
Rp26
tp27
a.