(lp0
(F121.1137544
F25.0359365
I11
cnumpy.core.multiarray
scalar
p1
(cnumpy
dtype
p2
(S'i4'
p3
I0
I1
tp4
Rp5
(I3
S'<'
p6
NNNI-1
I-1
I0
tp7
bS'\x04\x00\x00\x00'
p8
tp9
Rp10
tp11
a(F121.3655989
F25.0199092
I42
g1
(g5
S'\x01\x00\x00\x00'
p12
tp13
Rp14
tp15
a(F121.193945
F25.0492632
I11
g1
(g5
S'\x00\x00\x00\x00'
p16
tp17
Rp18
tp19
a(F121.2053963
F24.8444927
I16
g1
(g5
S'\x05\x00\x00\x00'
p20
tp21
Rp22
tp23
a(F121.1366715
F24.9242108
I18
g1
(g5
S'\x03\x00\x00\x00'
p24
tp25
Rp26
tp27
a(F121.2969674
F25.0784359
I30
g1
(g5
S'\x06\x00\x00\x00'
p28
tp29
Rp30
tp31
a(F121.2912463
F24.9469059
I31
g1
(g5
S'\x02\x00\x00\x00'
p32
tp33
Rp34
tp35
a(F121.067907
F24.9826597
I7
g1
(g5
S'\x04\x00\x00\x00'
p36
tp37
Rp38
tp39
a(F121.2969674
F24.9934099
I67
g1
(g5
S'\x02\x00\x00\x00'
p40
tp41
Rp42
tp43
a(F121.2053963
F24.9296022
I33
g1
(g5
S'\x03\x00\x00\x00'
p44
tp45
Rp46
tp47
a(F121.3770336
F24.709089
I1
g1
(g5
S'\x05\x00\x00\x00'
p48
tp49
Rp50
tp51
a(F121.2969674
F24.8658422
I12
g1
(g5
S'\x05\x00\x00\x00'
p52
tp53
Rp54
tp55
a(F121.2053963
F24.9721514
I75
g1
(g5
S'\x00\x00\x00\x00'
p56
tp57
Rp58
tp59
a.