(lp0
(F120.3833333333
F23.6666666667
I1
cnumpy.core.multiarray
scalar
p1
(cnumpy
dtype
p2
(S'i4'
p3
I0
I1
tp4
Rp5
(I3
S'<'
p6
NNNI-1
I-1
I0
tp7
bS'\x03\x00\x00\x00'
p8
tp9
Rp10
tp11
a(F120.45
F23.8
I2
g1
(g5
S'\x02\x00\x00\x00'
p12
tp13
Rp14
tp15
a(F120.1666666667
F23.5833333333
I1
g1
(g5
S'\x01\x00\x00\x00'
p16
tp17
Rp18
tp19
a(F120.4333333333
F23.7166666667
I6
g1
(g5
S'\x03\x00\x00\x00'
p20
tp21
Rp22
tp23
a(F120.35
F23.7666666667
I1
g1
(g5
S'\x02\x00\x00\x00'
p24
tp25
Rp26
tp27
a(F120.2833333333
F23.65
I2
g1
(g5
S'\x05\x00\x00\x00'
p28
tp29
Rp30
tp31
a(F120.55
F23.65
I5
g1
(g5
S'\x00\x00\x00\x00'
p32
tp33
Rp34
tp35
a(F120.25
F23.75
I4
g1
(g5
S'\x04\x00\x00\x00'
p36
tp37
Rp38
tp39
a(F120.3
F23.5666666667
I4
g1
(g5
S'\x06\x00\x00\x00'
p40
tp41
Rp42
tp43
a(F120.4666666667
F23.6833333333
I3
g1
(g5
S'\x03\x00\x00\x00'
p44
tp45
Rp46
tp47
a(F120.2333333333
F23.5666666667
I4
g1
(g5
S'\x01\x00\x00\x00'
p48
tp49
Rp50
tp51
a(F120.25
F23.6666666667
I2
g1
(g5
S'\x05\x00\x00\x00'
p52
tp53
Rp54
tp55
a(F120.5333333333
F23.7
I9
g1
(g5
S'\x00\x00\x00\x00'
p56
tp57
Rp58
tp59
a.