(lp1
(lp2
(lp3
V\u4e00\u500b
p4
aV\u4eba\u8981
p5
aV\u53bb
aV\u55ae\u8eca
p6
aV\u74b0\u5cf6
p7
aV\u672c\u4f86
p8
aV\u4e00\u500b
p9
aV\u4ed6\u5bb6
p10
aV\u9b27
aV\u5bb6\u5ead
p11
aV\u9769\u547d
p12
aV\u5bb6\u65cf
p13
aV\u8208\u4ea1
p14
aV\u53ea\u597d
p15
aV\u542b\u6dda
p16
aVsay
p17
aVgoodbye
p18
aV......................
p19
aV\u4ee5\u4e0a
p20
aV\u96e2\u984c
p21
aV\u62db\u52df
p22
aV\u55ae\u8eca
p23
aV\u74b0\u5cf6
p24
aV\u71b1\u8840
p25
aV\u5c11\u5e74
p26
aV\u9752\u5e74
p27
aV\u4e2d\u5e74
p28
aV\u4eba
aV\u9810\u8a08
p29
aV\u51fa\u767c
p30
aV\u65e5\u671f
p31
aV\u6708
aV\u65e5
aV\u665a\u73ed
p32
aV\u98db\u6a5f
p33
aV\u56de\u7a0b
p34
aV\u6708
aV\u65e5
aV\u665a\u73ed
p35
aV\u98db\u6a5f
p36
aV\u4eba\u6578
p37
aV\u60f3
aV\u518d
aV\u627e
aV\u5169\u4eba
p38
aV\u91d1\u9322
p39
aV\u6263\u9664
p40
aV\u98db\u6a5f\u7968
p41
aV\u74b0\u5cf6
p42
aV\u8cbb\u7528
p43
aV\u9810\u4f30
p44
aV\u5713
aV\u5305\u542b
p45
aV\u79df
aV\u8173\u8e0f\u8eca
p46
aV\u81ea\u5e36
p47
aV\u8173\u8e0f\u8eca
p48
aV\u53cd\u5c0d
p49
aV\u5e73\u5747
p50
aV\u4e00\u5929
p51
aV\u9a0e
aV\u5230
aV\u516c\u91cc
p52
aV\u8981\u6703
p53
aV\u4fee
aV\u8173\u8e0f\u8eca
p54
aV.....................
p55
aV\u4ee5\u4e0a
p56
aV\u62db\u52df
p57
aV\u904e\u7a0b
p58
aV\u4ee5\u4e0b
p59
aV\u4e0a\u6b21
p60
aV\u74b0\u5cf6
p61
aV\u8def\u7a0b
p62
aV\u7c21\u4ecb
p63
aV\u7df4\u7fd2\u66f2
p64
aV\u611f\u52d5
p65
aV\u50bb
aV\u9806\u6642\u91dd
p66
aV\u7e3d
aV\u91cc\u7a0b
p67
aV\u516c\u91cc
p68
aV\u516b\u5929
p69
aV\u904e\u7a0b
p70
aV\u4e5d\u5929
p71
aV\u4e00\u5929
p72
aV\u767c\u71d2
p73
aV\u53bb
aV\u9000\u71d2
p74
aV\u91dd
aV\u4f11\u606f
p75
aV\u7b2c\u4e00\u5929
p76
aV\u53f0\u5317
p77
aV\u4e2d
aV\u51fa\u767c
p78
aV\u7e5e
aV\u96de\u7c60
p79
aV\u8d70
aV\u5317\u6ff1
p80
aV\u5230
aV\u5b9c\u862d
p81
aV\u5b9c\u9752
p82
aV\u4f4f\u5bbf
p83
aV\u7d04
aV120KM
p84
aV\u7b2c\u4e8c\u5929
p85
aV\u5b9c\u862d
p86
aV\u6bba\u904e
p87
aV\u8607\u82b1
p88
aV\u5230
aV\u65b0\u57ce
p89
aV\u5230
aV\u82b1\u84ee
p90
aV\u6e2f
aV\u5929\u5bae
p91
aV\u4f4f
aV130KM
p92
aV\u7b2c\u4e09\u5929
p93
aV\u82b1\u84ee
p94
aV\u51fa\u767c
p95
aV\u8d70
aV\u6d77\u7dda
p96
aV\u53f0
aV\u4f4f
aV\u6210\u529f
p97
aV\u93ae
aV\u7d71\u8302
p98
aV\u98ef\u5e97
p99
aV\u666e\u666e
p100
aV\u5fd8
aV140KM
p101
aV\u7b2c\u56db\u5929
p102
aV\u6210\u529f
p103
aV\u93ae
aV\u51fa\u767c
p104
aV\u5230
aV\u53f0\u6771
p105
aV\u4f4f
aV\u53f0\u6771
p106
aV\u5927\u6b66
p107
aV\u5fd8
aV\u7b2c\u4e94\u5929
p108
aV\u5f9e\u53f0
p109
aV\u6771\u5927
p110
aV\u6b66
aV\u51fa\u767c
p111
aV\u8d70
aV\u5357\u8ff4
p112
aV\u58fd\u5361
p113
aV\u8d70
aV\u53bb
aV\u6046\u6625
p114
aV\u534a\u5cf6
p115
aV\u4f4f
aV\u58be\u4e01
p116
aV\u5927\u8857
p117
aV\u7db2\u4e86
p118
aV\u7b2c\u516d\u5929
p119
aV\u58be\u4e01
p120
aV\u51fa\u767c
p121
aV\u5c4f\u6771
p122
aV\u9ad8\u96c4
p123
aV\u8d70\u53f0
p124
aV\u5230
aV\u53f0\u5357
p125
aV\u6b78\u4ec1
p126
aV\u7d04
aV\u516c\u91cc
p127
aV\u7b2c\u4e03\u5929
p128
aV\u53bb
aV\u9000\u71d2
p129
aV\u91dd
aV\u7b2c\u4e94\u5929
p130
aV\u5df2\u7d93
p131
aV\u767c\u71d2
p132
aV\u4e0d\u884c
p133
aV\u4f11\u606f
p134
aV\u4e00\u5929
p135
aV\u7b2c\u516b\u5929
p136
aV\u6b78\u4ec1
p137
aV\u51fa\u767c
p138
aV\u5609\u7fa9
p139
aV\u96f2\u6797
p140
aV\u5f70\u5316
p141
aV\u5230
aV\u53f0\u4e2d
p142
aV\u6e05\u6c34
p143
aV\u7d04
aV\u516c\u91cc
p144
aV\u7b2c\u4e5d\u5929
p145
aV\u6e05\u6c34
p146
aV\u51fa\u767c
p147
aV\u82d7\u6817
p148
aV\u8d70
aV\u6d77\u7dda
p149
aV\u65b0\u7af9
p150
aV\u6843\u5712
p151
aV\u5230
aV\u53f0\u5317
p152
aV\u7d04
aV\u516c\u91cc
p153
aV\u5f88\u7d2f
p154
aV\u9084\u883b
p155
aV\u597d\u73a9
p156
aV\u7de9\u6162
p157
aV\u6771\u897f
p158
aV\u900f\u5fb9
p159
aV\u4e4b\u524d
p160
aV\u60f3
aV\u9006\u98a8
p161
aV\u9435\u8173
p162
aV\u74b0\u5cf6
p163
aV\u53f0\u7063
p164
aV\u5931\u6557
p165
aV\u771f\u7684
p166
aV\u9435\u8173
p167
aV\u9b6f\u8089
p168
aV\u8173
aV\u5957
aV\u7df4\u7fd2\u66f2
p169
aV\u4e00\u53e5
p170
aV\u8a71
aV\u4e8b
aV\u73fe\u5728
p171
aV\u505a
aV\u4ee5\u5f8c
p172
aV\u4e00\u8f29\u5b50
p173
aV\u53bb
aV\u505a
aVjust
p174
aVdo
p175
aVit
p176
aV\u56de\u4fe1
p177
aV\u56de\u4fe1
p178
aV\u622a\u6b62
p179
aV\u65e5\u671f
p180
aV\u5230
aV\u6708\u5e95
p181
aV......................
p182
aa(lp183
V\u4f86\u5230
p184
aV\u91d1\u9580
p185
aV\u8003\u8a66
p186
aV\u8d81\u8457\u8003
p187
aV\u5b8c
aV\u7a7a\u6a94
p188
aV\u5229\u7528
p189
aV\u5169\u4e09\u5929
p190
aV\u9592\u6687
p191
aV\u9918\u6642
p192
aV\u901b
aV\u7d14\u50d5
p193
aV\u4e4b\u5cf6
p194
aV\u4e5f\u8a31
p195
aV\u5df2\u7d93
p196
aV\u7fd2\u6163
p197
aV\u53f0\u7063
p198
aV\u56db\u901a
p199
aV\u767c\u9054
p200
aV\u4fbf\u5229
p201
aV\u4ea4\u901a
p202
aV\u5e02
aV\u53e2\u6797
p203
aV\u7dca\u6e4a
p204
aV\u6b65\u8abf
p205
aV\u4f86\u5230
p206
aV\u91d1\u9580
p207
aV\u770b\u8457
p208
aV\u719f\u6089
p209
aV\u7737\u6751
p210
aV\u8eab\u5f71
p211
aV\u61f7\u820a
p212
aV\u8857\u5e02
p213
aV\u5c0f\u93ae
p214
aV\u5f77\u5f7f
p215
aV\u4e00\u7a2e
p216
aV\u8fd1\u9109
p217
aV\u60c5\u602f
p218
aV\u4e4b\u611f
p219
aV\u5929\u77e5\u9053
p220
aV\u9019\u662f
p221
aV\u7b2c\u4e00\u6b21
p222
aV\u8e0f\u4e0a
p223
aV\u91d1\u9580
p224
aV\u6b65\u4f10
p225
aV\u8a18\u61b6
p226
aV\u6df1\u8655
p227
aV\u597d\u4f3c
p228
aV\u65e9\u5df2
p229
aV\u91d1\u9580
p230
aV\u7d50\u4e0b
p231
aV\u626f
aV\u4e0d\u958b
p232
aV\u60c5\u7de3
p233
aV\u5c0f\u6642
p234
aV\u5f8c
aV\u719f\u6089
p235
aV\u611f\u89ba
p236
aV\u96e2\u958b
p237
aV\u4e00\u4e8c\u5341\u5e74
p238
aV\u8a18\u61b6
p239
aV\u8e0f\u4e0a
p240
aV\u91d1\u9580
p241
aV\u4e4b\u5f8c
p242
aV\u8a18\u61b6
p243
aV\u6df1\u8655
p244
aV\u601d\u9109
p245
aV\u60c5\u6101
p246
aV\u5982\u540c
p247
aV\u9a5a\u6fe4
p248
aV\u88c2\u6d6a
p249
aV\u6392\u5c71\u5012\u6d77
p250
aV\u8972
aV\u6372
aV\u800c\u4f86
p251
aV\u91d1\u9580
p252
aV\u5e7e\u5929
p253
aV\u7d2e\u7d2e\u5be6\u5be6
p254
aV\u9818\u53d7
p255
aV\u7576\u5730\u4eba
p256
aV\u71b1\u60c5
p257
aV\u6b78\u4eba
p258
aV\u904e\u5ba2
p259
aV\u91d1\u9580
p260
aV\u4eba
aV\u537b
aV\u71b1\u60c5
p261
aV\u53cb\u5584
p262
aV\u5c0d\u5f85
p263
aV\u5916\u4f86
p264
aV\u5ba2\u8d70
p265
aV\u8def\u540d
p266
aV\u91d1\u9580
p267
aV\u5c0f\u93ae
p268
aV\u964c\u751f
p269
aV\u9109\u6c11
p270
aV\u839e\u7136
p271
aV\u4e00\u7b11
p272
aV\u8868\u793a
p273
aV\u53cb\u597d
p274
aV\u5df2\u7d93
p275
aV\u7fd2\u6163
p276
aV\u53f0\u7063
p277
aV\u83ab\u540d\u5176\u5999
p278
aV\u51b7\u6f20
p279
aV\u8207\u9762
p280
aV\u7121\u8868\u60c5
p281
aV\u76f8\u61c9\u4e0d\u7406
p282
aV\u7576\u5730
p283
aV\u5c45\u6c11
p284
aV\u71b1\u60c5
p285
aV\u4e00\u6642
p286
aV\u4e0d\u77e5
p287
aV\u61c9\u5c0d
p288
aV\u53ea\u597d
p289
aV\u8d95\u7dca
p290
aV\u9ede
aV\u500b\u982d
p291
aV\u773c\u795e
p292
aV\u5bb3\u7f9e
p293
aV\u5730\u76f4
p294
aV\u77aa
aV\u5730\u4e0a
p295
aV\u5feb\u901f
p296
aV\u8d70\u904e
p297
aV\u6975\u60f3
p298
aV\u63a9\u98fe
p299
aV\u5c37\u5c2c
p300
aV\u8868\u60c5
p301
aV\u4e0d\u77e5
p302
aV\u662f\u5426
p303
aV\u767c\u73fe
p304
aV\u7a98\u614b
p305
aV\u91d1\u9580
p306
aV\u4eba
aV\u71b1\u60c5
p307
aV\u65bc\u6b64
p308
aV\u508d\u665a
p309
aV\u5915\u967d
p310
aV\u9918\u8f1d
p311
aV\u665a\u971e
p312
aV\u544a\u5225
p313
aV\u5cf6\u4e0a
p314
aV\u5c45\u6c11
p315
aV\u6642
aV\u540c\u884c
p316
aV\u53cb\u4eba
p317
aV\u5750\u5728
p318
aV\u4e00\u9593
p319
aV\u8336
aV\u5e97\u9580\u53e3
p320
aV\u555c\u8457
p321
aV\u51b7\u98f2
p322
aV\u804a\u8457
p323
aV\u8003\u8a66
p324
aV\u5fc3\u5f97
p325
aV\u9019\u4e5f
p326
aV\u9019\u6b21
p327
aV\u91d1\u9580
p328
aV\u4e4b\u65c5
p329
aV\u4e3b\u8981
p330
aV\u76ee\u7684
p331
aV\u9694\u58c1
p332
aV\u684c\u5750
p333
aV\u4e09\u4f4d
p334
aV\u982d\u9aee
p335
aV\u84bc\u767d
p336
aV\u8001\u4f2f
p337
aV\u807d\u5230
p338
aV\u804a\u5929
p339
aV\u5167\u5bb9
p340
aV\u4e3b\u52d5
p341
aV\u958b\u53e3
p342
aV\u554f
aV\u662f\u4e0d\u662f
p343
aV\u96fb\u8996
p344
aV\u66fe
aV\u5927\u5e45
p345
aV\u5831\u5c0e
p346
aV\u8d8a\u6d77
p347
aV\u8d74
aV\u91d1
aV\u8003\u751f
p348
aV\u5bb3\u7f9e
p349
aV\u9ede\u9ede\u982d
p350
aV\u7a81\u5982\u5176\u4f86
p351
aV\u53cb\u597d
p352
aV\u62db\u547c
p353
aV\u53cb\u4eba
p354
aV\u7adf\u662f
p355
aV\u624b\u8db3\u7121\u63aa
p356
aV\u8001\u4f2f
p357
aV\u71b1\u60c5
p358
aV\u5206\u4eab
p359
aV\u684c\u4e0a
p360
aV\u9b06\u9905
p361
aV\u8acb
aV\u4e00\u540c
p362
aV\u804a\u5929
p363
aV\u71b1\u60c5
p364
aV\u8209\u52d5
p365
aV\u4e00\u6642\u4e4b\u9593
p366
aV\u7121\u6cd5
p367
aV\u53cd\u61c9
p368
aV\u8001\u4f2f
p369
aV\u7b11
aV\u8aaa
aV\u4e09\u4eba
p370
aV\u5e74\u7d00
p371
aV\u52a0
aV\u8d85\u904e
p372
aV\u5169\u767e\u6b72
p373
aV\u7406\u7531
p374
aV\u6bd2\u5bb3
p375
aV\u9019\u7fa4
p376
aV\u5e74\u8f15
p377
aV\u5c0f\u59d1\u5a18
p378
aV\u653e\u5fc3
p379
aV\u8001\u4f2f
p380
aV\u81ea\u5632
p381
aV\u7121\u5730\u81ea\u5bb9
p382
aV\u4e5f\u8a31
p383
aV\u5df2\u7d93
p384
aV\u7fd2\u6163
p385
aV\u53f0\u7063
p386
aV\u51b7\u6de1
p387
aV\u7576\u5730\u4eba
p388
aV\u71b1\u60c5
p389
aV\u62db\u547c
p390
aV\u9072\u7591
p391
aV\u5225\u6709\u7528\u5fc3
p392
aV\u60f3\u6cd5
p393
aV\u73fe\u5728
p394
aV\u60f3
aV\u771f\u662f
p395
aV\u5e7c\u7a1a
p396
aV\u81f3\u6975
p397
aV\u7cdf\u8e0f
p398
aV\u71b1\u60c5
p399
aV\u554a
aV\u8aaa\u7a7f
p400
aV\u4e00\u7fa4
p401
aV\u6d41\u6d6a
p402
aV\u6559\u5e2b
p403
aV\u5f97\u5230
p404
aV\u653f\u5e9c
p405
aV\u5c0a\u91cd
p406
aV\u8003\u5b63
p407
aV\u4f86\u81e8
p408
aV\u5982\u540c
p409
aV\u56db\u8655
p410
aV\u9077\u5f99
p411
aV\u5019\u9ce5
p412
aV\u56db\u8655
p413
aV\u8993\u5de2
p414
aV\u60f3
aV\u627e\u500b
p415
aV\u6eab\u6696
p416
aV\u4f9d\u9760
p417
aV\u8001\u4f2f
p418
aV\u6d41\u6d6a
p419
aV\u770b\u4e0d\u8d77
p420
aV\u8001\u5e2b
p421
aV\u5fc3\u88e1
p422
aV\u5c0a\u656c
p423
aV\u8a00\u8ac7\u4e4b\u9593
p424
aV\u6d41\u9732\u51fa\u4f86
p425
aV\u7d72\u6beb
p426
aV\u906e\u63a9
p427
aV\u9f13\u52f5
p428
aV\u7e7c\u7e8c
p429
aV\u5805\u6301
p430
aV\u8003\u4e0d\u4e0a
p431
aV\u6642\u52e2
p432
aV\u6240\u8da8
p433
aV\u8003\u751f
p434
aV\u4e4b\u932f
p435
aV\u9019\u9663\u5b50
p436
aV\u56db\u8655\u5954\u6ce2
p437
aV\u8003\u8a66
p438
aV\u5be6\u8aaa
p439
aV\u5fc3
aV\u65e9\u5c31
p440
aV\u7d2f
aV\u807d\u5230
p441
aV\u8001\u4f2f
p442
aV\u9f13\u52f5
p443
aV\u5fc3\u4e2d
p444
aV\u6fc0\u52d5\u4e0d\u5df2
p445
aV\u53ea\u4e0d\u904e
p446
aV\u672a\u66fe
p447
aV\u8b00\u9762
p448
aV\u964c\u751f
p449
aV\u904e\u5ba2
p450
aV\u5fc3\u5e95
p451
aV\u71b1\u60c5
p452
aV\u63a5\u53d7
p453
aV\u771f\u7684
p454
aV\u4eba
aV\u611f\u52d5
p455
aV\u6b64\u6642
p456
aV\u5915\u967d
p457
aV\u5df2\u7d93
p458
aV\u5b8c\u5168
p459
aV\u843d\u4e0b
p460
aV\u53d6\u800c\u4ee3\u4e4b
p461
aV\u9ed1\u832b\u832b
p462
aV\u591c\u5e55\u4f4e\u5782
p463
aV\u650f
aV\u7f69
aV\u91d1\u9580
p464
aV\u5c0f\u5cf6
p465
aV\u5fc3\u5e95
p466
aV\u6b64\u6642
p467
aV\u537b
aV\u5347\u8d77
p468
aV\u4e00\u500b
p469
aV\u548c\u7166
p470
aV\u592a\u967d
p471
aV\u6696\u6696\u5730
p472
aV\u7167\u6620
p473
aV\u5167\u5fc3\u6df1\u8655
p474
aV\u65e5
aV\u4e00\u62b9
p475
aV\u81ea\u5351
p476
aV\u5403\u5403\u559d\u559d
p477
aV\u4e2d
aV\u8001\u4f2f
p478
aV\u804a\u8457
p479
aV\u7576\u5e74
p480
aV\u9127\u9e97\u541b
p481
aV\u9020\u8a2a
p482
aV\u91d1\u9580
p483
aV\u76db\u6cc1
p484
aV\u7576\u5e74
p485
aV\u4f4f
aV\u65c5\u9928
p486
aV\u73fe\u5728
p487
aV\u4f4f
aV\u5730\u65b9
p488
aV\u6c92\u60f3\u7576
p489
aV\u5e7e\u5341\u5e74
p490
aV\u6642\u7a7a
p491
aV\u4ea4\u932f
p492
aV\u53c3\u8207
p493
aV\u807d\u8457
p494
aV\u8001\u4f2f
p495
aV\u8b1b\u5f97
p496
aV\u6fc0\u52d5
p497
aV\u77e5\u9053
p498
aV\u5167\u5fc3
p499
aV\u611f\u53d7
p500
aV\u6709\u9053\u662f
p501
aV\u7e41\u83ef
p502
aV\u843d\u76e1
p503
aV\u7d05\u6a13
p504
aV\u8272
aV\u892a
aV\u65af\u4eba
p505
aV\u6b4c\u8072
p506
aV\u9060\u7336\u8a18
p507
aV\u7576\u5e74
p508
aV\u4e8b
aV\u91d1\u9580
p509
aV\u5e7e\u5929
p510
aV\u6bcf\u5929
p511
aV\u56db\u8655
p512
aV\u901b
aV\u540d\u52dd\u53e4\u8e5f
p513
aV\u8d70
aV\u5c0f\u6642
p514
aV\u5f8c
aV\u5167\u5fc3\u6df1\u8655
p515
aV\u6df1\u523b
p516
aV\u8a18\u61b6
p517
aV\u91d1\u9580
p518
aV\u964c\u751f
p519
aV\u5e7e\u5929
p520
aV\u5149\u5f71
p521
aV\u91d1\u9580
p522
aV\u611f\u89ba
p523
aV\u597d\u4f3c
p524
aV\u65e9\u5df2
p525
aV\u8a8d\u8b58
p526
aV\u5341\u591a\u5e74
p527
aV\u8a18\u61b6
p528
aV\u6df1\u6df1\u5730
p529
aV\u624e\u6839
p530
aV\u5fc3\u5e95
p531
aV\u60f3
aV\u4e00\u80a1
p532
aV\u601d\u9109
p533
aV\u60c5\u6101
p534
aV\u5fc3\u5e95
p535
aV\u6cb9
aV\u5347
aV\u5341\u5e7e\u5e74
p536
aV\u65e9\u5df2
p537
aV\u5fa9
aV\u8a18\u61b6
p538
aV\u7576\u5e74
p539
aV\u6240\u6709
p540
aV\u7a2e\u7a2e
p541
aV\u537b
aV\u91d1\u9580
p542
aV\u5cf6\u4e0a
p543
aV\u4e00\u4e00
p544
aV\u5c0b\u8993
p545
aV\u5230\u4f86
p546
aV\u5982\u540c
p547
aV\u6f23\u6f2a
p548
aV\u822c
aV\u4e00\u5708\u5708
p549
aV\u5fc3\u5e95
p550
aV\u7e08\u7e5e
p551
aV\u597d\u4f3c
p552
aV\u5f4c\u88dc
p553
aV\u7ae5\u5e74
p554
aV\u672a
aV\u5b8c\u6210
p555
aV\u7f3a\u61be
p556
aV\u91d1\u9580
p557
aV\u623f\u5b50
p558
aV\u6b77\u7d93\u6ec4\u6851
p559
aV\u78da\u74e6
p560
aV\u4fee\u88dc
p561
aV\u6b77\u6b77\u5728\u76ee
p562
aV\u6fc3\u539a
p563
aV\u9109\u97f3
p564
aV\u6b64\u8d77\u5f7c\u843d
p565
aV\u6cb9\u7159
p566
aV\u6df7\u8457
p567
aV\u83dc
aV\u9999
aV\u9ede\u7db4
p568
aV\u665a\u971e
p569
aV\u5929\u7a7a
p570
aV\u7737\u6751
p571
aV\u4e2d
aV\u5718\u7d50\u596e\u9b25
p572
aV\u4fdd\u5bb6\u885b\u570b
p573
aV\u7cbe\u795e
p574
aV\u53e3\u865f
p575
aV\u6b72\u6708
p576
aV\u523b\u75d5
p577
aV\u6df1\u5370
p578
aV\u5fc3\u4e2d
p579
aV\u9019\u80a1
p580
aV\u601d\u9109
p581
aV\u60c5\u6101
p582
aV\u5230
aV\u96e2\u958b
p583
aV\u91d1\u9580
p584
aV\u56de\u5230
p585
aV\u53f0\u7063
p586
aV\u5e7e\u5929
p587
aV\u9b42\u727d\u5922\u7e08
p588
aV\u7121\u6cd5
p589
aV\u6563
aV\u53bb
aV\u96e2\u958b
p590
aV\u91d1\u9580
p591
aV\u91d1\u9580
p592
aV\u7279\u6b8a
p593
aV\u60c5\u61f7
p594
aV\u5272\u6368
p595
aV\u4e0d\u6389
p596
aV\u60c6\u60b5
p597
aV\u6df1\u60c5
p598
aV\u98db\u6a5f
p599
aV\u9060\u96e2
p600
aV\u91d1\u9580\u5cf6
p601
aV\u96e2\u60c5
p602
aV\u4f9d\u4f9d
p603
aV\u9ede\u9ede\u6ef4\u6ef4
p604
aV\u52d5\u4eba
p605
aV\u6545\u4e8b
p606
aV\u5fc3\u60c5
p607
aV\u6c89\u6fb1
p608
aV\u91d1\u9580
p609
aV\u5e0c\u671b
p610
aV\u4e00\u5929
p611
aV\u6211\u6703
p612
aV\u6a5f\u6703
p613
aV\u518d
aV\u56de\u5230
p614
aV\u5c0f\u5cf6
p615
aV\u56de\u5831
p616
aV\u5cf6\u4e0a
p617
aV\u5c45\u6c11
p618
aV\u5e7e\u5929
p619
aV\u7d66\u6211
p620
aV\u71b1\u60c5
p621
aV\u518d\u7576
p622
aV\u904e\u5ba2
p623
aV\u6b78\u4eba
p624
aa(lp625
V\u4e2d\u592e\u793e
p626
aV\u4e2d\u592e\u793e
p627
aV\u8a18\u8005
p628
aV\u502a\u570b\u708e
p629
aV\u91d1\u9580
p630
aV\u4e8c\u5341
p631
aV\u65e5\u96fb
p632
aV\u4e2d\u570b
p633
aV\u5927\u9678
p634
aV\u79bd\u6d41\u611f
p635
aV\u65b0\u805e
p636
aV\u7db2\u7ad9
p637
aV\u75ab\u60c5
p638
aV\u4e0d\u660e
p639
aV\u53f0\u7063
p640
aV\u660e\u6167
p641
aV\u6559\u80b2\u5b78
p642
aV\u4eca\u5929
p643
aV\u91d1\u9580
p644
aV\u5c0f\u4e09\u901a
p645
aV\u6c34\u982d
p646
aV\u5546\u6e2f
p647
aV\u65c5\u5ba2
p648
aV\u670d\u52d9\u4e2d\u5fc3
p649
aV\u4f48\u7f6e
p650
aV\u5e0c\u671b
p651
aV\u6a39
aV\u63d0\u4f9b
p652
aV\u5f80\u8fd4
p653
aV\u5169\u5cb8
p654
aV\u65c5\u5ba2
p655
aV\u5beb\u4e0b
p656
aV\u5584\u5ff5
p657
aV\u66f8\u7c64
p658
aV\u8aaa\u597d
p659
aV\u8a71
aV\u63d0\u9192
p660
aV\u6ce8\u610f
p661
aV\u65c5\u9014
p662
aV\u5e73\u5b89
p663
aV\u5e0c\u671b
p664
aV\u6a39
aV\u4e0a\u5348
p665
aV\u8a2d\u5728
p666
aV\u65b0\u5efa
p667
aV\u6c34\u982d
p668
aV\u5546\u6e2f
p669
aV\u5ba2\u670d
p670
aV\u4e2d\u5fc3
p671
aV\u5927\u5ef3
p672
aV\u53f0\u7063
p673
aV\u660e\u6167
p674
aV\u6559\u80b2\u5b78
p675
aV\u7406\u4e8b\u9577
p676
aV\u9673
aV\u5f65\u73b2
p677
aV\u4e3b\u6301
p678
aV\u91d1\u9580\u7e23
p679
aV\u885b\u751f\u5c40\u9577
p680
aV\u9673
aV\u5929\u9806
p681
aV\u793e\u6703\u5c40
p682
aV\u65b0\u805e
p683
aV\u7db2\u7ad9
p684
aV\u8ab2\u9577
p685
aV\u8a31
aV\u7f8e\u9cf3
p686
aV\u61c9\u9080\u53c3\u52a0
p687
aV\u9673
aV\u5f65\u73b2
p688
aV\u8868\u793a
p689
aV\u4e2d\u570b
p690
aV\u79bd\u6d41\u611f
p691
aV\u79bd
aV\u6cc1
aV\u4e0d\u660e
p692
aV\u660e\u6167
p693
aV\u6559\u80b2\u5b78
p694
aV\u5354\u540c
p695
aV\u76f8\u95dc
p696
aV\u5718\u9ad4
p697
aV\u5c0f\u4e09\u901a
p698
aV\u9032\u51fa
p699
aV\u9580\u6236
p700
aV\u6c34\u982d
p701
aV\u5546\u6e2f
p702
aV\u4f48\u7f6e
p703
aV\u5e0c\u671b
p704
aV\u6a39
aV\u5e0c\u671b
p705
aV\u65c5\u5ba2
p706
aV\u5c07\u5584\u5ff5
p707
aV\u5beb
aV\u66f8\u7c64
p708
aV\u76f8\u4e92
p709
aV\u50b3\u64ad
p710
aV\u5e0c\u671b
p711
aV\u611b
aV\u795d\u798f
p712
aV\u4e00\u8def\u5e73\u5b89
p713
aV\u91d1\u9580\u7e23
p714
aV\u885b\u751f\u5c40\u9577
p715
aV\u9673
aV\u5929\u9806
p716
aV\u547c\u7c72
p717
aV\u65c5\u5ba2
p718
aV\u5230
aV\u4e2d\u570b
p719
aV\u5927\u9678
p720
aV\u5de5\u4f5c
p721
aV\u65c5\u904a
p722
aV\u61c9
aV\u5118\u91cf
p723
aV\u79bd\u9ce5
p724
aV\u63a5\u89f8
p725
aV\u8fd4\u53f0
p726
aV\u5f8c
aV\u51fa\u73fe
p727
aV\u9ad8\u71d2
p728
aV\u5589\u56a8\u75db
p729
aV\u54b3\u55fd
p730
aV\u7d50\u819c\u708e
p731
aV\u75c7\u72c0
p732
aV\u8acb\u6234
p733
aV\u53e3\u7f69
p734
aV\u5118\u901f
p735
aV\u81f3\u639b
p736
aV\u65b0\u578b
p737
aV\u6d41\u884c\u6027
p738
aV\u611f\u5192
p739
aV\u63a1\u6aa2
p740
aV\u91ab\u7642\u6a5f\u69cb
p741
aV\u6a19\u7ae0
p742
aV\u91ab\u7642
p743
aV\u9662\u6240
p744
aV\u63a1\u6aa2
p745
aV\u5c31\u91ab
p746
aV\u4e3b\u52d5
p747
aV\u544a\u77e5
p748
aV\u63a5\u89f8
p749
aV\u53f2
aV\u5de5\u4f5c
p750
aV\u5167\u5bb9
p751
aV\u65c5\u904a
p752
aV\u53f2
aV\u7dad\u8b77
p753
aV\u793e\u6703
p754
aV\u5927\u773e
p755
aV\u5065\u5eb7
p756
aa(lp757
V\u8acb\u554f
p758
aV\u6709\u4eba
p759
aV\u77e5\u9053
p760
aV\u921e
aV\u7d71\u7684\u8c93
p761
aV\u662f\u4e0d\u662f
p762
aV\u8001\u95c6
p763
aV\u990a
aV\u64bf
aV\u5230\u8c93
p764
aV\u8c93\u95dc
p765
aV\u8457\u524d
p766
aV\u5e7e\u5929
p767
aV\u53bb
aV\u7cbe\u795e
p768
aV\u4e0d\u592a\u597d
p769
aV\u4fdd\u6696
p770
aV\u6771\u897f
p771
aV\u9084\u7761
p772
aV\u8c93\u6c99\u88e1
p773
aV\u4eca\u5929
p774
aV\u53bb
aV\u5df2\u7d93
p775
aV\u529b\u6c23
p776
aV\u56de
aV\u8db4\u8457
p777
aV\u4e0d\u52d5\u8c93
p778
aV\u6c99\u88e1
p779
aV\u62c9\u809a\u5b50
p780
aV\u4ed6\u9084
p781
aV\u767c\u51fa
p782
aV\u50cf\u662f
p783
aV\u54b3\u55fd
p784
aV\u8072\u97f3
p785
aV\u60f3\u554f
p786
aV\u8aaa
aV\u6709\u4eba
p787
aV\u77e5\u9053
p788
aV\u96bb
aV\u8c93
aV\u662f\u5426
p789
aV\u6709\u4eba
p790
aV\u7167\u9867
p791
aV\u5e97\u88e1
p792
aV\u7528\u4f86
p793
aV\u62db\u652c\u751f\u610f
p794
aa(lp795
V\u4e4b\u524d
p796
aV\u5b78\u9577
p797
aV\u9019\u9593
p798
aV\u9910\u5ef3
p799
aV\u4eca\u5929
p800
aV\u7279\u5225
p801
aV\u6392\u4f11
p802
aV\u63ea
aV\u5b78\u59ca
p803
aV\u9019\u5bb6
p804
aV\u9910\u5ef3
p805
aV\u7279\u8272
p806
aV\u6c34\u679c
p807
aV\u505a
aV\u5275\u610f
p808
aV\u6599\u7406
p809
aV\u6c34\u679c
p810
aV\u7522\u5b63
p811
aV\u83dc\u8272
p812
aV\u61c9\u7576
p813
aV\u5b63
aV\u852c\u679c
p814
aV\u9cf3\u68a8
p815
aV\u6728\u74dc
p816
aV\u56db\u5b63
p817
aV\u76db\u7522
p818
aV\u62dc\u8a2a
p819
aV\u524d\u8981
p820
aV\u8a18\u5f97
p821
aV\u5148
aV\u8a02\u4f4d
p822
aV\u91d1\u9580
p823
aV\u76db\u7522
p824
aV\u6c34\u679c
p825
aV\u6c34\u679c
p826
aV\u53f0\u7063
p827
aV\u904b\u5230
p828
aV\u91d1\u9580
p829
aV\u4eca\u5929
p830
aV\u76f8\u6a5f
p831
aV\u501f\u8d70
p832
aV\u53ea\u80fd\u9760
p833
aV\u624b\u6a5f
p834
aV\u7c97\u7cd9
p835
aV\u756b\u9762
p836
aV\u53c3\u8003
p837
aVgoogle
p838
aV\u5176\u4ed6\u4eba
p839
aV\u62cd
aV\u7167\u7247
p840
aV\u5716\u6587
p841
aV\u7248
aVtinyurl
p842
aVyb6wx8w
p843
aV______________________________________________________________________________
p844
aV\u6bcf\u5f35
p845
aV\u9910\u684c
p846
aV\u88e1\u9762
p847
aV\u64fa
aV\u88dd\u98fe
p848
aV\u9019\u5bb6
p849
aV\u9910\u5ef3
p850
aV\u5916\u89c0
p851
aV\u6c11\u5b85
p852
aV\u4e0d\u597d
p853
aV\u627e
aV\u7b2c\u4e00\u9053
p854
aV\u83dc
aV\u6c99\u62c9
p855
aV\u84ee\u9727
p856
aV\u68d7\u5b50
p857
aV\u860b\u679c
p858
aV\u751c\u67ff
p859
aV\u6c34\u679c
p860
aV\u5403
aV\u5473\u9053
p861
aV\u76f8\u4e92
p862
aV\u547c\u61c9
p863
aV\u6c99\u62c9\u91ac
p864
aV\u52a0
aV\u6bd4\u8f03
p865
aV\u5c11
aV\u6436\u8d70
p866
aV\u6c34\u679c
p867
aV\u5473\u9053
p868
aV\u5403
aV\u5fae\u9178
p869
aV\u751c\u751c\u7684
p870
aV\u8868\u73fe
p871
aV\u7576\u5b63
p872
aV\u6c34\u679c
p873
aV\u9bae\u751c
p874
aV\u9999\u5473
p875
aV\u7b2c\u4e8c\u9053
p876
aV\u98f2\u6599
p877
aV\u860b\u679c
p878
aV\u9cf3\u68a8
p879
aV\u53bb
aV\u679c\u6c41
p880
aV\u559d
aV\u5230
aV\u860b\u679c
p881
aV\u679c\u8089
p882
aV\u6de1\u6de1
p883
aV\u9cf3\u68a8
p884
aV\u9999
aV\u9cf3\u68a8
p885
aV\u5473\u9053
p886
aV\u5f88\u9178
p887
aV\u679c\u6c41
p888
aV\u7121\u9650
p889
aV\u66a2\u98f2
p890
aV\u5e97\u5bb6
p891
aV\u8cbc\u5fc3
p892
aV\u4eca\u5929
p893
aV\u98f2\u6599
p894
aV\u6eab
aV\u7b2c\u4e09\u9053
p895
aV\u7092\u98ef
p896
aV\u6afb\u82b1
p897
aV\u8766
aV\u9cf3\u68a8
p898
aV\u7092
aV\u7092\u98ef
p899
aV\u6574\u9053\u83dc
p900
aV\u5145\u6eff
p901
aV\u6afb\u82b1
p902
aV\u8766
aV\u9999\u6c23
p903
aV\u9cf3\u68a8
p904
aV\u914d\u89d2
p905
aV\u4ed4\u7d30
p906
aV\u54c1\u5617
p907
aV\u5403
aV\u9cf3\u68a8
p908
aV\u6de1\u6de1\u7684
p909
aV\u5473\u9053
p910
aV\u4f46\u98ef
p911
aV\u7092
aV\u7c92\u7c92
p912
aV\u5206\u660e
p913
aV\u6263\u5206
p914
aV\u5730\u65b9
p915
aV\u4eca\u5929
p916
aV\u5403
aV\u5230
aV\u4e00\u5718
p917
aV\u767d\u8272
p918
aV\u6c92\u7092
p919
aV\u958b
aV\u98ef
aV\u7b2c\u56db\u9053
p920
aV\u7117
aV\u70e4
aV\u5165\u53e3
p921
aV\u6fc3\u6fc3\u7684
p922
aV\u6d77\u9bae
p923
aV\u5473
aV\u9053\u83dc
p924
aV\u9cf3\u68a8
p925
aV\u878d\u5165
p926
aV\u6d77\u9bae
p927
aV\u5634\u88e1
p928
aV\u5f48\u8df3
p929
aV\u7a31
aV\u6f8e\u6e43
p930
aV\u9957\u5bb4
p931
aV\u9cf3\u68a8
p932
aV\u679c\u8089
p933
aV\u591a\u9918
p934
aV\u5403
aV\u5473\u9053
p935
aV\u6fc3\u7684
p936
aV\u8d77\u58eb
p937
aV\u6d77\u9bae
p938
aV\u6392\u9664
p939
aV\u6389
aV\u9cf3\u68a8
p940
aV\u60f3
aV\u6bd4\u8f03
p941
aV\u597d
aV\u53ea
aV\u9700\u8981
p942
aV\u9999\u6c23
p943
aV\u597d
aV\u7b2c\u4e94\u9053
p944
aV\u6e6f
aV\u5916\u89c0
p945
aV\u5f88\u6f02\u4eae
p946
aV\u71ed\u81fa
p947
aV\u4e0b\u9762
p948
aV\u52a0\u6eab
p949
aV\u78ba\u4fdd
p950
aV\u5357\u74dc
p951
aV\u6e6f
aV\u51b7\u6389
p952
aV\u5c0f\u5f1f
p953
aV\u5357\u74dc
p954
aV\u6050\u61fc
p955
aV\u9053\u83dc
p956
aV\u7d66\u6211
p957
aV\u6d6a\u8cbb
p958
aV\u88e1\u9762
p959
aV\u6709\u52a0
p960
aV\u725b\u5976
p961
aV\u53e3\u611f
p962
aV\u6fc3\u90c1
p963
aV\u7b2c\u516d\u9053
p964
aV\u4e3b\u83dc
p965
aV\u4e3b\u89d2
p966
aV\u6c34\u679c
p967
aV\u71ac
aV\u716e
aV\u7684\u8c6c
p968
aV\u5f8c\u817f
p969
aV\u5165\u53e3
p970
aV\u6c34\u679c
p971
aV\u9999\u5473
p972
aV\u642d\u914d
p973
aV\u91d1\u6854
p974
aV\u91ac
aV\u4e00\u756a
p975
aV\u65b0\u5947
p976
aV\u53e3\u5473
p977
aV\u966a\u896f
p978
aV\u5357\u74dc\u9905
p979
aV\u5247\u662f
p980
aV\u8b93\u7d66
p981
aV\u5b78\u59ca
p982
aV\u7528\u8a5e
p983
aV\u7c21\u6f54
p984
aV\u5b78\u59ca
p985
aV\u8a55\u50f9
p986
aV\u666e\u901a
p987
aV\u89e3\u91cb
p988
aV\u4e00\u500b
p989
aV\u5305\u88f9
p990
aV\u9165\u76ae
p991
aV\u666e\u901a
p992
aV\u5357\u74dc\u9905
p993
aV\u4e0b\u9762
p994
aV\u588a
aV\u70e4
aV\u6854\u5b50
p995
aV\u8001\u95c6
p996
aV\u8aaa
aV\u5403
aV\u4ee5\u5f8c
p997
aV\u4eca\u5e74\u51ac\u5929
p998
aV\u54b3\u55fd
p999
aV\u7b11
aV\u7b2c\u4e03\u9053
p1000
aV\u71c9
aV\u5169\u7a2e
p1001
aV\u5c71\u85e5
p1002
aV\u914d
aV\u8606\u7b4d
p1003
aV\u756a\u8304
p1004
aV\u8766\u4ec1
p1005
aV\u5403
aV\u5f88\u9bae
p1006
aV\u751c
aV\u8996\u89ba
p1007
aV\u5473\u89ba
p1008
aV\u6eff\u5206
p1009
aV\u4e00\u9053
p1010
aV\u4e2d\u9593
p1011
aV\u83dc
aV\u5403
aV\u5b8c
aV\u4eab\u7528
p1012
aV\u7576\u4f5c
p1013
aV\u5bb9\u5668
p1014
aV\u54c8\u5bc6\u74dc
p1015
aV\u54c8\u5bc6\u74dc
p1016
aV\u751c\u5ea6
p1017
aV\u9ad8
aV\u65c1\u908a
p1018
aV\u7d2b\u8272
p1019
aV\u756a\u7d05\u82b1
p1020
aV\u5929\u5436
p1021
aV\u597d
aV\u9178
aV\u53d7\u4e0d\u4e86
p1022
aV\u7b2c\u516b\u9053
p1023
aV\u751c\u9ede
p1024
aV\u5fd8\u8a18
p1025
aV\u9019\u53eb
p1026
aV\u7126\u7cd6
p1027
aV\u5473\u9053
p1028
aV\u6842\u5713
p1029
aV\u7d05\u68d7
p1030
aV\u5403
aV\u5e03\u4e01
p1031
aV\u53e3\u611f
p1032
aV\u990a\u8eab
p1033
aV\u89d2\u5ea6
p1034
aV\u4f86\u8aaa
p1035
aV\u5efa\u8b70
p1036
aV\u52a0
aV\u5976\u7cbe
p1037
aV\u5f8c\u8a18
p1038
aV\u4eca\u5929
p1039
aV\u9047\u5230
p1040
aV\u4e0b\u5348
p1041
aV\u53bb
aV\u5ec8\u9580
p1042
aV\u4e9e\u862d\u59d0
p1043
aV\u8001\u95c6
p1044
aV\u795e\u79d8\u516e\u516e
p1045
aV\u8aaa
aV\u4eca\u5929
p1046
aV\u7279\u5225
p1047
aV\u5ba2\u4eba
p1048
aV\u539f\u4f86
p1049
aV\u8dd1
aV\u5c0f\u4e09\u901a
p1050
aV\u4e9e\u862d\u59d0
p1051
aV\u5169\u9053\u83dc
p1052
aV\u4e00\u9053
p1053
aV\u6c99\u62c9
p1054
aV\u4e00\u9053
p1055
aV\u9cf3\u68a8
p1056
aV\u8766\u4ec1
p1057
aV\u5403
aV\u5b8c
aV\u5f8c
aV\u611f\u89ba
p1058
aV\u4eca\u5929
p1059
aV\u5357\u74dc
p1060
aV\u6fc3\u6e6f
p1061
aV\u4e3b\u89c0
p1062
aV\u98df\u6750
p1063
aV\u53cd\u611f
p1064
aV\u5403
aV\u503c\u5f97
p1065
aV\u9053\u83dc
p1066
aV\u62dc\u8a2a
p1067
aV\u9019\u9593
p1068
aV\u9910\u5ef3
p1069
aV\u6253\u807d
p1070
aV\u8eab\u908a
p1071
aV\u53cb\u4eba
p1072
aV\u4eba
aV\u597d\u5403
p1073
aV\u6bcf\u500b
p1074
aV\u4eba
aV\u7f8e\u98df
p1075
aV\u8a8d\u77e5
p1076
aV\u5473\u9053
p1077
aV\u4e3b\u89c0
p1078
aV\u5403\u904e
p1079
aV\u8a55\u50f9
p1080
aV\u9069\u4e0d
p1081
aV\u9069\u5408
p1082
aV\u5b9a\u4f4d
p1083
aV\u8001\u95c6
p1084
aV\u7576\u4f5c
p1085
aV\u8208\u8da3
p1086
aV\u7d93\u71df
p1087
aV\u5275\u610f
p1088
aV\u6599\u7406
p1089
aV\u9644\u4e0a
p1090
aV\u5e97\u5bb6
p1091
aV\u8cc7\u8a0a
p1092
aV\u5730\u5740
p1093
aV\u91d1\u9580\u7e23
p1094
aV\u91d1
aV\u5be7\u9109
p1095
aV\u4e0b\u5821
p1096
aV\u865f
aV\u806f\u7d61
p1097
aV\u96fb\u8a71
p1098
aV\u71df\u696d
p1099
aV\u6642\u9593
p1100
aV\u661f\u671f\u4e09
p1101
aV\u516c\u4f11
p1102
aa(lp1103
V96.8
p1104
aV\u91d1\u9580
p1105
aV\u65e5\u5831
p1106
aV\u6d6f\u6c5f
p1107
aV\u591c\u8a71
p1108
aV\u8f49\u8cbc
p1109
aV\u4f5c\u8005
p1110
aV\u738b\u58eb
p1111
aV\u4f5b
aV\u6148\u60b2
p1112
aV\u666e\u6e21
p1113
aV\u773e\u751f
p1114
aV\u8acb
aV\u5fd8
aV\u91d1\u9580
p1115
aV\u5f1f\u5b50
p1116
aV\u9802\u79ae
p1117
aV\u4e09\u62dc
p1118
aV\u7948\u6c42
p1119
aV\u964d\u798f
p1120
aV\u6d6f\u5cf6
p1121
aV\u5e87\u4f51
p1122
aV\u6d6f\u6c11
p1123
aV\u5168\u5cf6
p1124
aV\u5b89\u5eb7
p1125
aV\u5168\u6c11
p1126
aV\u6b61\u6a02
p1127
aV\u4e00\u62dc
p1128
aV\u518d\u62dc
p1129
aV\u4e09\u62dc
p1130
aV\u62dc\u8a17
p1131
aV\u4f5b\u7956
p1132
aV\u5f1f\u5b50
p1133
aV\u9ad8\u8208
p1134
aV\u807d\u8aaa
p1135
aV\u5bb6\u9109
p1136
aV\u8b8a\u6210
p1137
aV\u91d1\u9580
p1138
aV\u4f5b\u570b
p1139
aV\u771f\u662f
p1140
aV\u4eba
aV\u611f\u52d5
p1141
aV\u842c\u5206
p1142
aV\u9084\u597d
p1143
aV\u8d81\u6b64
p1144
aV\u826f\u6a5f
p1145
aV\u8fd4\u9109
p1146
aV\u5b9a\u5c45
p1147
aV\u4ee5\u6c42
p1148
aV\u4fdd\u6709
p1149
aV\u4f5b\u570b
p1150
aV\u5b50\u6c11
p1151
aV\u73cd\u8cb4
p1152
aV\u8eab\u4efd
p1153
aV\u737b\u8eab
p1154
aV\u5bb6\u9109
p1155
aV\u7dad\u8b77
p1156
aV\u5049\u5927
p1157
aV\u795e\u8056
p1158
aV\u91d1\u9580
p1159
aV\u4f5b\u570b
p1160
aV\u5947\u4eba
p1161
aV\u7570\u58eb
p1162
aV\u60a8\u7d66
p1163
aV\u6cbe\u6c61
p1164
aV\u5bb6\u9109
p1165
aV\u6d77\u4e0a
p1166
aV\u516c\u5712
p1167
aV\u5feb\u6a02
p1168
aV\u7e23\u57ce
p1169
aV\u66f4\u662f
p1170
aV\u6de8\u571f
p1171
aV\u4e16\u754c
p1172
aV\u6975\u6a02
p1173
aV\u5929\u5802
p1174
aV\u5168\u5cf6
p1175
aV\u4f5b\u570b
p1176
aV\u5b50\u6c11
p1177
aV\u64c1\u6234
p1178
aV\u8001\u548c\u5c1a
p1179
aV\u505a
aV\u570b\u738b
p1180
aV\u5c0f
aV\u548c\u5c1a
p1181
aV\u505a
aV\u8ca1\u653f
p1182
aV\u5927\u81e3
p1183
aV\u6240\u6709
p1184
aV\u5b78\u6821
p1185
aV\u6539\u70ba
p1186
aV\u4f5b\u5b78\u9662
p1187
aV\u4e00\u7db1
p1188
aV\u591a\u672c
p1189
aV\u5168\u7528
p1190
aV\u4f5b\u7d93
p1191
aV\u6559\u80b2
p1192
aV\u65e9\u8ab2
p1193
aV\u5fc3\u7d93
p1194
aV\u5348\u8ab2
p1195
aV\u91d1\u525b
p1196
aV\u822c\u82e5
p1197
aV\u6ce2\u7f85
p1198
aV\u5bc6\u7d93
p1199
aV\u665a\u8ab2
p1200
aV\u4f5b\u8aaa
p1201
aV\u963f\u5f4c\u9640
p1202
aV\u898b\u9762
p1203
aV\u5408\u5341
p1204
aV\u656c\u8aa6
p1205
aV\u963f\u5f4c\u9640\u4f5b
p1206
aV\u5206\u5225
p1207
aV\u656c\u8a9e
p1208
aV\u5584\u54c9
p1209
aV\u5584\u54c9
p1210
aV\u5243\u5ea6
p1211
aV\u7537
aV\u5f1f\u5b50
p1212
aV\u6bd4\u4e18
p1213
aV\u5973
aV\u4fe1\u5973
p1214
aV\u6bd4\u4e18\u5c3c
p1215
aV\u5168\u65e5
p1216
aV\u8339\u7d20
p1217
aV\u4e00\u751f
p1218
aV\u9577\u9f4b
p1219
aV\u6bba\u751f
p1220
aV\u79bd\u6d41\u611f
p1221
aV\u53e3\u8e44\u75ab
p1222
aV\u5168
aV\u7d55\u8de1
p1223
aV\u5168\u5cf6
p1224
aV\u6e05\u9999
p1225
aV\u7e5a\u7e5e
p1226
aV\u56db\u5883
p1227
aV\u6cd5\u865f
p1228
aV\u76c8\u8033
p1229
aV\u4e16\u754c
p1230
aV\u548c\u5e73
p1231
aV\u666f\u50cf
p1232
aV\u91d1\u9580
p1233
aV\u5f1f\u5b50
p1234
aV\u751f\u6027
p1235
aV\u4e0d\u4e56
p1236
aV\u5e38\u611b
p1237
aV\u63d0\u51fa
p1238
aV\u7591\u554f
p1239
aV\u60f9\u4eba\u53ad
p1240
aV\u5c0a\u656c
p1241
aV\u4f5b\u7956
p1242
aV\u53d7
aV\u59d4\u66f2
p1243
aV\u5f1f\u5b50
p1244
aV\u5fc3\u4e2d
p1245
aV\u7591\u60d1
p1246
aV\u6c42\u6559
p1247
aV\u7948\u6c42
p1248
aV\u6307\u9ede\u8ff7\u6d25
p1249
aV\u5bf5\u8cdc
p1250
aV\u89e3\u96e3
p1251
aV\u963f\u5f4c\u9640\u4f5b
p1252
aV\u5584\u54c9
p1253
aV\u5584\u54c9
p1254
aV\u807d\u8aaa
p1255
aV\u5efa\u9020
p1256
aV\u516c\u5c3a
p1257
aV\u9ad8
aV\u597d
aV\u5168\u4e16\u754c
p1258
aV\u77e5\u9053
p1259
aV\u4e16\u754c
p1260
aV\u7b2c\u4e00
p1261
aV\u5927\u4f5b
p1262
aV\u91d1\u9580
p1263
aV\u5947\u602a
p1264
aV\u73fe\u5728
p1265
aV\u4e16\u754c
p1266
aV\u7b2c\u4e00
p1267
aV\u9ad8\u6a13
p1268
aV\u516c\u5c3a
p1269
aV\u53f0\u5317
p1270
aV\u5df2\u7d93
p1271
aV\u63db\u6210
p1272
aV\u675c\u62dc\u5854
p1273
aV\u5b83\u5c07
p1274
aV\u516c\u5c3a
p1275
aV\u9ad8
aV\u57ce\u5e02
p1276
aV\u60f3
aV\u84cb
aV\u4e16\u754c
p1277
aV\u8d85
aV\u9ad8\u6a13
p1278
aV\u9ad8\u5ea6
p1279
aV\u4e0d\u8db3
p1280
aV\u516c\u5c3a
p1281
aV\u5c0a\u656c
p1282
aV\u4e0a\u9054
p1283
aV\u5929\u5ead
p1284
aV\u516c\u5c3a
p1285
aV\u7e3d\u662f
p1286
aV\u7d66\u4eba
p1287
aV\u4e8c\u767e\u4e94
p1288
aV\u806f\u60f3
p1289
aV\u5f1f\u5b50
p1290
aV\u5931\u656c
p1291
aV\u5f1f\u5b50
p1292
aV\u60f3
aV\u807d\u8aaa
p1293
aV\u5efa\u9020
p1294
aV\u91d1\u9f9c
p1295
aV\u5c71
aV\u5f1f\u5b50
p1296
aV\u5947\u602a
p1297
aV\u597d\u597d
p1298
aV\u4f55\u8981
p1299
aV\u5750\u5728
p1300
aV\u9f9c
aV\u77e5\u9053
p1301
aV\u9f9c
aV\u9577\u58fd
p1302
aV\u8c61\u5fb5
p1303
aV\u7f75\u4eba
p1304
aV\u70cf\u9f9c\u738b\u516b
p1305
aV\u96e3\u807d
p1306
aV\u5750\u5728
p1307
aV\u9f9c
aV\u4e0a\u9762
p1308
aV\u4fd7\u4e16
p1309
aV\u773c\u5149
p1310
aV\u76ae\u689d\u5ba2
p1311
aV\u5a3c\u982d
p1312
aV\u8001\u9d07
p1313
aV\u7d93\u71df
p1314
aV\u7279\u7a2e\u884c\u696d
p1315
aV\u5f1f\u5b50
p1316
aV\u5931\u656c
p1317
aV\u5f1f\u5b50
p1318
aV\u60f3
aV\u5750\u5728
p1319
aV\u91d1\u9f9c
p1320
aV\u5c71
aV\u8993
aV\u4e7e\u6de8
p1321
aV\u807d\u8aaa
p1322
aV\u7576\u6210
p1323
aV\u6416\u9322\u6a39
p1324
aV\u8001\u9d07
p1325
aV\u5df2\u7d93
p1326
aV\u4e0d\u582a
p1327
aV\u9084\u8981
p1328
aV\u4e0b\u6d77
p1329
aV\u6416\u9322\u6a39
p1330
aV\u77e5\u9053
p1331
aV\u6416\u9322\u6a39
p1332
aV\u6697\u8af7
p1333
aV\u7279\u7a2e\u884c\u696d
p1334
aV\u5973\u5b50
p1335
aV\u771f\u662f
p1336
aV\u5927\u5927\u7684
p1337
aV\u656c
aV\u5f1f\u5b50
p1338
aV\u5931\u656c
p1339
aV\u5f1f\u5b50
p1340
aV\u60f3
aV\u61c9\u8a72
p1341
aV\u83e9\u63d0\u6a39
p1342
aV\u5730\u576a
p1343
aV\u9762\u7a4d
p1344
aV\u516c\u9803
p1345
aV\u5920\u7528
p1346
aV\u8981\u8aaa
p1347
aV\u5168\u4e16\u754c
p1348
aV\u4f5b
aV\u5f1f\u5b50
p1349
aV\u8981\u4f86
p1350
aV\u671d\u8056
p1351
aV\u5c31\u9023
p1352
aV\u5168\u5cf6
p1353
aV\u4f5b\u570b
p1354
aV\u5b50\u6c11
p1355
aV\u8981\u4f86
p1356
aV\u819c\u62dc
p1357
aV\u5bb9\u4e0d\u4e0b
p1358
aV\u505a
aV\u5c31\u8981
p1359
aV\u505a\u5927
p1360
aV\u4f86\u500b
p1361
aV\u516c\u9803
p1362
aV\u4e00\u8def\u767c
p1363
aV\u767c\u767c
p1364
aV\u597d
aV\u5146\u982d
p1365
aV\u5acc
aV\u592a\u5c0f
p1366
aV\u586b\u6d77
p1367
aV\u5168\u5cf6
p1368
aV\u5f1f\u5b50
p1369
aV\u767c\u9858
p1370
aV\u586b\u5230
p1371
aV\u70c8\u5dbc
p1372
aV\u91d1\u70c8
p1373
aV\u5927\u6a4b
p1374
aV\u53ef\u7701
p1375
aV\u4e0b\u4f86
p1376
aV\u5efa
aV\u5927\u4f5b
p1377
aV\u8aaa\u597d
p1378
aV\u4e0d\u597d
p1379
aV\u771f\u662f
p1380
aV\u4e00\u8209\u5169\u5f97
p1381
aV\u5f1f\u5b50
p1382
aV\u5931\u656c
p1383
aV\u4f5b\u7956
p1384
aV\u539f\u662f
p1385
aV\u8cb4\u70ba
p1386
aV\u592a\u5b50
p1387
aV\u5c0a\u8cb4
p1388
aV\u8eab\u5206
p1389
aV\u8ca7\u82e6
p1390
aV\u773e\u751f
p1391
aV\u51fa\u5bb6
p1392
aV\u5403\u82e6
p1393
aV\u5272
aV\u8089
aV\u53bb
aV\u9935\u98df
p1394
aV\u8001\u9df9
p1395
aV\u4ee5\u6c42
p1396
aV\u7260
aV\u514d\u53d7
p1397
aV\u98e2\u5bd2
p1398
aV\u73fe\u5728
p1399
aV\u91d1\u9580
p1400
aV\u592a\u591a
p1401
aV\u5b50\u6c11
p1402
aV\u53d7\u82e6
p1403
aV\u4f5b\u9ad4
p1404
aV\u6c34\u6ce5
p1405
aV\u9084\u80fd
p1406
aV\u518d
aV\u5272\u8089
p1407
aV\u4ee5\u6fdf\u773e
p1408
aV\u8aaa
aV\u773c\u5149
p1409
aV\u653e\u9060
p1410
aV\u5230
aV\u5e74
aV\u5230
aV\u5e74
aV\u5f8c
aV\u89c0
aV\u5149\u69ae
p1411
aV\u666f
aV\u90a3\u4e0d\u5c31
p1412
aV\u671b\u6885\u6b62\u6e34
p1413
aV\u756b\u9905\u5145\u98e2
p1414
aV\u591a\u5e74
p1415
aV\u524d
aV\u6649\u60e0\u5e1d
p1416
aV\u8aaa
aV\u98ef
aV\u5403
aV\u4e0d\u5403
p1417
aV\u5ee3\u6771
p1418
aV\u7ca5
aV\u4e0a\u500b\u6708
p1419
aV\u884c\u653f\u9662\u9577
p1420
aV\u5f35\u4fca\u96c4
p1421
aV\u592b\u4eba
p1422
aV\u6731\u963f\u82f1
p1423
aV\u5973\u58eb
p1424
aV\u7b11
aV\u8aaa
aV\u9eb5
aV\u7c89
aV\u6f32\u50f9
p1425
aV\u5403
aV\u9eb5
aV\u6539\u5403
p1426
aV\u5730\u74dc
p1427
aV\u4f5b\u7956
p1428
aV\u4e03\u6708
p1429
aV\u6d41\u706b
p1430
aV\u5b5d\u89aa
p1431
aV\u6708
aV\u5f1f\u5b50
p1432
aV\u656c\u62dc
p1433
aV\u7956\u5148
p1434
aV\u66f4\u8981
p1435
aV\u6559\u990a
p1436
aV\u5152\u5b6b
p1437
aV\u70ba\u91cd
p1438
aV\u5152\u5b6b
p1439
aV\u7956\u5148
p1440
aV\u62dc
aV\u9053\u7406
p1441
aV\u4e0a\u4f4d
p1442
aV\u9ad4\u5bdf
p1443
aV\u5f1f\u5b50
p1444
aV\u518d\u62dc
p1445
aV\u6c42
aV\u6551\u6551
p1446
aV\u91d1\u9580
p1447
aa(lp1448
V\u4ecb\u7d39
p1449
aV\u5e97\u92ea
p1450
aV\u6995\u6995\u5712
p1451
aV\u62c9
aV\u9eb5
aV\u9928
aV\u725b\u8089
p1452
aV\u9eb5
aV\u5c71\u5916
p1453
aV\u91cc
aV\u91d1\u6e56
p1454
aV\u93ae
aV\u5730\u5740
p1455
aV\u91d1\u9580\u7e23
p1456
aV\u91d1\u6e56
p1457
aV\u93ae\u5c71\u5916
p1458
aV\u9ec3\u6d77
p1459
aV\u8def
aV\u865f
aV\u96fb\u8a71
p1460
aV\u71df\u696d
p1461
aV\u6642\u9593
p1462
aV30Am
p1463
aV30Pm
p1464
aV\u6d88\u8cbb
p1465
aV\u63d0\u9192
p1466
aV\u8a18\u5f97
p1467
aV\u62db\u724c
p1468
aV\u9999\u8fa3
p1469
aV\u91ac
aV\u932f\u904e
p1470
aV\u5e97\u5167
p1471
aV\u8ca9\u552e
p1472
aV\u6d88\u8cbb
p1473
aV\u6642\u9593
p1474
aV\u5e74
aV\u6708
aV\u5716\u6587
p1475
aV\u7db2\u8a8c
p1476
aV\u7248
aVwww
p1477
aVorange
p1478
aVdog
p1479
aVblog
p1480
aVpost
p1481
aVhtml
p1482
aV\u91d1\u9580
p1483
aV\u76db\u7522
p1484
aV\u9ad8\u6881
p1485
aV\u4ee5\u5916
p1486
aV\u755c\u7267\u696d
p1487
aV\u7576\u5730
p1488
aV\u767c\u5c55
p1489
aV\u91cd\u5fc3
p1490
aV\u7522\u696d
p1491
aV\u91d1\u9580
p1492
aV\u9ec3\u725b
p1493
aV\u8089
aV\u76f8\u7576
p1494
aV\u6709\u540d
p1495
aV\u9019\u8d9f
p1496
aV\u91d1\u9580
p1497
aV\u884c
aV\u6700\u5927
p1498
aV\u907a\u61be
p1499
aV\u5403
aV\u5230
aV\u9ad8\u5751
p1500
aV\u5168\u725b
p1501
aV\u5927\u9910
p1502
aV\u7f8e\u98df
p1503
aV\u4f55\u5176
p1504
aV\u6bcf\u9053
p1505
aV\u98df\u7269
p1506
aV\u5408
aV\u80c3\u53e3
p1507
aV\u4ee5\u5916
p1508
aV\u518d
aV\u89c0\u5149
p1509
aV\u666f\u9ede
p1510
aV\u53c3\u8a2a
p1511
aV\u4e94\u5929
p1512
aV\u56db\u591c
p1513
aV\u884c\u7a0b
p1514
aV\u585e\u6eff
p1515
aV\u5e78\u597d
p1516
aV\u9019\u5929
p1517
aV\u65e9\u4e0a
p1518
aV\u91d1\u6e56
p1519
aV\u93ae
aV\u9019\u5bb6
p1520
aV\u6995\u6995\u5712
p1521
aV\u62c9
aV\u9eb5
aV\u9928
aV\u6709\u540d
p1522
aV\u5e97
aV\u4f86\u5230
p1523
aV\u91d1\u9580
p1524
aV\u5b8c\u5168
p1525
aV\u77e5\u9053
p1526
aV\u725b\u8089
p1527
aV\u6ecb\u5473
p1528
aV\u4f55\u7269
p1529
aV\u8aaa\u5f97\u904e\u53bb
p1530
aV\u525b\u5403
p1531
aV\u5b8c
aV\u65e9\u9910
p1532
aV\u8981\u585e
p1533
aV\u7897
aV\u725b\u8089
p1534
aV\u9eb5
aV\u9019\u5929
p1535
aV\u9047\u5230
p1536
aV\u661f\u671f\u516d
p1537
aV\u5047\u65e5
p1538
aV\u95dc\u4fc2
p1539
aV\u672c\u4f86
p1540
aV\u60f3
aV\u8aaa
aV\u8def\u4e0a
p1541
aV\u592a\u591a\u4eba
p1542
aV\u4e2d\u5348
p1543
aV\u5341\u4e8c\u9ede
p1544
aV\u6574\u6995
p1545
aV\u6995\u5712
p1546
aV\u6574\u5bb6\u5e97
p1547
aV\u5df2\u7d93
p1548
aV\u5750\u6eff
p1549
aV\u4eba
aV\u4eba
aV\u8ecd\u4eba
p1550
aV\u5c45\u591a
p1551
aV\u7246\u4e0a
p1552
aV\u88dd\u98fe
p1553
aV\u597d
aV\u7e7d\u7d1b
p1554
aVXD
p1555
aV\u98a8\u666f
p1556
aV\u6625\u806f
p1557
aV\u5168\u90e8
p1558
aV\u6519
aV\u4e00\u8d77
p1559
aV\u8cbc\u4e0a\u53bb
p1560
aV\u5df2\u7d93
p1561
aV\u71df\u696d
p1562
aV\u5f88\u4e45
p1563
aV\u8001\u5e97
p1564
aV\u77e5\u540d\u5ea6
p1565
aV\u4e0d\u932f
p1566
aV\u7db2\u8def\u4e0a
p1567
aV\u770b\u5230
p1568
aV\u63a8\u85a6
p1569
aV\u6587\u7ae0
p1570
aV\u4eba
aV\u7576\u5175
p1571
aV\u56de\u61b6
p1572
aV\u5df2\u7d93
p1573
aV\u99d0\u5b88
p1574
aV\u591a\u4e45
p1575
aV\u5c71\u5916
p1576
aV\u91d1\u57ce
p1577
aV\u8eca\u7ad9
p1578
aV\u5f8c\u9762
p1579
aV\u958b
aV\u5206\u5e97
p1580
aV\u6a23\u5b50
p1581
aV\u725b\u8089
p1582
aV\u9eb5
aV\u5df2\u7d93
p1583
aV\u592a
aV\u964c\u751f
p1584
aV\u98df\u7269
p1585
aV\u53f0\u7063
p1586
aV\u4fbf\u5229\u5546\u5e97
p1587
aV\u6bcf\u500b
p1588
aV\u5730\u65b9
p1589
aV\u98f2\u98df\u7fd2\u6163
p1590
aV\u9020\u5c31
p1591
aV\u98f2\u98df
p1592
aV\u7279\u8272
p1593
aV\u60f3
aV\u725b\u8089
p1594
aV\u9eb5
aV\u7279\u5225\u4e4b\u8655
p1595
aV\u50f9\u4f4d
p1596
aV\u9810\u671f
p1597
aV\u9084\u66f4
p1598
aV\u4fbf\u5b9c
p1599
aV\u4e00\u4e9b
p1600
aV\u4e00\u7897
p1601
aV\u725b\u8089
p1602
aV\u9eb5
aV\u584a\u9322
p1603
aV\u50f9\u4f4d
p1604
aV\u53f0\u7063
p1605
aV\u4e00\u7897
p1606
aV\u7834
aV\u767e\u5143
p1607
aV\u725b\u8089
p1608
aV\u9eb5
aV\u5b9a\u50f9
p1609
aV\u76f8\u7576
p1610
aV\u7a00\u6709
p1611
aV\u50f9\u4f4d
p1612
aV\u725b\u8089
p1613
aV\u9eb5
aV\u4ee5\u5916
p1614
aV\u591a\u9ede
p1615
aV\u4e00\u4efd
p1616
aV\u62db\u724c
p1617
aV\u62cc
aV\u9eb5
aV\u6c34\u9903
p1618
aV\u9903\u5b50
p1619
aV\u9b3c
aV\u770b\u5230
p1620
aV\u9903\u5b50
p1621
aV\u4e0d\u9ede
p1622
aV\u96e3\u904e
p1623
aV\u56db\u500b
p1624
aV\u4eba
aV\u5c31\u9ede
p1625
aV\u4e09\u6a23
p1626
aV\u91d1\u9580
p1627
aV\u98df\u7269
p1628
aV\u7e3d\u662f
p1629
aV\u5f88\u5927
p1630
aV\u4efd\u91cf
p1631
aV\u5be6\u5728
p1632
aV\u4e82
aV\u51fa\u624b
p1633
aV\u5403\u592a\u6490
p1634
aVXD
p1635
aV\u725b\u8089
p1636
aV\u9eb5
aV\u7dda
aV\u5143
aV\u9eb5
aV\u9078\u7c97
p1637
aV\u62c9
aV\u9eb5
aV\u91d1\u9580
p1638
aV\u9eb5
aV\u7dda
aV\u4f30\u91cf
p1639
aV\u5e7e\u5929
p1640
aV\u61c9\u8a72
p1641
aV\u6a5f\u6703
p1642
aV\u5403
aV\u5230
aV\u91d1\u9580
p1643
aV\u9eb5
aV\u7dda
aV\u6c7a\u5b9a
p1644
aV\u4e00\u7ad9
p1645
aV\u725b\u8089
p1646
aV\u9eb5
aV\u7dda
aV\u5169\u6a23
p1647
aV\u5148
aV\u5403
aV\u5230
aVXDD
p1648
aV\u4e00\u7897
p1649
aV\u725b\u8089
p1650
aV\u9eb5
aV\u4e00\u6b21
p1651
aV\u6eff\u8db3
p1652
aV\u6e6f\u982d
p1653
aV\u8aaa
aV\u5ddd\u5473
p1654
aV\u5012
aV\u4e0d\u8fa3
p1655
aV\u9084\u633a
p1656
aV\u6e05\u6f88
p1657
aV\u7518\u751c
p1658
aV\u725b\u8089
p1659
aV\u6de1\u6de1
p1660
aV\u9999\u6c23
p1661
aV\u88e1\u9762
p1662
aV\u725b\u8089
p1663
aV\u4ee5\u5916
p1664
aV\u9084\u52a0
p1665
aV\u9752\u6c5f
p1666
aV\u83dc
aV\u9810\u671f
p1667
aV\u5ddd\u5473
p1668
aV\u7565\u6709\u4e0d\u540c
p1669
aV\u597d\u559d
p1670
aV\u4e0d\u81a9
p1671
aV\u4e0a\u9762
p1672
aV\u725b\u8089
p1673
aV\u584a
aV\u5012
aV\u51fa\u4e4e
p1674
aV\u9810\u6599
p1675
aV\u5927\u584a
p1676
aV\u98df\u8a18
p1677
aV\u8aaa
aV\u725b\u8089
p1678
aV\u7247
aV\u8089\u584a
p1679
aV\u61c9\u8a72
p1680
aV\u6709\u4e94\u5230
p1681
aV\u516d\u584a
p1682
aV\u8089
aV\u4e94\u584a
p1683
aV\u54ac\u8d77\u4f86
p1684
aV\u53e3\u611f
p1685
aV\u7565\u504f
p1686
aV\u7d2e\u5be6
p1687
aV\u4e86\u9ede
p1688
aV\u56bc
aV\u52c1
aV\u4e0d\u932f
p1689
aV\u53f0\u7063
p1690
aV\u725b\u8089
p1691
aV\u4e00\u5411
p1692
aV\u8b1b\u6c42
p1693
aV\u6ef7
aV\u5230
aV\u5165\u5473
p1694
aV\u8edf\u5ae9
p1695
aV\u98a8\u683c
p1696
aV\u4e0d\u592a
p1697
aV\u8089
aV\u633a
aV\u5927\u584a
p1698
aV\u9eb5
aV\u7dda
aV\u90e8\u4efd
p1699
aV\u5012\u4ee4
p1700
aV\u9a5a\u8c54
p1701
aV\u9019\u7897
p1702
aV\u9eb5
aV\u62cd
aV\u4e45
aV\u9eb5
aV\u689d
aV\u6574\u500b
p1703
aV\u6e6f\u88e1\u9762
p1704
aV\u8edf\u721b
p1705
aV\u91d1\u9580
p1706
aV\u9eb5
aV\u7dda
aV\u7d30
aV\u9eb5
aV\u5403
aV\u76f8\u7576
p1707
aV\u5f48\u6027
p1708
aV\u9084\u633a
p1709
aV\u559c\u6b61
p1710
aV\u9eb5
aV\u91cf
aV\u597d\u591a
p1711
aV\u91cd\u9ede
p1712
aV\u6562\u4e0d\u6562
p1713
aV\u5403
aV\u8fa3
aV\u52a0
aV\u4e00\u5473
p1714
aV\u62db\u724c
p1715
aV\u9999\u8fa3
p1716
aV\u91ac
aV\u771f\u7684
p1717
aV\u8981\u8aaa
p1718
aV\u5403
aV\u904e\u6995
p1719
aV\u6995\u5712
p1720
aV\u9019\u624d
p1721
aV\u9748\u9b42
p1722
aV\u554a
aV\u4e0d\u7528
p1723
aV\u4e00\u5319
p1724
aV\u597d
aV\u76f4\u885d
p1725
aV\u9f3b\u982d
p1726
aV\u75db\u5feb
p1727
aV\u5192\u6c57
p1728
aV\u8fa3\u52c1
p1729
aV\u5403\u904e
p1730
aV\u4e4b\u5f8c
p1731
aV\u771f\u7684
p1732
aV\u4eba
aV\u60f3
aV\u8cb7
aV\u56de\u5bb6
p1733
aV\u5f8c\u97fb
p1734
aV\u9999\u6c23
p1735
aV\u8db3
aV\u91d1\u9580
p1736
aV\u5403\u904e
p1737
aV\u6700\u8fa3
p1738
aV\u8fa3\u6912\u91ac
p1739
aV\u9019\u5bb6
p1740
aV\u554a
aV\u53e6\u4e00\u5bb6
p1741
aV\u4e00\u6ef4
p1742
aV\u6dda\u6d41\u6eff\u9762
p1743
aV\u62db\u724c
p1744
aV\u62cc
aV\u9eb5
aV\u5143
aV\u770b\u5230
p1745
aV\u9019\u7897
p1746
aV\u6b63\u5b97
p1747
aV\u91d1\u9580
p1748
aV\u4efd\u91cf
p1749
aV\u5927\u7897
p1750
aV\u5be6\u5728
p1751
aV\u6eff\u610f
p1752
aV\u9eb5
aV\u8089\u91ac
p1753
aV\u73fe\u5728
p1754
aV\u4e0d\u5403
p1755
aV\u725b\u8089
p1756
aV\u4eba
aV\u9019\u7897
p1757
aV\u62cc
aV\u9eb5
aV\u8c6c\u8089
p1758
aV\u91ac
aV\u62cc
aV\u9eb5
aV\u88e1\u9762\u52a0
p1759
aV\u8d85\u591a
p1760
aV\u8d85\u591a\u8525
p1761
aV\u9322
aV\u6574\u5927
p1762
aV\u8d85\u591a
p1763
aV\u9178\u83dc
p1764
aV\u69a8\u83dc
p1765
aV\u8c6a\u9081
p1766
aV\u9019\u62cc
p1767
aV\u9eb5
aV\u8981\u9ede
p1768
aV\u8a18\u5f97
p1769
aV\u5148
aV\u554f\u904e
p1770
aV\u6709\u6c92\u6709
p1771
aV\u62c9
aV\u9eb5
aV\u5403
aV\u5230
aV\u8c6a\u9081
p1772
aV\u5be6\u5728
p1773
aV\u53e3\u611f
p1774
aV\u642d
aV\u62c9
aV\u9eb5
aV\u5920\u5473
p1775
aV\u8089\u91ac
p1776
aV\u9084\u591a\u52a0
p1777
aV\u8c46\u74e3
p1778
aV\u9e79
aV\u4e2d
aV\u5e36\u9ede
p1779
aV\u6de1\u6de1
p1780
aV\u751c
aV\u8c50\u5bcc
p1781
aV\u914d\u83dc
p1782
aV\u4e00\u53e3
p1783
aV\u76f8\u7576
p1784
aV\u5be6\u5728
p1785
aV\u5920\u5473
p1786
aV\u5012
aV\u725b\u8089
p1787
aV\u9eb5
aV\u5370\u8c61
p1788
aV\u6df1\u523b
p1789
aV\u9ede
aV\u9eb5
aV\u7dda
aV\u597d\u5403
p1790
aV\u611f\u89ba
p1791
aV\u5c11
aV\u611f\u89ba
p1792
aVXD
p1793
aV\u624b\u5de5
p1794
aV\u6c34\u9903
p1795
aV\u6bcf\u500b
p1796
aV\u5143
aV\u6bcf\u6b21
p1797
aV\u4e0b\u934b
p1798
aV\u9903\u5b50
p1799
aV\u725b\u8089
p1800
aV\u53ef\u60dc
p1801
aV\u8c6c\u8089
p1802
aV\u633a\u597d\u5403
p1803
aV\u5916\u76ae
p1804
aV\u5f48
aV\u6709\u52c1
p1805
aV\u9053
aV\u8c6c
aV\u5f8c\u817f
p1806
aV\u8089\u5e36
p1807
aV\u751c\u5473
p1808
aV\u9ad8\u9e97\u83dc
p1809
aV\u723d\u8106
p1810
aV\u4e0d\u932f
p1811
aV\u5c3a
aV\u540b
aV\u5927\u5c0f
p1812
aV\u4e0d\u8cf4
p1813
aV\u6d1b\u795e
p1814
aV\u82b1\u8336
p1815
aV\u5fd8\u8a18
p1816
aV\u591a\u5c11\u9322
p1817
aV\u590f\u5929
p1818
aV\u5230
aV\u91d1\u9580
p1819
aV\u73a9
aV\u771f\u7684
p1820
aV\u633a
aV\u9069\u5408
p1821
aV\u4e00\u7f50
p1822
aV\u4e3b\u8981
p1823
aV\u5750
aV\u5916\u9762
p1824
aV\u5f88\u71b1
p1825
aV\u9178
aV\u751c\u5ea6
p1826
aV\u5f88\u5920
p1827
aV\u4e00\u53e3
p1828
aV\u4e0b\u53bb
p1829
aV\u6574\u500b
p1830
aV\u6c81\u6dbc
p1831
aV\u76ba\u7709\u982d
p1832
aV\u6d88\u6691
p1833
aV\u9019\u5bb6
p1834
aV\u6995\u6995\u5712
p1835
aV\u61c9\u8a72
p1836
aV\u7b97\u662f
p1837
aV\u91d1\u9580
p1838
aV\u89c0\u5149
p1839
aV\u5fc5\u8a2a
p1840
aV\u540d\u5e97
p1841
aV\u672c\u4f86
p1842
aV\u64d4\u5fc3
p1843
aV\u8868\u73fe
p1844
aV\u592a
aV\u5e73\u5e38
p1845
aV\u60f3\u4e0d\u5230
p1846
aV\u725b\u8089
p1847
aV\u9eb5
aV\u8089
aV\u4e0d\u5230
p1848
aV\u9a5a\u8c54
p1849
aV\u4ee5\u5916
p1850
aV\u90e8\u4efd
p1851
aV\u9910\u9ede
p1852
aV\u633a
aV\u559c\u6b61
p1853
aV\u554f\u904e
p1854
aV\u4eba
aV\u5fc3\u5f97
p1855
aV\u6574\u9ad4
p1856
aV\u8868\u73fe
p1857
aV\u5c71\u5916\u5e97
p1858
aV\u91d1\u57ce
p1859
aV\u5e97
aV\u7a69\u5b9a
p1860
aV\u4e00\u4e9b
p1861
aV\u9019\u6b21
p1862
aV\u5403
aV\u5e97\u5bb6
p1863
aV\u592a\u591a
p1864
aV\u6a5f\u6703
p1865
aV\u8a66\u5230
p1866
aV\u9eb5
aV\u98df\u985e
p1867
aV\u8525\u6cb9\u9905
p1868
aV\u4e0b\u6b21
p1869
aV\u6a5f\u6703
p1870
aV\u518d
aV\u5230\u8a2a
p1871
aV\u91d1\u9580
p1872
aV\u61c9\u8a72
p1873
aV\u518d\u4f86
p1874
aV\u5403
aV\u770b\u770b
p1875
aV\u9eb5
aV\u9ede\u7684
p1876
aV\u8868\u73fe
p1877
aV\u7c21\u55ae
p1878
aV\u5fc3\u5f97
p1879
aV\u5206\u4eab
p1880
aV\u5ef6\u4f38
p1881
aV\u95b1\u8b80
p1882
aV\u91d1\u9580
p1883
aV\u7cfb\u5217
p1884
aV\u6c11\u5bbf
p1885
aVGUEST
p1886
aVHOUSE
p1887
aV\u76e4
aV\u5c71\u6751
p1888
aV\u91d1
aV\u5be7\u9109
p1889
aVwww
p1890
aVorange
p1891
aVdog
p1892
aVww
p1893
aVguest
p1894
aVhouse
p1895
aVhtml
p1896
aV\u91d1\u9580
p1897
aV\u6c38\u6625
p1898
aV\u5ee3\u6771
p1899
aV\u7ca5
aV\u8392\u5149
p1900
aV\u8def
aV\u91d1
aV\u57ce\u93ae
p1901
aVwww
p1902
aVorange
p1903
aVdog
p1904
aVblog
p1905
aVpost
p1906
aVhtml
p1907
aV\u91d1\u9580
p1908
aV\u91d1\u57ce
p1909
aV\u7121\u540d
p1910
aV\u81ea\u52a9
p1911
aV\u51b0\u5e97
p1912
aV\u6c11\u6b0a\u8def
p1913
aV\u91d1
aV\u57ce\u93ae
p1914
aVwww
p1915
aVorange
p1916
aVdog
p1917
aVhtml
p1918
aV\u91d1\u9580
p1919
aV\u5408\u6cc9
p1920
aV\u5e73\u50f9
p1921
aV\u4e2d\u5fc3
p1922
aV\u86cb\u9999\u86cb
p1923
aV\u72d7
aV\u7092
aV\u6ce1
aV\u9eb5
aV\u5c0f\u5f91
p1924
aV\u6751
aV\u91d1\u6e56
p1925
aV\u93ae
aVwww
p1926
aVorange
p1927
aVdog
p1928
aVblog
p1929
aVpost
p1930
aVhtml
p1931
aV\u53f0\u4e2d
p1932
aV\u9f8d\u83ef
p1933
aV\u95a3
aV\u5ddd\u5473
p1934
aV\u725b\u8089
p1935
aV\u9eb5
aV\u82f1\u624d
p1936
aV\u8def
aV\u897f\u5340
p1937
aVwww
p1938
aVorange
p1939
aVdog
p1940
aVsogo
p1941
aVhtml
p1942
aV\u53f0\u4e2d
p1943
aV\u725b\u4f6c
p1944
aV\u725b\u8089
p1945
aV\u9eb5
aV\u5c08\u9580\u5e97
p1946
aV\u8208\u5b89
p1947
aV\u8def
aV\u4e00\u6bb5
p1948
aV\u5317\u5c6f
p1949
aV\u5340
aVwww
p1950
aVorange
p1951
aVdog
p1952
aVblog
p1953
aVpost
p1954
aVhtml
p1955
aV\u53f0\u4e2d
p1956
aV\u9673
aV\u5e2b\u5085
p1957
aV\u725b\u8089
p1958
aV\u9eb5
aV\u5927\u738b
p1959
aV\u5de5\u696d\u5340
p1960
aV\u4e00\u8def
p1961
aV\u897f\u5c6f\u5340
p1962
aVwww
p1963
aVorange
p1964
aVdog
p1965
aVblog
p1966
aVpost
p1967
aVhtml
p1968
aV\u53f0\u4e2d
p1969
aV\u767e\u91cc\u9999
p1970
aV\u725b\u8089
p1971
aV\u9eb5
aV\u4e2d\u7f8e\u8857
p1972
aV\u897f\u5340
p1973
aVwww
p1974
aVorange
p1975
aVdog
p1976
aVblog
p1977
aVpost
p1978
aVhtml
p1979
aV\u53f0\u5357
p1980
aV\u8001\u9127
p1981
aV\u725b\u8089
p1982
aV\u9eb5
aV\u5927\u6210
p1983
aV\u8def
aV\u4e00\u6bb5
p1984
aV\u5357\u5340
p1985
aVwww
p1986
aVorange
p1987
aVdog
p1988
aVblog
p1989
aVpost
p1990
aVhtml
p1991
aV\u53f0\u5317
p1992
aV\u5289
aV\u5c71\u6771
p1993
aV\u725b\u8089
p1994
aV\u9eb5
aV\u958b\u5c01
p1995
aV\u8857
aV\u4e00\u6bb5
p1996
aV\u4e2d\u6b63\u5340
p1997
aV\u53f0\u5317
p1998
aV\u8eca\u7ad9
p1999
aVwww
p2000
aVorange
p2001
aVdog
p2002
aVblog
p2003
aVpost
p2004
aVhtml
p2005
aa(lp2006
V\u91d1\u9580
p2007
aV\u6350\u8840
p2008
aV\u7ad9
aV\u5df2\u7d93
p2009
aV\u64a4\u96e2
p2010
aV\u5f88\u4e45
p2011
aV\u91d1\u9580
p2012
aV\u4eba
aV\u71b1\u8840
p2013
aV\u4e0d\u6e1b
p2014
aV\u5c24\u5176
p2015
aV\u525b\u6eff
p2016
aV\u5341\u4e03\u6b72
p2017
aV\u9752\u5e74
p2018
aV\u5b78\u5b50
p2019
aV\u90e8\u4efd
p2020
aV\u5b78\u751f\u6703
p2021
aV\u6350\u8840
p2022
aV\u7d00\u5ff5
p2023
aV\u4eba\u751f
p2024
aV\u5341\u4e03\u6b72
p2025
aV\u7b2c\u4e00\u6b21
p2026
aV\u73fe\u5728
p2027
aV\u6350\u8840
p2028
aV\u7ad9
aV\u5df2\u7d93
p2029
aV\u71b1\u8840
p2030
aV\u71b1\u60c5
p2031
aV\u91d1\u9580
p2032
aV\u4eba
aV\u4ecd\u6703
p2033
aV\u5bc6\u5207
p2034
aV\u6ce8\u610f
p2035
aV\u91d1\u9580
p2036
aV\u5404\u9805
p2037
aV\u6350\u8840
p2038
aV\u5de1\u908f
p2039
aV\u6d3b\u52d5
p2040
aV\u6350\u8840
p2041
aV\u4e00\u888b
p2042
aV\u6551\u4eba\u4e00\u547d
p2043
aV\u8d08\u54c1
p2044
aV\u529b\u91cf
p2045
aV\u8ff7\u4eba
p2046
aV\u7b97\u662f
p2047
aV\u90e8\u4efd
p2048
aV\u71b1\u8840
p2049
aV\u4eba\u58eb
p2050
aV\u52d5\u529b
p2051
aV\u4f86\u6e90
p2052
aV\u4e00\u4f4d
p2053
aV\u6350\u8840\u4eba
p2054
aV\u6ce8\u610f
p2055
aV\u4e00\u4e0b
p2056
aV\u6350\u8840
p2057
aV\u76f8\u95dc
p2058
aV\u898f\u5b9a
p2059
aV\u6350\u8840
p2060
aV\u4e00\u888b
p2061
aV\u8aa4
aV\u4eba
aV\u4e00\u751f
p2062
aV\u5949
aV\u885b\u751f\u7f72
p2063
aV\u898f\u5b9a
p2064
aV\u6350\u8840
p2065
aV\u9700
aV\u651c\u5e36
p2066
aV\u8eab\u4efd\u8b49\u660e
p2067
aV\u6587\u4ef6
p2068
aV\u8eab\u4efd\u8b49
p2069
aV\u99d5\u7167
p2070
aV\u9644\u8a18
p2071
aV\u8eab\u4efd\u8b49
p2072
aV\u5b57\u865f
p2073
aV\u7167\u7247
p2074
aV\u8b49\u4ef6
p2075
aV\u7576\u60a8
p2076
aV\u521d\u6b65
p2077
aV\u9ad4\u9a57
p2078
aV\u5305\u62ec
p2079
aV\u554f\u8a3a
p2080
aV\u6e2c\u91cf
p2081
aV\u8840\u58d3
p2082
aV\u9ad4\u91cd
p2083
aV\u8840\u8272\u7d20
p2084
aV\u59cb\u5f97
p2085
aV\u63a5\u53d7
p2086
aV\u6350\u8840
p2087
aV\u5e74\u9f61
p2088
aV\u5341\u4e03\u6b72
p2089
aV\u4ee5\u4e0a
p2090
aV\u516d\u5341\u4e94\u6b72
p2091
aV\u4ee5\u4e0b
p2092
aV\u5065\u5eb7
p2093
aV\u60c5\u6cc1
p2094
aV\u826f\u597d
p2095
aV\u672a\u6eff
p2096
aV\u5341\u4e03\u6b72
p2097
aV\u61c9\u8996
p2098
aV\u9ad4\u80fd
p2099
aV\u72c0\u6cc1
p2100
aV\u4e26\u7d93
p2101
aV\u7236
aV\u6bcd
aV\u76e3\u8b77\u4eba
p2102
aV\u540c\u610f
p2103
aV\u59cb\u5f97
p2104
aV\u6350\u8840
p2105
aV\u903e
aV\u516d\u5341\u4e94\u6b72
p2106
aV\u9664\u61c9
p2107
aV\u5065\u5eb7
p2108
aV\u60c5\u6cc1
p2109
aV\u826f\u597d
p2110
aV\u5916
aV\u4e26\u61c9
p2111
aV\u53d6\u5f97
p2112
aV\u91ab\u5e2b
p2113
aV\u540c\u610f
p2114
aV\u59cb\u5f97
p2115
aV\u6350\u8840
p2116
aV\u9ad4\u91cd
p2117
aV\u5973\u6027
p2118
aV\u61c9
aV\u56db\u5341\u4e94
p2119
aV\u516c\u65a4
p2120
aV\u4ee5\u4e0a
p2121
aV\u7537\u6027
p2122
aV\u61c9
aV\u4e94\u5341
p2123
aV\u516c\u65a4
p2124
aV\u4ee5\u4e0a
p2125
aV\u6350
aV\u5206\u96e2
p2126
aV\u8853
aV\u8840\u5c0f\u677f
p2127
aV\u5206\u96e2
p2128
aV\u8853
aV\u767d\u8840\u7403
p2129
aV\u5206\u96e2
p2130
aV\u8853
aV\u8840\u6f3f
p2131
aV\u61c9
aV\u4e94\u5341
p2132
aV\u516c\u65a4
p2133
aV\u4ee5\u4e0a
p2134
aV\u9ad4\u6eab
p2135
aV\u53e3\u6eab
p2136
aV\u8d85\u904e
p2137
aV\u651d\u6c0f
p2138
aV\u4e09\u4e03
p2139
aV\u4e94\u5ea6
p2140
aV\u8840\u58d3
p2141
aV\u6536\u7e2e\u58d3
p2142
aV\u6beb\u7c73\u6c5e\u67f1
p2143
aV\u8212\u5f35\u58d3
p2144
aV\u6beb\u7c73\u6c5e\u67f1
p2145
aV\u8ddd\u96e2
p2146
aV\u4f4e\u65bc
p2147
aV\u9ad8\u65bc
p2148
aV\u6beb\u7c73\u6c5e\u67f1
p2149
aV\u9808\u7d93
p2150
aV\u91ab\u5e2b
p2151
aV\u8a31\u53ef
p2152
aV\u8840\u6db2
p2153
aV\u6aa2\u67e5
p2154
aV\u8840\u7d05\u7d20
p2155
aV\u7537\u6027
p2156
aV\u5341\u4e09
p2157
aV\u516c\u514b
p2158
aV\u4ee5\u4e0a
p2159
aV\u4f7f\u7528
p2160
aV\u786b\u9178\u9285
p2161
aV\u6cd5\u6642
p2162
aV\u8840\u6db2
p2163
aV\u6bd4\u91cd
p2164
aV1.054
p2165
aV\u5973\u6027
p2166
aV\u5341\u4e8c
p2167
aV\u516c\u514b
p2168
aV\u4ee5\u4e0a
p2169
aV\u4f7f\u7528
p2170
aV\u786b\u9178\u9285
p2171
aV\u6cd5\u6642
p2172
aV\u8840\u6db2
p2173
aV\u6bd4\u91cd
p2174
aV1.052
p2175
aV\u8840\u5c0f\u677f
p2176
aV\u6350
aV\u8840\u5c0f\u677f
p2177
aV\u8840\u5c0f\u677f
p2178
aV\u6578\u76ee
p2179
aV\u61c9
aVmm3
p2180
aV\u4ee5\u4e0a
p2181
aV\u767d\u8840\u7403
p2182
aV\u6350
aV\u767d\u8840\u7403
p2183
aV\u9846\u7c92
p2184
aV\u7403
aV\u6578\u76ee
p2185
aV\u61c9
aVmm3
p2186
aV\u4ee5\u4e0a
p2187
aV\u8840\u6f3f
p2188
aV\u7e3d
aV\u86cb\u767d
p2189
aV\u6350
aV\u8840\u6f3f
p2190
aV\u61c9\u65bc
p2191
aV\u9996\u6b21
p2192
aV\u6350\u8840
p2193
aV\u66a8
aV\u6bcf\u9694
p2194
aV\u534a\u5e74
p2195
aV\u52a0\u9a57
p2196
aV\u8840\u6f3f
p2197
aV\u7e3d
aV\u86cb\u767d
p2198
aV\u91cf
aV\u8840\u6f3f
p2199
aV\u7e3d
aV\u86cb\u767d
p2200
aV\u61c9
aV6g
p2201
aVd1
p2202
aV\u4ee5\u4e0a
p2203
aV\u6350\u8840
p2204
aV\u91cf
aV\u6350\u8840
p2205
aV\u9593\u9694
p2206
aV\u6bcf\u6b21
p2207
aV\u6350\u8840
p2208
aV\u4e8c\u4e94
p2209
aV\u6beb\u5347
p2210
aV\u539f\u5247
p2211
aV\u9ad4\u91cd
p2212
aV\u516c\u65a4
p2213
aV\u4ee5\u4e0a\u8005
p2214
aV\u6bcf\u6b21
p2215
aV\u6350\u8840
p2216
aV\u6beb\u5347
p2217
aV\u6bcf\u6b21
p2218
aV\u6350\u8840
p2219
aV\u4e8c\u4e94
p2220
aV\u6beb\u5347
p2221
aV\u6350\u8840
p2222
aV\u9593\u9694
p2223
aV\u61c9\u70ba
p2224
aV\u4e8c\u500b\u6708
p2225
aV\u4ee5\u4e0a
p2226
aV\u6bcf\u6b21
p2227
aV\u6350\u8840
p2228
aV\u6beb\u5347
p2229
aV\u6350\u8840
p2230
aV\u9593\u9694
p2231
aV\u61c9\u70ba
p2232
aV\u4e09\u500b
p2233
aV\u6708
aV\u4ee5\u4e0a
p2234
aV\u7537\u6027
p2235
aV\u5e74
aV\u6350\u8840
p2236
aV\u91cf
aV\u61c9
aV\u6beb\u5347
p2237
aV\u4ee5\u5167
p2238
aV\u5973\u6027
p2239
aV\u5e74
aV\u6350\u8840
p2240
aV\u91cf
aV\u61c9
aV\u6beb\u5347
p2241
aV\u4ee5\u5167
p2242
aV\u6350
aV\u5206\u96e2
p2243
aV\u8853
aV\u8840\u5c0f\u677f
p2244
aV\u5206\u96e2
p2245
aV\u8853
aV\u767d\u8840\u7403
p2246
aV\u5206\u96e2
p2247
aV\u8853
aV\u8840\u6f3f
p2248
aV\u6bcf\u6b21
p2249
aV\u4e4b\u9593
p2250
aV\u9694\u70ba
p2251
aV\u661f\u671f
p2252
aV\u6350
aV\u5206\u96e2
p2253
aV\u8853
aV\u8840\u6f3f
p2254
aV\u91cf
aV\u6bcf\u6b21
p2255
aV\u4ee5\u4e94
p2256
aV\u6beb\u5347
p2257
aV\u70ba\u9650
p2258
aV\u6350
aV\u8840\u6f3f
p2259
aV\u91cf
aV\u8d85\u904e
p2260
aV\u5341\u4e8c
p2261
aV\u516c\u5347
p2262
aV\u6350\u8840
p2263
aV\u5de6\u5217
p2264
aV\u60c5\u5f62
p2265
aV\u61c9
aV\u66ab\u7de9
p2266
aV\u6350\u8840
p2267
aV\u5a66\u5973
p2268
aV\u61f7\u5b55
p2269
aV\u4e2d
aV\u7522\u5f8c
p2270
aV\u542b
aV\u6d41\u7522
p2271
aV\u5f8c
aV\u516d\u500b\u6708
p2272
aV\u4ee5\u5167
p2273
aV\u624b\u8853
p2274
aV\u672a\u6eff
p2275
aV\u4e00\u5e74
p2276
aV\u4e00\u5e74
p2277
aV\u66fe
aV\u63a5\u53d7
p2278
aV\u8f38\u8840
p2279
aVB\u578b
p2280
aV\u809d\u708e
p2281
aV\u8868\u9762\u6297\u539f
p2282
aV\u6aa2\u67e5
p2283
aV\u5448
aV\u967d\u6027\u53cd\u61c9
p2284
aV\u56db\u9031
p2285
aV\u63a5\u7a2e
p2286
aV\u9ebb\u75b9
p2287
aV\u5fb7\u570b
p2288
aV\u9ebb\u75b9
p2289
aV\u816e\u817a\u708e
p2290
aV\u5c0f\u5152
p2291
aV\u9ebb\u75fa
p2292
aV\u53e3\u670d
p2293
aV\u6d3b\u6027
p2294
aV\u6e1b\u6bd2\u75ab\u82d7
p2295
aV\u516d\u500b\u6708
p2296
aV\u66fe
aV\u7f79\u60a3
p2297
aV\u809d\u708e
p2298
aV\u5bc6\u5207\u63a5\u89f8
p2299
aV\u809d\u708e
p2300
aV\u75c5\u60a3\u8005
p2301
aV\u73fe\u60a3
p2302
aV\u6885\u6bd2
p2303
aV\u6d3b\u52d5\u6027
p2304
aV\u7d50\u6838\u75c5
p2305
aV\u7cd6\u5c3f\u75c5
p2306
aV\u5fc3\u81df\u75c5
p2307
aV\u6d88\u5316\u9053
p2308
aV\u6f70\u760d
p2309
aV\u51fa\u8840
p2310
aV\u9ad8\u8840\u58d3
p2311
aV\u814e\u81df
p2312
aV\u75c5
aV\u54ee\u5598
p2313
aV\u611f\u5192
p2314
aV\u6025\u6027
p2315
aV\u611f\u67d3
p2316
aV\u50b3\u67d3\u75c5
p2317
aV\u904e\u654f
p2318
aV\u75c5\u75c7
p2319
aV\u7627\u75be
p2320
aV\u75ab\u5340
p2321
aV\u56de\u570b
p2322
aV\u4e00\u5e74
p2323
aV\u66ab\u7de9
p2324
aV\u6350\u8840
p2325
aV\u66fe
aV\u4e09\u5e74
p2326
aV\u7f79\u60a3
p2327
aV\u7627\u75be
p2328
aV\u66fe
aV\u4e03\u5341\u4e8c
p2329
aV\u5c0f\u6642
p2330
aV\u62d4\u7259
p2331
aV\u66fe
aV\u4e94\u5929
p2332
aV\u670d\u7528
p2333
aV\u542b
aVAspirin
p2334
aV\u985e\u85e5\u7269
p2335
aV\u53ef\u6291\u5236
p2336
aV\u8840\u5c0f\u677f
p2337
aV\u529f\u80fd
p2338
aV\u85e5\u7269
p2339
aV\u6350
aV\u8840\u5c0f\u677f
p2340
aV\u5341
aV\u578b
aV\u809d\u708e
p2341
aV\u75c5\u6bd2
p2342
aV\u6297\u9ad4
p2343
aV\u6aa2\u67e5
p2344
aV\u5448
aV\u967d\u6027\u53cd\u61c9
p2345
aV\u5341\u4e00
p2346
aV\u4eba\u985e
p2347
aV\u55dc
aV\u6dcb\u5df4\u7403
p2348
aV\u75c5\u6bd2
p2349
aV\u7b2c\u4e00
p2350
aV\u578b
aVHTLV
p2351
aV\u6297\u9ad4
p2352
aV\u6aa2\u67e5
p2353
aV\u5448
aV\u967d\u6027\u53cd\u61c9
p2354
aV\u5341\u4e8c
p2355
aV\u6c11\u570b
p2356
aV\u5341\u4e5d\u5e74
p2357
aV\u516b\u5341\u4e94
p2358
aV\u5e74\u9593
p2359
aV\u66fe
aV\u82f1\u570b
p2360
aV\u8f38\u8840
p2361
aV\u66fe
aV\u82f1\u570b
p2362
aV\u65c5\u904a
p2363
aV\u5c45\u7559
p2364
aV\u6642\u9593
p2365
aV\u5408\u8a08
p2366
aV\u8d85\u904e
p2367
aV\u4e09\u500b
p2368
aV\u6708\u8005
p2369
aV\u6c11\u570b
p2370
aV\u5341\u4e5d\u5e74
p2371
aV\u4ee5\u5f8c
p2372
aV\u66fe
aV\u6b50\u6d32
p2373
aV\u65c5\u904a
p2374
aV\u5c45\u7559
p2375
aV\u6642\u9593
p2376
aV\u5408\u8a08
p2377
aV\u8d85\u904e
p2378
aV\u4e94\u5e74
p2379
aV\u5341\u4e09
p2380
aV\u901a\u5831
p2381
aV\u56b4\u91cd
p2382
aV\u6025\u6027
p2383
aV\u547c\u5438\u9053
p2384
aV\u75c7\u5019\u7fa4
p2385
aV\u7591\u4f3c
p2386
aV\u75c5\u4f8b
p2387
aV\u6cbb\u7642
p2388
aV\u75ca\u7652
p2389
aV\u5f8c
aV\u672a
aV\u903e
aV\u4e09\u500b
p2390
aV\u6708
aV\u5167\u8005
p2391
aV\u5341\u56db
p2392
aV\u66fe
aV\u56b4\u91cd
p2393
aV\u6025\u6027
p2394
aV\u547c\u5438\u9053
p2395
aV\u75c7\u5019\u7fa4
p2396
aV\u7591\u4f3c
p2397
aV\u75c5\u4f8b
p2398
aV\u5bc6\u5207\u63a5\u89f8
p2399
aV\u6700\u5f8c
p2400
aV\u63a5\u89f8
p2401
aV\u65e5\u8d77
p2402
aV\u4e00\u500b\u6708
p2403
aV\u5167\u8005
p2404
aV\u5341\u4e94
p2405
aV\u81ea\u6709
p2406
aV\u5730\u5340\u6027
p2407
aV\u50b3\u64ad
p2408
aV\u56b4\u91cd
p2409
aV\u6025\u6027
p2410
aV\u547c\u5438\u9053
p2411
aV\u75c7\u5019\u7fa4
p2412
aV\u5730\u5340
p2413
aV\u56de\u570b
p2414
aV\u5f8c
aV\u4e00\u500b\u6708
p2415
aV\u5167\u8005
p2416
aV\u6350\u8840
p2417
aV\u5de6\u5217
p2418
aV\u60c5\u5f62
p2419
aV\u6c38\u4e0d
p2420
aV\u6350\u8840
p2421
aV\u66fe\u60a3
p2422
aV\u60e1\u6027\u816b\u7624
p2423
aV\u767d\u8840\u75c5
p2424
aV\u91ab\u5e2b
p2425
aV\u8a8d\u70ba
p2426
aV\u6c38\u4e45
p2427
aV\u6350\u8840
p2428
aV\u66fe
aV\u51fa\u8840
p2429
aV\u62bd
aV\u75d9
aV\u660f\u8ff7
p2430
aV\u75c5\u53f2
p2431
aV\u66fe
aV\u5438\u6bd2
p2432
aV\u6162\u6027
p2433
aV\u9152\u7cbe\u4e2d\u6bd2
p2434
aVAIDS
p2435
aV\u9ad8
aV\u5371\u96aa
p2436
aV\u7fa4\u8005
p2437
aV\u5305\u62ec
p2438
aV\u975c\u8108\u6ce8\u5c04
p2439
aV\u85e5\u7269
p2440
aV\u6210\u766e\u8005
p2441
aV\u540c\u6027\u6200
p2442
aV\u96d9\u6027\u6200
p2443
aV\u8840\u53cb\u75c5
p2444
aV\u60a3
aV\u66fe
aVAIDS
p2445
aV\u60a3\u8005
p2446
aV\u524d\u6b3e
p2447
aV\u6240\u7a31
p2448
aVAIDS
p2449
aV\u9ad8
aV\u5371\u96aa
p2450
aV\u7fa4
aV\u6027\u4f34\u4fb6
p2451
aV\u611b\u6ecb\u75c5
p2452
aV\u6bd2
aV\u7b2c\u4e00
p2453
aV\u578b
aV\u7b2c\u4e8c
p2454
aV\u578b
aVHIV
p2455
aVHIV
p2456
aVII
p2457
aV\u6297\u9ad4
p2458
aV\u6aa2\u67e5
p2459
aV\u78ba\u8a8d
p2460
aV\u5448
aV\u967d\u6027\u53cd\u61c9
p2461
aV\u66fe
aV\u7f79\u60a3
p2462
aV\u5eab
aV\u8cc8\u6c0f
p2463
aV\u75c5\u8005
p2464
aVCJD
p2465
aV\u66fe
aV\u6ce8\u5c04
p2466
aV\u4eba\u985e
p2467
aV\u8166\u4e0b\u5782\u9ad4
p2468
aV\u751f\u9577
p2469
aV\u8377\u723e\u8499
p2470
aV\u66fe
aV\u6ce8\u5c04
p2471
aV\u4eba\u985e
p2472
aV\u8166
aV\u4e0b
aV\u5782\u9ad4
p2473
aV\u89aa
aV\u751f\u6b96\u817a
p2474
aV\u7d20
aVhuman
p2475
aVpituitary
p2476
aVgonadotropins
p2477
aV\u66fe
aV\u6ce8\u5c04
p2478
aV\u725b
aV\u80f0\u5cf6\u7d20
p2479
aV\u751f\u7269\u88fd\u5291
p2480
aV\u66fe
aV\u63a5\u53d7
p2481
aV\u786c
aV\u8166\u819c
p2482
aV\u79fb\u690d
p2483
aV\u5bb6\u65cf
p2484
aV\u4e2d\u6709\u5eab
p2485
aV\u8cc8\u6c0f\u75c5
p2486
aVCJD
p2487
aV\u60a3\u8005
p2488
aV\u4e2d\u592e
p2489
aV\u885b\u751f
p2490
aV\u4e3b\u7ba1\u6a5f\u95dc
p2491
aV\u898f\u5b9a
p2492
aV\u5065\u5eb7
p2493
aV\u6a19\u6e96
p2494
aV\u9805\u76ee
p2495
aa(lp2496
V\u5df2\u7d93
p2497
aV\u77e5\u9053
p2498
aV\u9ad8\u5751
p2499
aV\u725b\u8089\u4e7e
p2500
aV\u91d1\u9580
p2501
aV\u725b
aV\u826f\u91d1
p2502
aV\u4e3b\u6253
p2503
aV\u91d1\u9580
p2504
aV\u725b
aV\u4e26\u4e0d
p2505
aV\u5b8c\u5168
p2506
aV....
p2507
aV\u5c0f
aV\u5931\u671b
p2508
aV\u65b0\u805e
p2509
aV\u88e1\u7684
p2510
aV\u50f9\u683c
p2511
aV\u826f\u91d1\u7b97
p2512
aV\u8cb4\u8036
p2513
aV\u6700\u4f4e
p2514
aV\u4e00\u500d
p2515
aV\u50f9\u683c
p2516
aV\u8a71
aV\u8aaa
aV\u725b\u8089
p2517
aV\u5403
aV\u725b
aV\u6bd4\u8f03
p2518
aV\u5b89\u5168
p2519
aV\u6211\u6015
p2520
aV\u72c2\u725b\u75c7
p2521
aV\u7626\u8089\u7cbe
p2522
aV\u6d88\u57fa\u6703
p2523
aV\u65b0\u805e\u7a3f
p2524
aVwww
p2525
aVconsumers
p2526
aVorg
p2527
aVunit412
p2528
aVaspx
p2529
aV\u9ec3
aV\u725b
aV\u91d1\u9580
p2530
aV\u725b\u8089\u4e7e
p2531
aV\u7d14\u5728
p2532
aV\u5730\u9ec3
p2533
aV\u725b\u8089
p2534
aV\u767c\u4f48
p2535
aV\u65e5\u671f
p2536
aV2013.01
p2537
aV\u9644\u4ef6
p2538
aV\u5e74\u95dc
p2539
aV\u5c07\u5c46
p2540
aV\u5230
aV\u63a1\u8cb7
p2541
aV\u5e74\u8ca8
p2542
aV\u6642\u7bc0
p2543
aV\u8d70\u9032
p2544
aV\u91cf
aV\u8ca9\u5e97
p2545
aV\u8ce3\u5834
p2546
aV\u6eff\u6eff\u7684
p2547
aV\u98df\u7269
p2548
aV\u8ca8\u67b6
p2549
aV\u5c31\u5c6c
p2550
aV\u96f6\u98df
p2551
aV\u6ac3
aV\u6700\u8b93\u4eba
p2552
aV\u52d5\u5fc3
p2553
aV\u56de\u60f3
p2554
aV\u5c0f\u6642\u5019
p2555
aV\u904e\u5e74
p2556
aV\u671f\u9593
p2557
aV\u6700
aV\u671f\u5f85
p2558
aV\u9577\u9577\u7684
p2559
aV\u5047\u671f
p2560
aV\u7d05\u5305
p2561
aV\u4e4b\u5916
p2562
aV\u64fa\u653e
p2563
aV\u6eff\u684c
p2564
aV\u7cd6\u679c
p2565
aV\u96f6\u98df
p2566
aV\u5c24\u5176
p2567
aV\u725b\u8089\u4e7e
p2568
aV\u50f9\u683c
p2569
aV\u4e0d\u6590
p2570
aV\u552f\u6709
p2571
aV\u9022\u5e74\u904e\u7bc0
p2572
aV\u7238\u7238\u5abd\u5abd
p2573
aV\u6368\u5f97
p2574
aV\u8cb7
aV\u4e00\u4e9b
p2575
aV\u4e9b
aV\u6253\u7259\u796d
p2576
aV\u6d88\u8cbb\u8005
p2577
aV\u751f\u6d3b
p2578
aV\u6c34\u5e73
p2579
aV\u63d0\u9ad8
p2580
aV\u5ee0\u5546
p2581
aV\u7d1b\u7d1b
p2582
aV\u63a8\u9673\u51fa\u65b0
p2583
aV\u53e3\u5473
p2584
aV\u589e\u591a
p2585
aV\u5916
aV\u5e73\u50f9
p2586
aV\u725b\u8089\u4e7e
p2587
aV\u4e0d\u5230
p2588
aV\u5143
aV\u8cb7\u4f86
p2589
aV\u89e3
aV\u5634\u995e
p2590
aV\u6210\u70ba
p2591
aV\u5e74\u8ca8
p2592
aV\u65b0\u5bf5
p2593
aV\u8fd1\u5e7e\u5e74
p2594
aV\u7f8e\u570b
p2595
aV\u725b\u8089
p2596
aV\u8f38\u5165
p2597
aV\u53f0\u7063
p2598
aV\u5176\u9593
p2599
aV\u767c\u751f
p2600
aV\u6f5b\u85cf
p2601
aV\u7626\u8089\u7cbe
p2602
aV\u72c2\u725b\u75c7
p2603
aV\u98a8\u96aa
p2604
aV\u722d\u8b70
p2605
aV\u885b\u751f\u7f72
p2606
aV\u53bb
aV\u5e74
aV\u516c\u544a
p2607
aV\u751f\u7522\u88fd\u9020
p2608
aV\u542b
aV\u725b\u8089
p2609
aV\u539f\u6599
p2610
aV\u5305\u88dd
p2611
aV\u98df\u54c1
p2612
aV\u725b\u8089\u4e7e
p2613
aV\u725b\u8089
p2614
aV\u6ce1
aV\u9eb5
aV\u9808
aV\u6e05\u695a
p2615
aV\u6a19\u793a
p2616
aV\u725b\u8089
p2617
aV\u539f\u6599
p2618
aV\u539f\u7522\u5730
p2619
aV\u570b
aV\u6216\u65bc
p2620
aV\u5305\u88dd\u888b
p2621
aV\u589e\u52a0
p2622
aV\u6a19\u793a
p2623
aV\u725b\u8089
p2624
aV\u4f86\u81ea
p2625
aV\u7b49\u540c
p2626
aV\u610f\u7fa9
p2627
aV\u5b57\u6a23
p2628
aV\u539f\u7522\u5730
p2629
aV\u6a19\u793a
p2630
aV\u7b26\u5408
p2631
aV\u5f37\u5236
p2632
aV\u6a19\u793a
p2633
aV\u898f\u5b9a
p2634
aV\u5e74\u95dc
p2635
aV\u6d88\u57fa\u6703
p2636
aV\u5143\u6708
p2637
aV\u4e2d\u65ec
p2638
aV\u5e02\u9762
p2639
aV\u8d85\u5546
p2640
aV\u767e\u8ca8\u516c\u53f8
p2641
aV\u8ce3\u5834
p2642
aV\u54c1\u724c
p2643
aV\u5c08\u8ce3\u5e97
p2644
aV\u8cfc\u8cb7
p2645
aV\u4ef6
aV\u725b\u8089\u4e7e
p2646
aV\u6a23\u54c1
p2647
aV\u9032\u884c
p2648
aV\u76f8\u95dc
p2649
aV\u6a19\u793a
p2650
aV\u6aa2\u8996
p2651
aV\u6d88\u8cbb\u8005
p2652
aV\u628a\u95dc
p2653
aV\u6bcf\u767e
p2654
aV\u516c\u514b
p2655
aV\u50f9\u683c
p2656
aV\u4ecb\u65bc
p2657
aV\u5143
aV\u4e4b\u9593
p2658
aV\u672c\u6b21
p2659
aV\u8cfc\u8cb7
p2660
aV\u4ef6
aV\u6a23\u54c1
p2661
aV\u50f9\u683c
p2662
aV\u4ecb\u65bc
p2663
aV\u5143
aV\u4e4b\u9593
p2664
aV\u63db\u7b97
p2665
aV\u6210
aV\u6bcf\u767e
p2666
aV\u516c\u514b
p2667
aV\u50f9\u683c
p2668
aV\u4ecb\u65bc
p2669
aV\u5143
aV\u4e4b\u9593
p2670
aV\u55ae\u50f9
p2671
aV\u6700\u9ad8\u8005
p2672
aV\u865f
aV\u99a5\u5fa1
p2673
aV\u8fa3\u5473
p2674
aV\u725b\u8089\u5e72
p2675
aV\u55ae\u50f9
p2676
aV\u6700\u4f4e
p2677
aV\u865f
aV\u9ebb\u8fa3
p2678
aV\u725b\u8089\u4e7e
p2679
aV\u65b0
aV\u6771\u967d
p2680
aV\u8abf\u67e5
p2681
aV\u88e1
aV\u767c\u73fe
p2682
aV\u5ee0\u5546
p2683
aV\u59d4\u8a17
p2684
aV\u4ee3
aV\u88fd
aV\u60c5\u5f62
p2685
aV\u540c\u6a23
p2686
aV\u91d1\u5b89
p2687
aV\u8a18
aV\u516c\u53f8
p2688
aV\u751f\u7522
p2689
aV\u865f
aV\u9ed1\u80e1\u6912
p2690
aV\u725b\u8089\u4e7e
p2691
aV\u6bcf\u767e
p2692
aV\u516c\u514b
p2693
aV\u5143
aV\u865f
aV\u4e94\u9999
p2694
aV\u725b\u8089\u4e7e
p2695
aV\u9802\u597d
p2696
aV\u81ea\u6709
p2697
aV\u54c1\u724c
p2698
aV\u5143
aV\u65b0
aV\u6771\u967d
p2699
aV\u4ee3
aV\u88fd
aV\u865f
aVSELECT
p2700
aV\u8fa3\u5473
p2701
aV\u725b\u8089\u4e7e
p2702
aV\u5143
aV\u865f
aV\u9ebb\u8fa3
p2703
aV\u725b\u8089\u4e7e
p2704
aV\u5143
aV\u826f\u91d1
p2705
aV\u516c\u53f8
p2706
aV\u751f\u7522
p2707
aV\u865f\u826f\u91d1
p2708
aV\u9ad8\u7cb1
p2709
aV\u725b\u8089\u4e7e
p2710
aV\u539f\u5473
p2711
aV\u5143
aV\u59d4\u8a17
p2712
aV\u54c1\u724c
p2713
aV\u865f
aV\u9ad8\u7cb1
p2714
aV\u725b\u8089\u4e7e
p2715
aV\u539f\u5473
p2716
aV\u5143
aV\u5fae
aV\u5dee\u8ddd
p2717
aV\u8cb4
aV\u4fbf\u5b9c
p2718
aV\u503c\u5f97\u6ce8\u610f
p2719
aV\u65b0
aV\u6771\u967d
p2720
aV\u88fd\u9020
p2721
aV\u672c\u5bb6
p2722
aV\u5546\u54c1
p2723
aV\u4fbf\u5b9c
p2724
aV\u6bcf\u767e
p2725
aV\u516c\u514b
p2726
aV\u5143
aV\u9032\u5230
p2727
aV\u7cfb\u7d71
p2728
aV\u6bcf\u767e
p2729
aV\u516c\u514b
p2730
aV\u5143
aV\u8ce3
aV\u8cb4\u4e9b
p2731
aV\u6d88\u8cbb\u8005
p2732
aV\u611b\u597d
p2733
aV\u6b64\u5473
p2734
aV\u8cb7
aV\u672c\u5bb6
p2735
aV\u5546\u54c1
p2736
aV\u4fbf\u5b9c
p2737
aV\u9ede
aV\u5168\u6578
p2738
aV\u6a23\u54c1
p2739
aV\u7b26\u5408
p2740
aV\u98df\u54c1\u885b\u751f
p2741
aV\u7ba1\u7406\u6cd5
p2742
aV\u689d\u898f
p2743
aV\u5b9a\u6d88
p2744
aV\u57fa\u6703
p2745
aV\u53bb\u5e74
p2746
aV\u8fb2\u66c6
p2747
aV\u5e74\u524d
p2748
aV\u8abf\u67e5
p2749
aV\u4ef6
aV\u5305\u62ec
p2750
aV\u9999\u8178
p2751
aV\u4ef6
aV\u8c6c\u8089
p2752
aV\u4e7e
aV\u4ef6
aV\u725b\u8089\u4e7e
p2753
aV\u4ef6
aV\u5546\u54c1
p2754
aV\u4ef6
aV\u5546\u54c1
p2755
aV\u7b26\u5408
p2756
aV\u98df\u54c1\u885b\u751f
p2757
aV\u7ba1\u7406\u6cd5
p2758
aV\u689d\u898f
p2759
aV\u4eca\u5e74
p2760
aV\u518d\u6b21
p2761
aV\u8abf\u67e5
p2762
aV\u4ef6
aV\u6a23\u54c1
p2763
aV\u6a19\u793a
p2764
aV\u7b26\u5408\u898f\u5b9a
p2765
aV\u986f\u898b
p2766
aV\u696d\u8005
p2767
aV\u6d88\u8cbb\u8005
p2768
aV\u77e5
aV\u6b0a\u5229
p2769
aV\u4e0b\u529f\u592b
p2770
aV\u503c\u5f97
p2771
aV\u8b9a\u8cde
p2772
aV\u6aa2\u8996
p2773
aV\u904e\u7a0b
p2774
aV\u767c\u73fe
p2775
aV\u865f
aV\u539f\u5473
p2776
aV\u725b\u8089\u4e7e
p2777
aV\u6210\u5206
p2778
aV\u4e2d
aV\u6a19\u793a
p2779
aV\u8abf\u5473
p2780
aV\u7d20
aV\u6210\u5206
p2781
aV\u4e0d\u5f97\u800c\u77e5
p2782
aV\u5efa\u8b70
p2783
aV\u696d\u8005
p2784
aV\u61c9
aV\u6e05\u695a
p2785
aV\u8aaa\u660e
p2786
aV\u6d88\u8cbb\u8005
p2787
aV\u5403
aV\u5b89\u5fc3
p2788
aV\u53f0\u7063
p2789
aV\u91d1\u9580
p2790
aV\u725b\u8089\u4e7e
p2791
aV\u4f86\u81ea
p2792
aV\u6fb3\u6d32
p2793
aV\u884c\u653f\u9662
p2794
aV\u885b\u751f\u7f72
p2795
aV\u5e74
aV\u6708
aV\u65e5
aV\u516c\u544a
p2796
aV\u540c\u5e74
p2797
aV\u6708
aV\u65e5\u8d77
p2798
aV\u751f\u7522\u88fd\u9020
p2799
aV\u542b
aV\u725b\u8089
p2800
aV\u539f\u6599
p2801
aV\u5305\u88dd
p2802
aV\u98df\u54c1
p2803
aV\u725b\u8089\u4e7e
p2804
aV\u725b\u8089
p2805
aV\u6ce1
aV\u9eb5
aV\u9808
aV\u6e05\u695a
p2806
aV\u6a19\u793a
p2807
aV\u725b\u8089
p2808
aV\u539f\u6599
p2809
aV\u539f\u7522\u5730
p2810
aV\u570b
aV\u6216\u65bc
p2811
aV\u5305\u88dd\u888b
p2812
aV\u589e\u52a0
p2813
aV\u6a19\u793a
p2814
aV\u725b\u8089
p2815
aV\u4f86\u81ea
p2816
aV\u7b49\u540c
p2817
aV\u610f\u7fa9
p2818
aV\u5b57\u6a23
p2819
aV\u539f\u7522\u5730
p2820
aV\u6a19\u793a
p2821
aV\u7b26\u5408
p2822
aV\u5f37\u5236
p2823
aV\u6a19\u793a
p2824
aV\u898f\u5b9a
p2825
aV\u672c\u6b21
p2826
aV\u8abf\u67e5
p2827
aV\u4ef6
aV\u6a23\u54c1
p2828
aV\u4e2d
aV\u4ef6
aV\u725b\u8089
p2829
aV\u7522\u5730
p2830
aV\u4f86\u81ea
p2831
aV\u6fb3\u6d32
p2832
aV\u4ef6
aV\u4f86\u81ea
p2833
aV\u6fb3\u6d32
p2834
aV\u7d10\u897f\u862d
p2835
aV\u4ef6
aV\u4f86\u81ea
p2836
aV\u91d1\u9580
p2837
aV\u6fb3\u6d32
p2838
aV\u5168\u6578
p2839
aV\u7686
aV\u7121
aV\u5b8c\u5168
p2840
aV\u4f7f\u7528
p2841
aV\u5730\u53f0
p2842
aV\u7063\u6216
p2843
aV\u91d1\u9580
p2844
aV\u725b\u8089
p2845
aV\u4eba
aV\u9a5a\u8a1d
p2846
aV\u7d66\u4eba
p2847
aV\u5370\u8c61
p2848
aV\u91d1\u9580
p2849
aV\u725b\u8089\u4e7e
p2850
aV\u4e26\u4e0d
p2851
aV\u5b8c\u5168
p2852
aV\u4f7f\u7528
p2853
aV\u91d1\u9580
p2854
aV\u9ec3\u725b
p2855
aV\u8089
aV\u88fd\u9020
p2856
aV\u5982\u9ad8\u5751
p2857
aV\u7522\u5730
p2858
aV\u7d10\u897f\u862d
p2859
aV\u6fb3\u6d32
p2860
aV\u8fb2\u838a
p2861
aV\u7522\u5730
p2862
aV\u6fb3\u6d32
p2863
aV\u826f\u91d1
p2864
aV\u7522\u5730
p2865
aV\u91d1\u9580
p2866
aV\u6fb3\u6d32
p2867
aV\u4e09\u500b
p2868
aV\u54c1\u724c
p2869
aV\u865f
aV\u826f\u91d1
p2870
aV\u9ad8\u7cb1
p2871
aV\u725b\u8089\u4e7e
p2872
aV\u539f\u5473
p2873
aV\u865f
aV\u9ad8\u7cb1
p2874
aV\u725b\u8089\u4e7e
p2875
aV\u539f\u5473
p2876
aV\u7522\u5730
p2877
aV\u6a19\u793a
p2878
aV\u91d1\u9580
p2879
aV\u6fb3\u6d32
p2880
aV\u5305\u88dd
p2881
aV\u516c\u53f8
p2882
aV\u7db2\u7ad9
p2883
aV\u537b
aV\u8a3b\u660e
p2884
aV\u91d1\u9580
p2885
aV\u552f\u4e00
p2886
aV\u81ea\u7267
p2887
aV\u9ad8\u7cb1
p2888
aV\u725b
aV\u88fd
aV\u8089\u4e7e
p2889
aV\u7136\u5176
p2890
aV\u725b\u8089
p2891
aV\u7522\u5730
p2892
aV\u537b\u662f
p2893
aV\u5305\u62ec
p2894
aV\u6fb3\u6d32
p2895
aV\u91d1\u9580
p2896
aV\u5169
aV\u5730\u5340
p2897
aV\u8089\u54c1
p2898
aV\u4f86\u6e90
p2899
aV\u6d88\u8cbb\u8005
p2900
aV\u79c9\u6301
p2901
aV\u652f\u6301
p2902
aVMIT
p2903
aV\u6230\u5730
p2904
aV\u91d1\u9580
p2905
aV\u7279\u6709
p2906
aV\u9ec3\u725b
p2907
aV\u5fc3\u60c5
p2908
aV\u9078\u8cfc
p2909
aV\u725b\u8089\u4e7e
p2910
aV\u537b
aV\u77e5\u9053
p2911
aV\u539f\u4f86
p2912
aV\u4e00\u5207\u90fd\u662f
p2913
aV\u4e00\u5834
p2914
aV\u7f8e\u9e97
p2915
aV\u8aa4\u6703
p2916
aV\u503c\u5f97
p2917
aV\u73a9\u5473
p2918
aV\u8fb2\u59d4\u6703
p2919
aV\u6240\u5c6c
p2920
aV\u7db2\u7ad9
p2921
aV\u8fb2\u696d
p2922
aV\u6613\u904a\u7db2
p2923
aV\u7db2\u5740
p2924
aVezgo
p2925
aVcoa
p2926
aVgov
p2927
aVview
p2928
aVphp
p2929
aVtheme
p2930
aVagro
p2931
aVproduct
p2932
aVflora36
p2933
aVcity
p2934
aVclass
p2935
aVAP01
p2936
aVAP13
p2937
aV\u8a3b\u660e
p2938
aV\u91d1\u9580
p2939
aV\u725b\u8089\u4e7e
p2940
aV\u826f\u91d1
p2941
aV\u672c\u5730
p2942
aV\u6240\u7522
p2943
aV\u9ec3\u725b
p2944
aV\u8089\u70ba
p2945
aV\u539f\u6599
p2946
aV\u4e3b\u5f35
p2947
aV\u672c\u5730
p2948
aV\u81ea\u7522
p2949
aV\u552f\u4e00
p2950
aV\u7267\u5834
p2951
aV\u826f\u91d1
p2952
aV\u7267\u5834
p2953
aV\u76f4\u71df
p2954
aV\u725b\u8089\u4e7e
p2955
aV\u5ee0\u5546
p2956
aV\u662f\u5426
p2957
aV\u4ee3\u8868
p2958
aV\u653f\u5e9c
p2959
aV\u4e3b\u7ba1\u6a5f\u95dc
p2960
aV\u5e36\u982d
p2961
aV\u6a19\u793a
p2962
aV\u5be6
aV\u6b3a\u7f54
p2963
aV\u6d88\u8cbb\u8005
p2964
aV\u516c\u5e73\u4ea4\u6613
p2965
aV\u6cd5
aV\u689d
aV\u4e8b\u696d
p2966
aV\u5546\u54c1
p2967
aV\u5ee3\u544a
p2968
aV\u4f7f\u516c\u773e
p2969
aV\u5f97\u77e5
p2970
aV\u65b9\u6cd5
p2971
aV\u5546\u54c1
p2972
aV\u539f\u7522\u5730
p2973
aV\u865b\u507d
p2974
aV\u4e0d\u5be6
p2975
aV\u5f15\u4eba
p2976
aV\u932f\u8aa4
p2977
aV\u8868\u793a
p2978
aV\u8868\u5fb5
p2979
aV\u689d
aV\u516c\u5e73\u4ea4\u6613
p2980
aV\u59d4\u54e1\u6703
p2981
aV\u9055\u53cd
p2982
aV\u672c\u6cd5
p2983
aV\u898f\u5b9a
p2984
aV\u4e8b\u696d
p2985
aV\u9650\u671f
p2986
aV\u547d\u5176
p2987
aV\u505c\u6b62
p2988
aV\u6539\u6b63
p2989
aV\u5176\u884c
p2990
aV\u63a1\u53d6
p2991
aV\u5fc5\u8981
p2992
aV\u66f4\u6b63
p2993
aV\u63aa\u65bd
p2994
aV\u4e26\u5f97
p2995
aV\u8655
aV\u65b0\u81fa\u5e63
p2996
aV\u842c\u5143\u4ee5\u4e0a
p2997
aV\u767e\u842c\u5143
p2998
aV\u4ee5\u4e0b
p2999
aV\u7f70
aV\u9370
aV\u8aa0\u5be6
p3000
aV\u6a19\u793a
p3001
aV\u7522\u5730
p3002
aV\u5ee0\u5546
p3003
aV\u8aa0\u4fe1
p3004
aV\u7d93\u71df
p3005
aV\u8ca0\u8cac
p3006
aV\u614b\u5ea6
p3007
aV\u6cd5\u4ee4
p3008
aV\u898f\u7bc4
p3009
aV\u9762\u5c0d
p3010
aV\u6a19\u793a
p3011
aV\u5ee3\u544a
p3012
aV\u4e0d\u5be6
p3013
aV\u72c0\u6cc1
p3014
aV\u696d\u8005
p3015
aV\u61c9\u7acb\u5373
p3016
aV\u6539\u6b63
p3017
aV\u8fb2\u59d4\u6703
p3018
aV\u826f\u91d1
p3019
aV\u516c\u53f8
p3020
aV\u7db2\u7ad9
p3021
aV\u4ea6
aV\u61c9\u7acb\u5373
p3022
aV\u66f4\u6b63
p3023
aV\u78ba\u5be6
p3024
aV\u8a3b\u660e
p3025
aV\u8089\u54c1
p3026
aV\u4f86\u6e90
p3027
aV\u8fb2\u59d4\u6703
p3028
aV\u516c\u5e73
p3029
aV\u6703\u4ea6\u61c9
p3030
aV\u52a0\u5f37
p3031
aV\u67e5\u8655
p3032
aV\u6a19\u793a
p3033
aV\u5ee3\u544a
p3034
aV\u4e0d\u5be6
p3035
aV\u9209
aV\u542b\u91cf
p3036
aV\u904e\u9ad8
p3037
aV\u5c0f\u5fc3
p3038
aV\u651d\u53d6
p3039
aV\u904e\u91cf
p3040
aV\u4f9d\u64da
p3041
aV\u884c\u653f\u9662
p3042
aV\u885b\u751f\u7f72
p3043
aV\u5efa\u8b70
p3044
aV\u6210\u4eba
p3045
aV\u6bcf\u65e5
p3046
aV\u9209
aV\u7e3d
aV\u651d\u53d6\u91cf
p3047
aV\u4e0d\u5b9c
p3048
aV\u8d85\u904e
p3049
aV\u6beb\u514b
p3050
aV\u672c\u6b21
p3051
aV\u8abf\u67e5
p3052
aV\u4ef6
aV\u6a23\u54c1
p3053
aV\u4e2d
aV\u91cd\u91cf
p3054
aV\u4ecb\u65bc
p3055
aV\u5230
aV\u516c\u514b
p3056
aV\u4e0d\u7b49
p3057
aV\u63db\u7b97
p3058
aV\u6210
aV\u6bcf\u767e
p3059
aV\u516c\u514b
p3060
aV\u9209
aV\u542b\u91cf
p3061
aV\u4ecb\u65bc
p3062
aV672.1
p3063
aV\u6beb\u514b
p3064
aV\u865f
aV\u9ad8\u7cb1
p3065
aV\u725b\u8089\u4e7e
p3066
aV\u539f\u5473
p3067
aV\u6574\u5305
p3068
aV\u516c\u514b
p3069
aV\u63db\u7b97
p3070
aV\u9209
aV\u542b\u91cf
p3071
aV\u6574\u5305
p3072
aV\u7d04
aV\u6beb\u514b
p3073
aV\u6d88\u8cbb\u8005
p3074
aV\u4e00\u908a
p3075
aV\u770b\u96fb\u8996
p3076
aV\u4e00\u908a
p3077
aV\u5403
aV\u725b\u8089\u4e7e
p3078
aV\u5403\u9032
p3079
aV\u4e00\u5305
p3080
aV\u651d\u53d6
p3081
aV\u63a5\u8fd1
p3082
aV\u5319
aV\u9e7d
aV\u9ad8\u9054
p3083
aV\u6beb\u514b
p3084
aV\u9209
aV\u542b\u91cf
p3085
aV\u63a5\u8fd1
p3086
aV\u6bcf\u65e5
p3087
aV\u5efa\u8b70
p3088
aV\u651d\u53d6\u91cf
p3089
aV\u5169\u500d
p3090
aV\u5be6\u5728
p3091
aV\u9a5a\u4eba
p3092
aV\u82e5\u6b64
p3093
aV\u518d
aV\u642d\u914d
p3094
aV\u96f6\u98df
p3095
aV\u98f2\u6599
p3096
aV\u4e00\u5929
p3097
aV\u9209
aV\u7e3d
aV\u542b\u91cf
p3098
aV\u5be6\u5728
p3099
aV\u592a
aV\u8d85\u904e
p3100
aV\u6d88\u8cbb\u8005
p3101
aV\u5065\u5eb7
p3102
aV\u582a\u616e
p3103
aV\u885b\u751f\u7f72
p3104
aV\u7d71\u8a08
p3105
aV\u5e74
aV\u6b7b\u4ea1
p3106
aV\u4eba\u6578
p3107
aV\u5360\u7387
p3108
aV\u4f9d\u5e8f
p3109
aV\u60e1\u6027\u816b\u7624
p3110
aV\u5360
aV28.0
p3111
aV\u5fc3\u81df
p3112
aV\u75be\u75c5
p3113
aV\u5360
aV10.9
p3114
aV\u8166\u8840\u7ba1
p3115
aV\u75be\u75c5
p3116
aV\u5360
aV7.1
p3117
aV\u7cd6\u5c3f\u75c5
p3118
aV\u5360
aV6.0
p3119
aV\u80ba\u708e
p3120
aV\u5360
aV6.0
p3121
aV\u4e8b\u6545
p3122
aV\u50b7\u5bb3
p3123
aV\u5360
aV4.4
p3124
aV\u6162\u6027
p3125
aV\u4e0b
aV\u547c\u5438\u9053
p3126
aV\u75be\u75c5
p3127
aV\u5360
aV3.9
p3128
aV\u6162\u6027
p3129
aV\u809d\u75c5
p3130
aV\u809d\u786c\u5316
p3131
aV\u5360
aV3.4
p3132
aV\u9ad8\u8840\u58d3
p3133
aV\u6027\u75be\u75c5
p3134
aV\u5360
aV3.0
p3135
aV\u814e\u708e
p3136
aV\u814e\u75c5
p3137
aV\u75c7\u5019\u7fa4
p3138
aV\u814e
aV\u75c5\u8b8a
p3139
aV\u5360
aV2.9
p3140
aV\u9209
aV\u542b\u91cf
p3141
aV\u651d\u53d6
p3142
aV\u904e\u9ad8
p3143
aV\u61c9\u8a72
p3144
aV\u9650\u9209
p3145
aV\u75be\u75c5\u76f8\u95dc
p3146
aV\u5df2\u9054
p3147
aV\u9805
aV\u6d88\u8cbb\u8005
p3148
aV\u653f\u5e9c
p3149
aV\u4e3b\u7ba1\u6a5f\u95dc
p3150
aV\u61c9
aV\u7279\u5225\u6ce8\u610f
p3151
aV\u9632\u7bc4
p3152
aV\u9032\u884c
p3153
aV\u76f8\u95dc
p3154
aV\u885b\u6559
p3155
aV\u5df2
aV\u6b50\u7f8e\u5148\u9032
p3156
aV\u570b\u5bb6
p3157
aV\u5e36\u982d
p3158
aV\u9650\u5236
p3159
aV\u98df\u54c1
p3160
aV\u9209
aV\u542b\u91cf
p3161
aV\u904e\u9ad8
p3162
aV\u76f8\u95dc
p3163
aV\u7ba1\u7406
p3164
aV\u63aa\u65bd
p3165
aV\u9ad8\u8840\u58d3
p3166
aV\u5065\u5eb7
p3167
aV\u5f71\u97ff
p3168
aV\u5168\u9762\u6027
p3169
aV\u767c\u751f
p3170
aV\u8166\u90e8
p3171
aV\u8840\u7ba1\u786c\u5316
p3172
aV\u6613\u4f7f
p3173
aV\u8840\u7ba1
p3174
aV\u7834\u88c2
p3175
aV\u963b\u585e
p3176
aV\u9020\u6210
p3177
aV\u4e2d\u98a8
p3178
aV\u5fc3\u81df
p3179
aV\u5f71\u97ff
p3180
aV\u5305\u62ec
p3181
aV\u5fc3\u5ba4
p3182
aV\u80a5\u5927
p3183
aV\u5fc3\u81df
p3184
aV\u8870\u7aed
p3185
aV\u72f9\u5fc3\u75c7
p3186
aV\u56b4\u91cd\u8005
p3187
aV\u5c0e\u81f4
p3188
aV\u5fc3\u808c\u6897\u585e
p3189
aV\u731d\u6b7b
p3190
aV\u5f15\u8d77
p3191
aV\u814e\u81df
p3192
aV\u52d5\u8108\u786c\u5316
p3193
aV\u6642
aV\u814e\u81df
p3194
aV\u7d44\u7e54
p3195
aV\u9010\u6f38
p3196
aV\u7834\u58de
p3197
aV\u5c0e\u81f4
p3198
aV\u814e
aV\u6a5f\u80fd
p3199
aV\u4e0d\u5168
p3200
aV\u7d42\u81f4
p3201
aV\u5c3f\u6bd2\u75c7
p3202
aV\u56b4\u91cd
p3203
aV\u4f75\u767c\u75c7
p3204
aV\u9020\u6210
p3205
aV\u75c5\u60a3
p3206
aV\u56b4\u91cd
p3207
aV\u50b7\u5bb3
p3208
aV\u5931\u80fd
p3209
aV\u6b7b\u4ea1
p3210
aV\u5168\u6c11
p3211
aV\u5065\u4fdd
p3212
aV\u8cbb\u7528
p3213
aV\u7015\u81e8\u7834\u7522
p3214
aV\u4e4b\u969b
p3215
aV\u653f\u5e9c
p3216
aV\u4e3b\u7ba1\u6a5f\u95dc
p3217
aV\u80fd\u5920
p3218
aV\u6709\u6548
p3219
aV\u5236\u6b62
p3220
aV\u542b\u9209
p3221
aV\u91cf
aV\u904e\u9ad8
p3222
aV\u5546\u54c1
p3223
aV\u4e0a\u5e02
p3224
aV\u7a4d\u6975
p3225
aV\u8f14\u5c0e
p3226
aV\u696d\u8005
p3227
aV\u751f\u7522
p3228
aV\u4f4e\u9209
p3229
aV\u4f4e\u6cb9
p3230
aV\u4f4e\u7cd6
p3231
aV\u98df\u54c1
p3232
aV\u8f14\u4ee5
p3233
aV\u6d88\u8cbb\u8005
p3234
aV\u5468\u5ef6
p3235
aV\u885b\u751f
p3236
aV\u6559\u80b2
p3237
aV\u76f8\u4fe1
p3238
aV\u570b\u4eba
p3239
aV\u6d3b\u5f97
p3240
aV\u5065\u5eb7
p3241
aV\u5403
aV\u5b89\u5fc3
p3242
aV\u904e\u5e74
p3243
aV\u6642\u9593
p3244
aV\u5927\u9b5a\u5927\u8089
p3245
aV\u4e4b\u5916
p3246
aV\u82e5\u9084
p3247
aV\u651d\u53d6
p3248
aV\u9ad8\u7cd6
p3249
aV\u9ad8\u9e7d
p3250
aV\u98f2\u6599
p3251
aV\u96f6\u98df
p3252
aV\u7f3a\u4e4f
p3253
aV\u904b\u52d5
p3254
aV\u5065\u5eb7
p3255
aV\u9020\u6210
p3256
aV\u5371\u5bb3
p3257
aV\u5be6\u5728
p3258
aV\u4e0d\u5bb9\u5ffd\u8996
p3259
aV\u6d88\u57fa\u6703
p3260
aV\u547c\u7c72
p3261
aV\u5efa\u8b70
p3262
aV\u653f\u5e9c
p3263
aV\u672c\u9031
p3264
aV\u6d88\u57fa\u6703
p3265
aV\u4e00\u9023
p3266
aV\u91dd\u5c0d
p3267
aV\u7c73\u7c89
p3268
aV\u7c73
aV\u542b\u91cf
p3269
aV\u4f4e
aV\u725b\u8089\u4e7e
p3270
aV\u91d1\u9580
p3271
aV\u9ec3\u725b
p3272
aV\u8089\u4e7e
p3273
aV\u647b
aV\u6fb3\u6d32
p3274
aV\u725b
aV\u4e3b
aV\u6210\u5206
p3275
aV\u647b\u5047
p3276
aV\u5be6
aV\u4e00\u6848
p3277
aV\u9023\u7e8c
p3278
aV\u767c\u5e03
p3279
aV\u5169\u5834
p3280
aV\u8a18\u8005\u6703
p3281
aV\u76ee\u7684
p3282
aV\u7121\u975e
p3283
aV\u7aef\u6b63
p3284
aV\u5e02\u5834
p3285
aV\u6d88\u8cbb\u8005
p3286
aV\u8cfc\u8cb7
p3287
aV\u5230
aV\u8aa0\u4fe1
p3288
aV\u5be6\u5728
p3289
aV\u5546\u54c1
p3290
aV\u5167\u5bb9
p3291
aV\u7c73\u7c89
p3292
aV\u5230
aV\u8089\u4e7e
p3293
aV\u7121\u4e00
p3294
aV\u986f\u793a
p3295
aV\u696d\u8005
p3296
aV\u8ffd\u6c42
p3297
aV\u5229\u76ca
p3298
aV\u9918
aV\u6d88\u8cbb\u8005
p3299
aV\u5065\u5eb7
p3300
aV\u6d88\u8cbb\u8005
p3301
aV\u6b0a\u76ca
p3302
aV\u54c1\u724c
p3303
aV\u8aa0\u4fe1
p3304
aV\u5168\u6578
p3305
aV\u62cb\u8af8\u8166
p3306
aV\u5f8c
aV\u7834\u58de
p3307
aV\u6574\u500b
p3308
aV\u6d88\u8cbb\u5e02\u5834
p3309
aV\u4fe1\u8cf4
p3310
aV\u5ea6
aV\u4ea6
aV\u6d88\u8cbb\u8005
p3311
aV\u98df
aV\u5b89\u5fc3
p3312
aV\u4e3b\u7ba1\u6a5f\u95dc
p3313
aV\u5be6
aV\u96e3\u8fad\u5176\u548e
p3314
aV\u7c73\u7c89
p3315
aV\u4e0d\u542b
p3316
aV\u7c73
aV\u8a18\u8005\u6703
p3317
aV\u767c\u4f48
p3318
aV\u4ee5\u5f8c
p3319
aV\u8fb2\u59d4\u6703
p3320
aV\u5426\u8a8d
p3321
aV\u7c73\u7c89
p3322
aV\u7c73
aV\u88fd\u54c1
p3323
aV\u8fb2\u7ce7\u7f72
p3324
aV\u526f
aV\u7f72\u9577
p3325
aV\u9673\u5efa\u658c
p3326
aV\u76f4\u6307
p3327
aV\u7c73\u7c89
p3328
aV\u542b\u7c73\u91cf
p3329
aV\u4e0d\u8db3
p3330
aV\u6d89\u53ca
p3331
aV\u5c64\u9762
p3332
aV\u76f8\u7576
p3333
aV\u8907\u96dc
p3334
aV\u95dc\u9375
p3335
aV\u7522\u54c1
p3336
aV\u6a19\u793a
p3337
aV\u4e0d\u6e05
p3338
aV\u8f9c\u8ca0
p3339
aV\u6d88\u8cbb\u8005
p3340
aV\u4fe1\u8cf4
p3341
aV\u554f\u984c\u6240\u5728
p3342
aV\u696d\u8005
p3343
aV\u885b\u751f\u7f72
p3344
aV\u98df\u54c1
p3345
aV\u85e5\u7269
p3346
aV\u7ba1\u7406\u5c40
p3347
aV\u537b
aV\u8a8d\u70ba
p3348
aVCNS
p3349
aV\u898f\u5b9a
p3350
aV\u540d\u7a31
p3351
aV\u54c1\u9805
p3352
aV\u7d14\u7c73
p3353
aV\u7c73\u7c89
p3354
aV\u8abf\u5408
p3355
aV\u7c73
aV\u7c89\u7d72
p3356
aV\u696d\u8005
p3357
aV\u5beb
aV\u7c73\u7c89
p3358
aV\u4e0d\u5728
p3359
aVCNS
p3360
aV\u898f\u5b9a
p3361
aV\u7bc4\u570d
p3362
aV\u4e00\u5b57\u4e4b\u5dee
p3363
aV\u7121\u6cd5
p3364
aV\u7ba1\u5236
p3365
aV\u7c73\u7c89
p3366
aV\u4e00\u6848
p3367
aV\u770b\u5230
p3368
aV\u653f\u5e9c
p3369
aV\u4e3b\u7ba1\u6a5f\u95dc
p3370
aV\u4e8b
aV\u80fd\u529b
p3371
aV\u6d88\u57fa\u6703
p3372
aV\u6c88\u91cd
p3373
aV\u547c\u7c72
p3374
aV\u653f\u5e9c
p3375
aV\u4e3b\u7ba1\u6a5f\u95dc
p3376
aV\u5be6\u5728
p3377
aV\u4e0d\u61c9
p3378
aV\u518d
aV\u5f37\u529b
p3379
aV\u4e8b
aV\u7f6e
aV\u6d88\u8cbb\u8005
p3380
aV\u6b0a\u76ca
p3381
aV\u4e0d\u9867
p3382
aV\u54c1\u8cea
p3383
aV\u5403
aV\u6b7b
aV\u4eba
aV\u8eab\u70ba
p3384
aV\u4e3b\u7ba1
p3385
aV\u5168\u570b
p3386
aV\u98df\u54c1\u885b\u751f
p3387
aV\u5b89\u5168
p3388
aV\u54c1\u8cea
p3389
aV\u8fb2\u59d4\u6703
p3390
aV\u885b\u751f\u7f72
p3391
aV\u61c9
aV\u5e02\u5834
p3392
aV\u524d
aV\u5f8c
aV\u7aef
aV\u806f\u624b
p3393
aV\u628a\u95dc
p3394
aV\u634d\u885b
p3395
aV\u6d88\u8cbb\u8005
p3396
aV\u6b0a\u76ca
p3397
aV\u6d88\u57fa\u6703
p3398
aV\u547c\u7c72
p3399
aV\u61c9
aV\u5171\u540c
p3400
aV\u7acb\u5373
p3401
aV\u6e05\u67e5
p3402
aV\u5404\u9805
p3403
aV\u98df\u54c1
p3404
aV\u6a19\u6e96
p3405
aV\u8a02\u5b9a
p3406
aV\u662f\u5426
p3407
aV\u7b26\u5408
p3408
aV\u540d\u7b26\u5176\u5be6
p3409
aV\u8aa0\u4fe1
p3410
aV\u539f\u5247
p3411
aV\u52a0\u5f37
p3412
aV\u7a3d\u67e5
p3413
aV\u696d\u8005
p3414
aV\u662f\u5426
p3415
aV\u5982\u5be6
p3416
aV\u7522
aV\u88fd
aV\u5546\u54c1
p3417
aV\u898f\u683c
p3418
aV\u66f4\u61c9
p3419
aV\u6d88\u8cbb\u5e02\u5834
p3420
aV\u52a0\u5f37
p3421
aV\u7a3d\u67e5
p3422
aV\u53d6\u7de0
p3423
aV\u5be6
aV\u5546\u54c1
p3424
aV\u7a4d\u6975
p3425
aV\u4fdd\u8b77
p3426
aV\u6d88\u8cbb\u8005
p3427
aV\u6b0a\u76ca
p3428
aV\u5efa\u8b70
p3429
aV\u696d\u8005
p3430
aV\u6d88\u8cbb\u8005
p3431
aV\u79c9\u6301
p3432
aV\u652f\u6301
p3433
aVMade
p3434
aVin
p3435
aVTaiwan
p3436
aV\u5fc3\u60c5
p3437
aV\u8cfc\u8cb7
p3438
aV\u672c\u571f
p3439
aV\u8fb2\u7522\u54c1
p3440
aV\u53bb\u5e74
p3441
aV\u6708
aV\u5f8c
aV\u767c\u73fe
p3442
aV\u539f\u4f86
p3443
aV\u4e00\u5207\u90fd\u662f
p3444
aV\u4e00\u5834
p3445
aV\u8aa4\u6703
p3446
aV\u76f8\u95dc
p3447
aV\u8cfc\u7269
p3448
aV\u7db2\u7ad9
p3449
aV\u8ca9\u552e
p3450
aV\u901a\u8def
p3451
aV\u4e0d\u4e4f
p3452
aV\u696d\u8005
p3453
aV\u6253\u8457
p3454
aV\u672c\u571f
p3455
aV\u725b
aV\u5b57\u773c
p3456
aV\u5438\u5f15
p3457
aV\u6d88\u8cbb\u8005
p3458
aV\u8cfc\u8cb7
p3459
aV\u6536\u5230
p3460
aV\u5546\u54c1
p3461
aV\u767c\u73fe
p3462
aV\u5230
aV\u539f\u4f86
p3463
aV\u5403
aV\u5230
aV\u6df7\u8840
p3464
aV\u5546\u54c1
p3465
aV\u79c9\u6301
p3466
aV\u8aa0\u5be6
p3467
aV\u7cbe\u795e
p3468
aV\u547c\u7c72
p3469
aV\u696d\u8005
p3470
aV\u61c9
aV\u660e\u78ba
p3471
aV\u544a\u77e5
p3472
aV\u4e0d\u61c9
p3473
aV\u6253\u8457
p3474
aV\u672c\u571f
p3475
aV\u725b
aV\u53e3\u865f
p3476
aV\u5438\u5f15
p3477
aV\u6d88\u8cbb\u8005
p3478
aV\u611b\u570b\u5fc3
p3479
aa(lp3480
V\u4f5c\u8005
p3481
aVqweewqq
p3482
aV\u98a8
aV\u7537\u5b50
p3483
aV\u677f
aVbasketballTW
p3484
aV\u6a19\u984c
p3485
aV\u65b0\u805e
p3486
aV\u5f35\u5bb9\u8ed2
p3487
aV\u7403\u6280
p3488
aV\u597d
aV\u968a\u53cb
p3489
aV\u9707\u9a5a
p3490
aV\u6642\u9593
p3491
aVMon
p3492
aVJul
p3493
aV\u5f35\u5bb9\u8ed2
p3494
aV\u7403\u6280
p3495
aV\u597d
aV\u968a\u53cb
p3496
aV\u9707\u9a5a
p3497
aV\u5fc3\u7406
p3498
aV\u5e2b
aV\u8ffd\u6c42
p3499
aV\u611f\u5b98
p3500
aV\u523a\u6fc0
p3501
aV\u91cb\u653e
p3502
aV\u58d3\u529b
p3503
aV\u9ad4\u80b2\u4e2d\u5fc3
p3504
aV\u53f0\u5317
p3505
aV\u5831\u5c0e
p3506
aV\u5bcc\u90a6
p3507
aV\u52c7\u58eb
p3508
aV\u524d\u92d2
p3509
aV\u5f35\u5bb9\u8ed2
p3510
aV\u50b3\u51fa
p3511
aV\u5a5a\u5916\u60c5
p3512
aV\u98a8\u6ce2
p3513
aV\u968a\u53cb
p3514
aV\u610f\u5916
p3515
aV\u8868\u793a
p3516
aV\u5f35\u5bb9\u8ed2
p3517
aV\u7403\u6280
p3518
aV\u597d
aV\u500b\u6027
p3519
aV\u60b6\u9a37
p3520
aV\u4eba
aV\u4f4e\u8abf
p3521
aV\u53ea
aV\u77e5\u9053
p3522
aV\u5a5a\u59fb
p3523
aV\u72c0\u6cc1
p3524
aV\u537b
aV\u66c9\u5f97
p3525
aV\u9b27
aV\u968a\u53cb
p3526
aV\u79c1\u4e0b
p3527
aV\u8868\u793a
p3528
aV\u7403\u5834
p3529
aV\u5916
aV\u79c1\u4e8b
p3530
aV\u505a
aV\u8a55\u65b7
p3531
aV\u53ea
aV\u5e0c\u671b
p3532
aV\u554f\u984c
p3533
aV\u89e3\u6c7a
p3534
aV\u7403\u968a
p3535
aV\u7981\u4e0d\u8d77
p3536
aV\u518d\u6709
p3537
aV\u4e3b\u529b
p3538
aV\u96e2\u968a
p3539
aV\u91d1\u9580
p3540
aV\u51fa\u751f
p3541
aV\u5f35\u5bb9\u8ed2
p3542
aV\u65e9\u5c31
p3543
aV\u5d84\u9732
p3544
aV\u7c43\u7403
p3545
aV\u5929\u5206
p3546
aV\u9ad4\u80fd
p3547
aV\u4e0d\u52c1
p3548
aV\u7206
aV\u537b
aV\u64c1\u6709
p3549
aV\u9ad8
aV\u7c43\u7403
p3550
aV\u667a\u5546
p3551
aV\u7403\u5834
p3552
aV\u89e3\u8b80
p3553
aV\u80fd\u529b
p3554
aV\u5f35\u5bb9\u8ed2
p3555
aV\u516d\u5e74
p3556
aV\u9032\u5165
p3557
aV\uff33
aV\uff22
aV\uff2c
aV\u8d85\u7d1a
p3558
aV\u7c43\u7403\u806f\u8cfd
p3559
aV\u4e4b\u5f8c
p3560
aV\u6548\u529b
p3561
aV\u4e09\u652f
p3562
aV\u7403\u968a
p3563
aV\u7403\u968a
p3564
aV\u4e3b\u529b
p3565
aV\u81ea\u8a31
p3566
aV\u53f0\u7063
p3567
aV\u6700\u597d
p3568
aV\u7403\u54e1
p3569
aV\u4e00\u5e74
p3570
aV\u5f35\u5bb9\u8ed2
p3571
aV\u52a0\u76df
p3572
aV\u53f0\u7063
p3573
aV\u5bcc\u90a6
p3574
aV\u52c7\u58eb
p3575
aV\u524d\u8eab
p3576
aV\u4e4b\u5f8c
p3577
aV\u7403\u904b
p3578
aV\u5927\u958b
p3579
aV\u63a5\u9023
p3580
aV\u5165\u9078
p3581
aV\u7b2c\u4e94\u5c46
p3582
aV\u4e9e\u6d32\u76c3
p3583
aV\u4e2d\u83ef\u968a
p3584
aV\u570b\u624b
p3585
aV\u74ca\u65af
p3586
aV\u76c3
aV\u4e2d\u83ef
p3587
aV\u767d\u968a
p3588
aV\u76ee\u524d
p3589
aV\u6708\u85aa
p3590
aV\u63a8\u4f30
p3591
aV\u5341\u4e8c
p3592
aV\u842c\u5143
p3593
aV\u500b\u6027
p3594
aV\u8070\u660e
p3595
aV\u61c2\u5f97
p3596
aV\u61c9\u5c0d\u9032\u9000
p3597
aV\u5f35\u5bb9\u8ed2
p3598
aV\u53bb\u5e74
p3599
aV\u751f\u6daf
p3600
aV\u4e8c\u5ea6
p3601
aV\u7372\u9078
p3602
aV\u5e74\u5ea6
p3603
aV\u9032\u6b65\u734e
p3604
aV\u66fe
aV\u8868\u793a
p3605
aV\u5fc3\u76ee
p3606
aV\u4e2d
aV\u5e74\u5ea6
p3607
aV\u6700\u5927
p3608
aV\u500b\u4eba\u734e
p3609
aV\u6700\u4f73
p3610
aV\u9032\u6b65\u734e
p3611
aV\u6bcf\u500b
p3612
aV\u7403\u54e1
p3613
aV\u5e0c\u671b
p3614
aV\u80fd\u5920
p3615
aV\u6301\u7e8c
p3616
aV\u9032\u6b65
p3617
aV\u5f97\u5230
p3618
aV\u6240\u6709\u4eba
p3619
aV\u80af\u5b9a
p3620
aV\u9ad4\u80fd
p3621
aV\u689d\u4ef6
p3622
aV\u597d
aV\u60f3
aV\u8b49\u660e
p3623
aV\u53f0\u7063
p3624
aV\u6700\u597d
p3625
aV\u7403\u54e1
p3626
aV\u9019\u6b21
p3627
aV\u5f35\u5bb9\u8ed2
p3628
aV\u6372\u5165
p3629
aV\u5a5a\u5916\u60c5
p3630
aV\u98a8\u6ce2
p3631
aV\u968a\u53cb
p3632
aV\u611f\u5230
p3633
aV\u610f\u5916
p3634
aV\u8aee\u5546
p3635
aV\u5fc3\u7406
p3636
aV\u5e2b\u4f55
p3637
aV\u76c8\u76c8
p3638
aV\u8868\u793a
p3639
aV\u9762\u81e8
p3640
aV\u58d3\u529b
p3641
aV\u8ca0\u9762
p3642
aV\u60c5\u7dd2
p3643
aV\u6642
aV\u8a31\u591a
p3644
aV\u4eba
aV\u5c0b\u6c42
p3645
aV\u5916
aV\u611f\u5b98
p3646
aV\u523a\u6fc0
p3647
aV\u5ba3\u6d29
p3648
aV\u6bcf\u500b
p3649
aV\u4eba
aV\u9078\u64c7
p3650
aV\u7ba1\u9053
p3651
aV\u4e0d\u592a
p3652
aV\u76c8\u76c8
p3653
aV\u8209\u4f8b
p3654
aV\u8aaa
aV\u4eba
aV\u9157\u9152
p3655
aV\u8ced\u535a
p3656
aV\u4eba\u6703
p3657
aV\u62bd\u83f8
p3658
aV\u6709\u4eba
p3659
aV\u8eab\u9ad4
p3660
aV\u51fa\u73fe
p3661
aV\u4e0d\u9069
p3662
aV\u50cf\u662f
p3663
aV\u982d\u75db
p3664
aV\u8178\u80c3
p3665
aV\u554f\u984c
p3666
aV\u904b\u52d5\u54e1
p3667
aV\u6613\u7528\u6027
p3668
aV\u7d13
aV\u58d3\u4f55
p3669
aV\u76c8\u76c8
p3670
aV\u89e3\u91cb
p3671
aV\u904b\u52d5\u54e1
p3672
aV\u8eab\u9ad4
p3673
aV\u5de5\u4f5c
p3674
aV\u58d3\u529b
p3675
aV\u4f86\u6e90
p3676
aV\u9078\u64c7
p3677
aV\u7d13
aV\u58d3
aV\u7ba1\u9053
p3678
aV\u6642
aV\u8eab\u9ad4
p3679
aV\u6d3b\u52d5
p3680
aV\u91cb\u653e
p3681
aV\u58d3\u529b
p3682
aV\u5f37\u8abf
p3683
aV\u9019\u7a2e
p3684
aV\u50be\u5411
p3685
aV\u5e8a\u4e0a
p3686
aV\u7a31\u4e4b\u70ba
p3687
aV\u884c\u52d5
p3688
aV\u5316
aV\u9019\u4e5f
p3689
aV\u8a31\u591a
p3690
aV\u512a\u79c0
p3691
aV\u904b\u52d5\u54e1
p3692
aV\u51fa\u8ecc
p3693
aV\u6027
aV\u6210\u766e
p3694
aV\u75c7\u72c0
p3695
aV\u9762\u5c0d
p3696
aV\u58d3\u529b
p3697
aV\u6642
aV\u7fd2\u6163
p3698
aV\u5c0b\u6c42
p3699
aV\u8eab\u9ad4
p3700
aV\u9ad8\u5f37\u5ea6
p3701
aV\u523a\u6fc0
p3702
aV\u738b\u5efa\u6c11
p3703
aV\u66fe
aV\u9b27
aV\u5916\u9047
p3704
aV\u4e8b\u5be6\u4e0a
p3705
aV\u570b\u5167\u5916
p3706
aV\u8a31\u591a
p3707
aV\u77e5\u540d
p3708
aV\u904b\u52d5\u54e1
p3709
aV\u66fe
aV\u9762\u81e8
p3710
aV\u76f8\u540c
p3711
aV\u554f\u984c
p3712
aV\u5305\u62ec
p3713
aV\u9ad8\u723e\u592b
p3714
aV\u524d
aV\u4e16\u754c
p3715
aV\u7403\u738b
p3716
aV\u8001\u864e
p3717
aV\u4f0d\u8332
p3718
aV\u983b\u7e41
p3719
aV\u5077\u5403
p3720
aV\u6700\u5f8c
p3721
aV\u8b49\u5be6
p3722
aV\u7f79\u60a3
p3723
aV\u6027
aV\u6210\u766e\u75c7
p3724
aV\uff2e
aV\uff22
aV\uff21
aV\u7c43\u7403\u5834
p3725
aV\u8d85\u7d1a
p3726
aV\u5de8\u661f
p3727
aVKobe
p3728
aVKobeBryant
p3729
aV\u66fe
aV\u56e0\u6027
p3730
aV\u4fb5
aV\u5341\u4e5d\u6b72
p3731
aV\u670d\u52d9\u751f
p3732
aV\u5403\u4e0a\u5b98\u53f8
p3733
aV\u5f8c
aV\u88ab\u5224
p3734
aV\u7121\u7f6a
p3735
aV\u53d6\u5f97
p3736
aV\u8001\u5a46
p3737
aV\u51e1\u59ae
p3738
aV\u838e
aV\u8ad2\u89e3
p3739
aV\u9023\u53f0\u7063
p3740
aV\u7403\u8ff7
p3741
aV\u719f\u8b58
p3742
aV\u806f\u76df
p3743
aV\u524d
aV\u6295\u624b
p3744
aV\u738b\u5efa\u6c11
p3745
aV\u5916\u9047
p3746
aV\u9b27
aV\u65b0\u805e
p3747
aV\u7248\u9762
p3748
aV\u570b\u5167\u5916
p3749
aV\u7403\u661f
p3750
aV\u5077\u5403
p3751
aV\u6848\u4f8b
p3752
aV\u5e74
aV\u53f0\u7063
p3753
aV\u65c5\u7f8e
p3754
aV\u6295\u624b
p3755
aV\u738b\u5efa\u6c11
p3756
aV\u738b\u5efa\u6c11
p3757
aV\u7206
aV\u5077\u5403
p3758
aV\u7f8e\u570b
p3759
aV\u53ec\u958b
p3760
aV\u8a18\u8005\u6703
p3761
aV\u5766\u627f
p3762
aV\u5e74
aV\u66fe
aV\u70ba\u671f
p3763
aV\u6708
aV\u5a5a\u5916\u60c5
p3764
aV\u53d6\u5f97
p3765
aV\u8001\u5a46
p3766
aV\u5433\u5609
p3767
aV\u59c8
aV\u539f\u8ad2
p3768
aV\u5e74
aV\u9ad8\u7403
p3769
aV\u540d\u5c07
p3770
aV\u8001\u864e
p3771
aV\u4f0d\u8332
p3772
aVTiger
p3773
aVWoods
p3774
aV\u4f0d\u8332
p3775
aV\u4f5b\u7f85\u91cc\u9054
p3776
aV\u4f4f\u5bb6
p3777
aV\u9644\u8fd1
p3778
aV\u767c\u751f
p3779
aV\u8eca\u798d
p3780
aV\u626f
aV\u51fa\u4f0d
p3781
aV\u8332
aV\u5916\u9047
p3782
aV\u8001\u5a46
p3783
aV\u767c\u73fe
p3784
aV\u864e
aV\u5973\u90ce
p3785
aV\u4eba\u6578
p3786
aV\u8d8a\u4f86\u8d8a
p3787
aV\u9694\u5e74
p3788
aV\u4f0d\u8332
p3789
aV\u8001\u5a46
p3790
aV\u827e\u7433
p3791
aV\u96e2\u5a5a
p3792
aV\u5e74
aV\u8db3\u7403
p3793
aV\u540d\u5c07
p3794
aV\u8c9d\u514b
p3795
aV\u6f22
aVDavid
p3796
aVBeckham
p3797
aV\u8c9d\u514b
p3798
aV\u6f22
aV\u897f\u73ed\u7259
p3799
aV\u8e22
aV\u806f\u8cfd
p3800
aV\u524d\u4efb
p3801
aV\u79d8\u66f8
p3802
aV\u857e
aV\u8c9d\u5361
p3803
aV\u76e7\u65af
p3804
aV\u5916\u9047
p3805
aV\u8c9d\u514b
p3806
aV\u6f22
aV\u8001\u5a46
p3807
aV\u7dad\u591a
p3808
aV\u8389\u4e9e
p3809
aV\u6700\u5f8c
p3810
aV\u6c7a\u5b9a
p3811
aV\u539f\u8ad2
p3812
aV\u5e74
aVNBA
p3813
aV\u7403\u661f
p3814
aVKobe
p3815
aVKobe
p3816
aVBryant
p3817
aV\u5df2\u5a5a
p3818
aVKobe
p3819
aV\u906d\u63a7\u6027
p3820
aV\u4fb5
aV\u6b72
aV\u670d\u52d9\u751f
p3821
aV\u6848\u4ef6
p3822
aV\u5e74
aV\u8a34\u8a1f
p3823
aV\u5e74
aV\u6708
aV\u65e5
aVKobe
p3824
aV\u88ab\u5224
p3825
aV\u7121\u7f6a
p3826
aV\u53d6\u5f97
p3827
aV\u8001\u5a46
p3828
aV\u51e1\u59ae
p3829
aV\u838e
aV\u8ad2\u89e3
p3830
aV\u8cc7\u6599
p3831
aV\u4f86\u6e90
p3832
aV\u860b\u679c
p3833
aV\u8cc7\u6599\u5ba4
p3834
aVgoo
p3835
aVgl
p3836
aVSNbSuP
p3837
aa(lp3838
V\u9078\u64c7
p3839
aV\u642d\u6a5f
p3840
aV\u5feb\u901f
p3841
aV\u4e8c\u4f86
p3842
aV\u6688\u8239
p3843
aV\u6688\u6a5f
p3844
aV\u75db\u82e6
p3845
aV\u6688\u6a5f
p3846
aV\u6700\u591a
p3847
aV\u982d\u75db
p3848
aV\u6709\u6642
p3849
aV\u8033\u9cf4
p3850
aV\u6688\u8239
p3851
aV\u9054\u5230
p3852
aV\u5410
aV\u7576\u6d77\u50cf
p3853
aV\u4e0d\u597d
p3854
aV\u611f\u89ba
p3855
aV\u5750
aV\u96f2\u9704\u98db\u8eca
p3856
aV\u5ffd\u9ad8\u5ffd\u4f4e
p3857
aV\u5225\u4ee5
p3858
aV\u5750\u8239
p3859
aV\u60f3
aV\u7761\u89ba
p3860
aV\u795e\u7d93
p3861
aV\u5920\u5927\u689d
p3862
aV\u5c0f\u6642
p3863
aV\u8239\u7a0b
p3864
aV\u53d7
aV\u8a73\u60c5
p3865
aV\u53bb
aV\u8ecd\u65c5
p3866
aV\u7248
aV\u554f\u554f
p3867
aV\u4e00\u4e9b
p3868
aV\u91d1\u9580
p3869
aV\u5927\u982d
p3870
aV\u5175
aV\u642d\u8239
p3871
aV\u611f\u89ba
p3872
aa(lp3873
V\u8acb\u554f
p3874
aV\u4e00\u4e0b
p3875
aV\u73fe\u5728
p3876
aV\u91d1\u9580
p3877
aV\u7248\u53cb
p3878
aV\u76ee\u524d
p3879
aV\u91d1\u9580
p3880
aV\u50cf\u6a23
p3881
aV\u7378\u91ab
p3882
aV\u6578\u5e74
p3883
aV\u524d
aV\u7d93\u9a57
p3884
aV\u8dd1\u904d
p3885
aV\u5e7e\u9593
p3886
aV\u7378\u91ab
p3887
aV\u62db\u724c
p3888
aV\u5730\u65b9
p3889
aV\u8179\u7009
p3890
aV\u8178\u80c3\u708e
p3891
aV\u5614\u5410
p3892
aV\u8178\u80c3\u708e
p3893
aV\u767c\u71d2
p3894
aV\u8178\u80c3\u708e
p3895
aV\u76ee\u524d
p3896
aV\u9762\u81e8
p3897
aV\u662f\u5426
p3898
aV\u56de
aV\u91d1\u9580
p3899
aV\u5de5\u4f5c
p3900
aV\u6289\u64c7
p3901
aV\u9ede\u800c
p3902
aV\u4e00\u96d9
p3903
aV\u8c93\u5152
p3904
aV\u5973
aV\u6700
aV\u96e3\u4ee5
p3905
aV\u5272\u6368
p3906
aV\u4e00\u90e8
p3907
aV\u4efd
aV\u5e0c\u671b
p3908
aV\u9019\u65b9\u9762
p3909
aV\u8cc7\u8a0a
p3910
aV\u7248\u53cb
p3911
aV\u5e6b\u5e6b\u6211
p3912
aV\u8b1d\u8b1d
p3913
aV\u62dc
aa(lp3914
V\u7537\u53cb
p3915
aV\u7576\u5175
p3916
aV\u6574\u500b
p3917
aV\u9023\u5feb
p3918
aV\u4e00\u534a
p3919
aV\u611f\u5192
p3920
aV\u73fe\u5728
p3921
aV\u5589\u56a8\u75db
p3922
aV\u9f3b\u585e
p3923
aV\u9ec3
aV\u9f3b\u6d95
p3924
aV\u56db\u80a2\u7121\u529b
p3925
aV\u4e00\u9ede
p3926
aV\u6688
aV\u4e00\u9ede
p3927
aV\u54b3\u55fd
p3928
aV\u8eab\u9ad4
p3929
aV\u767c\u71b1
p3930
aV\u98df\u617e\u4e0d\u632f
p3931
aV\u60f3
aV\u8acb\u554f
p3932
aV\u5c71\u5916
p3933
aV\u8033\u9f3b\u5589\u79d1
p3934
aV\u7684\u85e5
p3935
aV\u6bd4\u8f03
p3936
aV\u6709\u6548
p3937
aV\u91ab\u751f
p3938
aV\u6bd4\u8f03
p3939
aV\u597d
aV\u8003\u616e
p3940
aV\u518d
aV\u53f0\u7063
p3941
aV\u91ab\u751f
p3942
aV\u62ff\u85e5
p3943
aV\u5bc4
aV\u53bb
aV\u90f5\u5bc4
p3944
aV\u62d6
aV\u597d\u4e45
p3945
aV....
p3946
aV\u8acb
aV\u63a8\u85a6
p3947
aV\u4e00\u4e0b
p3948
aV\u8a3a\u6240
p3949
aV\u7f72\u7acb
p3950
aV\u91ab\u9662
p3951
aV\u91ab\u751f
p3952
aV\u8b1d\u8b1d
p3953
aa(lp3954
V\u77e5\u9053
p3955
aV\u91d1\u9580
p3956
aV\u6709\u6c92\u6709
p3957
aV\u611b\u807d
p3958
aV\u53e4\u5178
p3959
aV\u7235\u58eb\u6a02
p3960
aV\u73a9
aV\u771f\u7a7a\u7ba1
p3961
aV\u767c\u71d2\u53cb
p3962
aV\u6709\u6c92\u6709
p3963
aV\u4eba
aV\u77e5\u9053
p3964
aV\u91d1\u9580
p3965
aV\u4fee\u7406
p3966
aV\u771f\u7a7a\u7ba1
p3967
aV\u9054\u4eba
p3968
aV\u6628\u5929
p3969
aV\u5bb6\u5177
p3970
aV\u79fb\u4f4d
p3971
aV\u771f\u7a7a\u7ba1
p3972
aV\u6b63\u5e38
p3973
aV\u958b\u555f
p3974
aV\u9001\u56de
p3975
aV\u53f0\u7063
p3976
aV\u4fee\u7406
p3977
aa(lp3978
V\u501f\u6587\u554f
p3979
aV\u4e00\u4e0b
p3980
aV\u4e00\u5bb6
p3981
aV\u91ab\u751f
p3982
aV\u6709\u4eba
p3983
aV\u8aaa
aV\u85e5\u592a\u5f37
p3984
aV\u6709\u4eba
p3985
aV\u8aaa
aV\u6709\u6548
p3986
aV\u91cd\u9ede
p3987
aV\u597d
aV\u5147
aV\u5147\u5df4\u5df4
p3988
aV\u4eba
aV\u5ba2\u6c23
p3989
aV\u7f75
aV\u8001\u4eba
p3990
aV\u767c\u71d2
p3991
aV\u751f\u75c5
p3992
aV\u7f75
aV\u559c\u6b61
p3993
aV\u767c\u71d2
p3994
aV\u5147
aV....
p3995
aV\u5f35\u570b\u5fd7
p3996
aV\u771f\u6015
p3997
aV\u9f3b
aV\u5674\u7ba1
p3998
aV\u63d2\u5230
p3999
aV\u9f3b\u5b54
p4000
aV\u88e1\u4ed6
p4001
aV\u6b66\u5668
p4002
aVorz
p4003
aa(lp4004
V\u8acb\u554f
p4005
aV\u4e00\u4e0b
p4006
aV\u6709\u4eba
p4007
aV\u77e5\u9053
p4008
aV\u8521\u5065\u946b
p4009
aV\u65e9\u4e0a
p4010
aV\u5e7e\u9ede
p4011
aV\u958b\u9580
p4012
aV\u770b\u8a3a
p4013
aV\u5589\u56a8\u75db
p4014
aV\u5230
aV\u4e0d\u884c
p4015
aV\u60f3
aV\u660e\u5929
p4016
aV\u65e9\u4e0a
p4017
aV\u4e0a\u8ab2
p4018
aV\u524d\u53bb
p4019
aV\u4e00\u4e0b
p4020
aV\u91ab\u751f
p4021
aV\u6709\u4eba
p4022
aV\u77e5\u9053
p4023
aa(lp4024
V\u7b2c\u4e00\u5929
p4025
aV\u884c\u7a0b
p4026
aV\u62b5\u9054
p4027
aV\u79df
aV\u8f4e\u8eca
p4028
aV\u505c\u8eca
p4029
aV\u65b9\u4fbf
p4030
aV\u91d1\u9580
p4031
aV\u822a\u7a7a\u5c40
p4032
aV\u8392\u5149
p4033
aV\u6a13
aV\u7fdf\u5c71
p4034
aV\u5751\u9053
p4035
aV\u6f22\u5f71
p4036
aV\u96f2
aV\u6839\u78a3
p4037
aV\u6587\u81fa
p4038
aV\u5bf6\u5854
p4039
aV\u865b\u6c5f\u562f
p4040
aV\u81e5\u78a3
p4041
aV\u7fa4
aV\u674e\u5149\u524d
p4042
aV\u5c07\u8ecd\u5edf
p4043
aV\u53e4\u5be7\u982d
p4044
aV\u6230\u53f2
p4045
aV\u9928
aV\u632f\u5a01
p4046
aV\u53e4\u5be7\u982d
p4047
aV\u6c34\u5c3e\u5854
p4048
aV\u6148\u6e56
p4049
aV\u6148\u5824
p4050
aV\u6d77\u5370
p4051
aV\u5bfa
aV\u7b2c\u4e8c\u5929
p4052
aV\u884c\u7a0b
p4053
aV\u90b1\u826f\u529f
p4054
aV\u6bcd\u7bc0
p4055
aV\u5b5d\u574a
p4056
aV\u6e05
aV\u91d1\u9580
p4057
aV\u93ae
aV\u7e3d\u5175
p4058
aV\u7f72
aV\u6a21\u7bc4
p4059
aV\u8857
aV\u6c34\u982d
p4060
aV\u6c34\u982d
p4061
aV\u78bc\u982d
p4062
aV\u516b\u9054
p4063
aV\u6a13\u5b50
p4064
aV\u70c8\u5973
p4065
aV\u5edf
aV\u570b\u59d3
p4066
aV\u4e95
aV\u56db\u7dad
p4067
aV\u5751\u9053
p4068
aV\u5c07\u8ecd
p4069
aV\u5821
aV\u4e5d\u5bae
p4070
aV\u78bc\u982d
p4071
aV\u7b2c\u4e09\u5929
p4072
aV\u884c\u7a0b
p4073
aV\u592a
aV\u6b66\u5c71
p4074
aV\u592a
aV\u6b66\u5c71
p4075
aV\u516c\u5893
p4076
aV\u912d\u6210\u529f
p4077
aV\u89c0\u5175
p4078
aV\u5f08\u68cb
p4079
aV\u8655
aV\u6bcb\u5fd8
p4080
aV\u8392
aV\u52d2\u77f3
p4081
aV\u69ae\u6e56
p4082
aV\u99ac\u5c71
p4083
aV\u89c0\u6e2c\u6240
p4084
aV\u64ad\u97f3
p4085
aV\u7ad9
aV\u5c71\u5f8c
p4086
aV\u6c11\u4fd7\u6587\u5316
p4087
aV\u6751
aV\u516b\u4e8c\u4e09
p4088
aV\u6230\u53f2
p4089
aV\u9928
aV\u91d1\u9580\u7e23
p4090
aV\u9676\u74f7\u5ee0
p4091
aV\u91d1\u9580
p4092
aV\u9152\u5ee0
p4093
aV\u91d1\u9580
p4094
aV\u822a\u7a7a\u5c40
p4095
aV\u73ed\u6a5f
p4096
aV\u597d
aV\u660e\u5929
p4097
aV\u5c31\u8981
p4098
aV\u7238\u5abd
p4099
aV\u53bb
aV\u91d1\u9580
p4100
aV\u73a9
aV\u91d1\u9580
p4101
aV\u719f\u6089
p4102
aV\u884c\u7a0b
p4103
aV\u4e3b\u8981
p4104
aV\u53c3\u8003
p4105
aV\u91d1\u9580\u7e23
p4106
aV\u653f\u5e9c
p4107
aV\u4e0a\u9762
p4108
aV\u63d0\u4f9b
p4109
aV\u4e09\u5929
p4110
aV\u5169\u591c
p4111
aV\u65c5\u904a
p4112
aV\u884c\u7a0b
p4113
aV\u7238\u5abd
p4114
aV\u611b\u5403
p4115
aV\u7f8e\u98df
p4116
aV\u4eba
aV\u91d1\u9580
p4117
aV\u98df\u7269
p4118
aV\u8208\u8da3
p4119
aV\u73fe\u5728
p4120
aV\u982d\u75db
p4121
aV\u4e8b\u8981
p4122
aV\u5403
aV\u6392\u9032
p4123
aV\u884c\u7a0b
p4124
aV\u88e1\u9762
p4125
aV\u4e3b\u8981
p4126
aV\u5404\u9ede
p4127
aV\u4e4b\u9593
p4128
aV\u6642\u9593
p4129
aV\u78ba\u5b9a
p4130
aV\u77e5\u9053
p4131
aV\u62ff\u634f
p4132
aV\u5403
aV\u6771\u897f
p4133
aV\u4f4d\u7f6e
p4134
aV\u77e5\u9053
p4135
aV\u670b\u53cb
p4136
aV\u53ef\u4e0d\u53ef\u4ee5
p4137
aV\u7d66\u500b
p4138
aV\u5efa\u8b70
p4139
aV\u611f\u8b1d
p4140
aa(lp4141
V\u77e5\u9053
p4142
aV\u5bc4\u50b3\u904b
p4143
aV\u807d\u8aaa
p4144
aV\u4e00\u500b
p4145
aV\u8ca8\u6ac3
p4146
aV\u4e00\u842c\u584a
p4147
aV\u91cd\u9ede
p4148
aV\u627e
aV\u4e0d\u5230
p4149
aV\u4eba
aV\u78bc\u982d
p4150
aV\u642c
aV\u5230
aV\u91d1\u9580
p4151
aV\u623f\u5b50
p4152
aV\u8acb\u554f
p4153
aV\u8239\u904b
p4154
aV\u516c\u53f8
p4155
aV\u78bc\u982d
p4156
aV\u642c\u5230
p4157
aV\u5bb6\u88e1
p4158
aV\u642c
aV\u5230
aV\u5be6\u5728
p4159
aV\u982d\u75db
p4160
aV\u91d1\u9580
p4161
aV\u50a2
aV\u5177
aV\u5f88\u919c
p4162
aV\u534a\u500b
p4163
aV\u559c\u6b61
p4164
aV\u6709\u4eba
p4165
aV\u7d93\u9a57
p4166
aV\u8b1d\u8b1d
p4167
aV\u5206\u4eab
p4168
aa(lp4169
V\u6587\u7ae0
p4170
aV\u5197\u9577
p4171
aV\u4e0d\u559c\u8005
p4172
aV\u52ff
aV\u5165
aV\u8b1d\u8b1d
p4173
aV\u6211\u5bb6
p4174
aV\u4e00\u584a
p4175
aV\u8fb2\u5730
p4176
aV\u60f3
aV\u7533\u8acb
p4177
aV\u84cb
aV\u8fb2\u820d
p4178
aV\u77e5\u9053
p4179
aV\u662f\u5426
p4180
aV\u6709\u4eba
p4181
aV\u7d93\u9a57
p4182
aV\u5206\u4eab
p4183
aV\u4e00\u4e0b
p4184
aV\u7533\u8acb
p4185
aV\u6d41\u7a0b
p4186
aV\u6211\u5148
p4187
aV\u6558\u660e
p4188
aV\u4e00\u4e0b
p4189
aV\u6211\u5bb6
p4190
aV\u7533\u8acb
p4191
aV\u4e00\u4e9b
p4192
aV\u76f8\u95dc
p4193
aV\u6e96\u5099
p4194
aV\u8cc7\u6599
p4195
aV\u6211\u5bb6
p4196
aV\u9762\u7a4d
p4197
aV\u7d04
aV\u5e73\u65b9\u516c\u5c3a
p4198
aV\u4f7f\u7528
p4199
aV\u5206\u5340
p4200
aV\u570b\u5bb6
p4201
aV\u516c\u5712\u5340
p4202
aV\u7b2c\u4e8c\u985e
p4203
aV\u7ba1\u5236\u5340
p4204
aV\u8fb2\u696d\u7528\u5730
p4205
aV\u9762\u7a4d
p4206
aV\u7d04
aV\u5e73\u65b9\u516c\u5c3a
p4207
aV\u4f7f\u7528
p4208
aV\u5206\u5340
p4209
aV\u9053\u8def
p4210
aV\u7528\u5730
p4211
aV\u7533\u8acb\u4eba
p4212
aV\u8cc7\u683c
p4213
aV\u571f\u5730
p4214
aV\u53d6\u5f97
p4215
aV\u65e5\u671f
p4216
aV\u7686
aV\u5e74\u524d
p4217
aV\u53d6\u5f97
p4218
aV\u7b26\u5408
p4219
aV\u8001\u8fb2
p4220
aV\u8cc7\u683c
p4221
aV\u5efa\u853d\u7387
p4222
aV\u53ef\u5230
p4223
aV\u61c9
aV\u6e96\u5099
p4224
aV\u8cc7\u6599
p4225
aV\u8208\u5efa
p4226
aV\u8fb2\u820d
p4227
aV\u8fb2\u6c11
p4228
aV\u7533\u8acb\u66f8
p4229
aV\u516d\u500b\u6708
p4230
aV\u6236\u7c4d\u8b04\u672c
p4231
aV\u571f\u5730
p4232
aV\u8b04\u672c
p4233
aV\u5730\u7c4d\u5716
p4234
aV\u571f\u5730
p4235
aV\u4f7f\u7528
p4236
aV\u5206\u5340
p4237
aV\u516d\u500b\u6708
p4238
aV\u8ca1\u7522
p4239
aV\u6e05\u55ae
p4240
aV\u8fb2
aV\u6f01\u6c11
p4241
aV\u5065\u4fdd
p4242
aV\u7b2c\u4e09\u985e
p4243
aV\u52a0
aV\u4fdd\u8b49
p4244
aV\u660e
aV\u93ae\u516c\u6240
p4245
aV\u7533\u8acb
p4246
aV\u7121
aV\u8fb2\u820d
p4247
aV\u8b49\u660e
p4248
aV\u7121
aV\u8fb2\u820d
p4249
aV\u5207\u7d50
p4250
aV\u66f8
aV\u8fb2\u820d
p4251
aV\u7d93\u71df
p4252
aV\u8a08\u5283\u66f8
p4253
aV\u8fb2\u696d
p4254
aV\u7522\u92b7
p4255
aV\u8b49\u660e
p4256
aV\u82e5\u6709
p4257
aV\u7f3a\u8acb
p4258
aV\u6307\u6559
p4259
aV\u8b1d\u8b1d
p4260
aV\u76f8\u95dc
p4261
aV\u7591\u554f
p4262
aV\u60f3
aV\u8acb\u6559
p4263
aV\u574a\u9593
p4264
aV\u5efa\u7bc9\u5e2b
p4265
aV\u4e8b\u52d9\u6240
p4266
aV\u63a8\u85a6
p4267
aV\u554f\u904e
p4268
aV\u5f35\u5143\u99ff
p4269
aV\u5efa\u7bc9\u5e2b
p4270
aV\u4e8b\u52d9\u6240
p4271
aV\u8aaa
aV\u756b\u5716
p4272
aV\u542b
aV\u6c34\u96fb
p4273
aV\u5230
aV\u5efa
aV\u7167\u4e0b\u4f86
p4274
aV\u842c\u5143
p4275
aV\u7522\u92b7
p4276
aV\u8b49\u660e
p4277
aV\u767c\u7968
p4278
aV\u627e\u4eba
p4279
aV\u84cb\u7ae0
p4280
aV\u4e00\u9ede
p4281
aV\u611f\u89ba
p4282
aV\u56f0\u64fe
p4283
aV\u6797\u541b\u5fd7
p4284
aV\u5efa\u7bc9\u5e2b
p4285
aV\u4e8b\u52d9\u6240
p4286
aV\u756b\u5716
p4287
aV\u542b
aV\u6c34\u96fb
p4288
aV\u4e0d\u5e6b\u4eba
p4289
aV\u9001\u4ef6
p4290
aV\u9001\u4ef6
p4291
aV\u90e8\u5206
p4292
aV\u627e\u9673\u6dd1\u6167
p4293
aV\u4ee3\u66f8
p4294
aV\u4e00\u6b21
p4295
aV\u7d04
aV\u5143
aV\u842c\u5143
p4296
aV\u5de6\u53f3
p4297
aV\u8acb\u554f
p4298
aV\u63a8\u85a6
p4299
aV\u4f9d\u64da
p4300
aV\u8fb2\u696d\u7528\u5730
p4301
aV\u8208\u5efa
p4302
aV\u8fb2\u820d
p4303
aV\u8fa6\u6cd5
p4304
aV\u7b2c\u4e09\u689d
p4305
aV\u8fb2\u6c11
p4306
aV\u8a8d\u5b9a
p4307
aV\u8fb2\u6c11
p4308
aV\u7533\u8acb
p4309
aV\u8208\u5efa
p4310
aV\u8fb2\u820d
p4311
aV\u6642
aV\u6aa2\u9644
p4312
aV\u8fb2\u696d
p4313
aV\u751f\u7522
p4314
aV\u76f8\u95dc
p4315
aV\u4f50\u8b49
p4316
aV\u8cc7\u6599
p4317
aV\u76f4\u8f44\u5e02
p4318
aV\u7e23
aV\u5e02
aV\u4e3b\u7ba1\u6a5f\u95dc
p4319
aV\u6703\u540c
p4320
aV\u5c08\u5bb6
p4321
aV\u5b78\u8005
p4322
aV\u52d8
aV\u5f8c
aV\u8a8d\u5b9a
p4323
aV\u4f46\u5c6c
p4324
aV\u8fb2\u6c11
p4325
aV\u5065\u5eb7
p4326
aV\u88ab\u4fdd\u96aa\u4eba
p4327
aV\u5168\u6c11
p4328
aV\u5065\u5eb7
p4329
aV\u7b2c\u4e09\u985e
p4330
aV\u88ab\u4fdd\u96aa\u4eba
p4331
aV\u4e0d\u5728\u6b64\u9650
p4332
aV\u610f\u601d
p4333
aV\u8aaa
aV\u7b26\u5408
p4334
aV\u8fb2\u4fdd
p4335
aV\u8cc7\u683c
p4336
aV\u4e0d\u7528
p4337
aV\u9644\u8fd1
p4338
aV\u5169\u5e74
p4339
aV\u7522\u92b7
p4340
aV\u8b49\u660e
p4341
aVPS
p4342
aV\u771f\u4e0d\u77e5\u9053
p4343
aV\u8001\u7238
p4344
aV\u69ae\u6c11
p4345
aV\u8fb2\u6c11
p4346
aVXD
p4347
aV\u6700
aV\u982d\u75db
p4348
aV\u8fb2\u696d
p4349
aV\u7d93\u71df
p4350
aV\u73fe\u6cc1
p4351
aV\u7522\u92b7
p4352
aV\u8a08\u756b
p4353
aV\u6211\u5bb6
p4354
aV\u84cb
aV\u4ee5\u4e0b
p4355
aV\u7c21\u7a31
p4356
aV\u4ee5\u524d
p4357
aV\u7a2e\u83dc
p4358
aV\u4ee5\u4e0b
p4359
aV\u7c21\u7a31
p4360
aV\u9019\u6b21
p4361
aV\u7533\u8acb
p4362
aV\u8fb2\u820d
p4363
aV\u53bb
aV\u6574\u5730
p4364
aV\u76ee\u524d
p4365
aV\u7a2e\u690d
p4366
aV\u5730\u74dc
p4367
aV\u706b\u9f8d\u679c
p4368
aV\u76ee\u524d
p4369
aV\u4f4f
aV\u5bb6
aV\u901a\u5e38
p4370
aV\u9019\u584a
p4371
aV\u7a2e\u690d
p4372
aV\u5730\u74dc
p4373
aV\u756a\u8304
p4374
aV\u5927\u767d\u83dc
p4375
aV\u9ad8\u9e97\u83dc
p4376
aV\u82b1\u6930\u83dc
p4377
aV\u60f3
aV\u8acb\u554f
p4378
aV\u904e\u53bb
p4379
aV\u5e74
aV\u7d93\u71df
p4380
aV\u5be6\u7e3e
p4381
aV\u5beb
aV\u9019\u584a
p4382
aV\u5730\u6240\u7a2e
p4383
aV\u6771\u897f
p4384
aV\u5be9\u6838
p4385
aV\u4eba\u54e1
p4386
aV\u61c9\u8a72
p4387
aV\u77e5\u9053
p4388
aV\u5bb6
aV\u904e\u53bb
p4389
aV\u7a2e
aV\u7522\u92b7
p4390
aV\u8a08\u756b
p4391
aV\u53bb
aV\u53d6\u5f97
p4392
aV\u904e\u53bb
p4393
aV\u5169\u5e74
p4394
aV\u574a\u9593
p4395
aV\u6279\u767c
p4396
aV\u83dc\u50f9
p4397
aV\u767c\u7968
p4398
aV\u61c9\u8a72
p4399
aV\u8fd1\u5169\u5e74
p4400
aV\u53d6
aV\u627e
aV\u4eba
aV\u84cb\u7ae0
p4401
aV\u6709\u6c92\u6709
p4402
aV\u5c08\u9580
p4403
aV\u66ff\u4eba
p4404
aV\u84cb\u7ae0
p4405
aV\u5e97\u5bb6
p4406
aV\u53ef\u4ed8
p4407
aV\u4e00\u9ede
p4408
aV\u8cbb\u7528
p4409
aV\u8fb2\u820d
p4410
aV\u7528\u5730
p4411
aV\u6574\u9ad4
p4412
aV\u914d\u7f6e
p4413
aV\u6392\u6c34
p4414
aV\u8a08\u756b
p4415
aV\u900f\u904e
p4416
aV\u5efa\u7bc9\u5e2b
p4417
aV\u756b\u5716
p4418
aV\u4e00\u4f75
p4419
aV\u9644\u4e0a
p4420
aV\u5730\u7c4d\u5716
p4421
aV\u756b\u5716
p4422
aV\u9644\u4e0a
p4423
aV\u82e5\u5efa
p4424
aV\u7167\u4e0b\u4f86
p4425
aV\u914d\u7f6e\u5716
p4426
aV\u4f4d\u7f6e
p4427
aV\u60f3
aV\u505a
aV\u4fee\u6539
p4428
aV\u662f\u5426
p4429
aV\u9700\u8981
p4430
aV\u518d
aV\u91cd\u9001
p4431
aV\u4e00\u6b21
p4432
aV\u4f9d\u64da
p4433
aV\u570b\u5bb6
p4434
aV\u516c\u5712
p4435
aV\u898f\u5b9a
p4436
aV\u7b2c\u4e09\u5c64
p4437
aV\u9762\u7a4d
p4438
aV\u6700\u9ad8
p4439
aV\u53ea\u80fd
p4440
aV\u57fa\u5730
p4441
aV\u9762\u7a4d
p4442
aV\u4e09\u5206\u4e4b\u4e8c
p4443
aV\u63a1\u659c
p4444
aV\u5c4b\u9802
p4445
aV\u6211\u5bb6
p4446
aV\u57fa\u5730
p4447
aV\u9762\u7a4d
p4448
aV\u576a
aV\u6a13
aV\u53ea\u80fd
p4449
aV\u84cb
aV\u576a
aV\u91d1\u9580
p4450
aV\u662f\u5426
p4451
aV\u4e00\u689d\u9f8d
p4452
aV\u71df\u9020\u5546
p4453
aV\u627f\u63a5
p4454
aV\u696d\u52d9
p4455
aV\u76ee\u524d
p4456
aV\u5e73\u65b9\u516c\u5c3a
p4457
aV\u591a\u5c11\u9322
p4458
aV\u5305\u62ec
p4459
aV\u756b\u5716
p4460
aV\u5e6b\u5fd9
p4461
aV\u7533\u8acb
p4462
aV\u5efa\u7167
p4463
aV\u5efa\u5c4b
p4464
aV\u4f7f
aV\u7167\u4e0b\u4f86
p4465
aV\u4e00\u689d\u9f8d
p4466
aV\u65b9\u5f0f
p4467
aV\u84cb\u623f\u5b50
p4468
aV\u771f
aV\u8017\u8cbb
p4469
aV\u6642\u9593
p4470
aV\u91d1\u9322
p4471
aV\u80fd\u7701
p4472
aV\u7701
aV\u611f\u8b1d
p4473
aV\u8010\u5fc3
p4474
aV\u5b8c
aV\u672c\u7bc7
p4475
aV\u7b2c\u4e00\u6b21
p4476
aV\u7533\u8fa6
p4477
aV\u8fb2\u820d
p4478
aV\u61c2
aV\u5730\u65b9
p4479
aV\u5b78\u7fd2
p4480
aV\u5e0c\u671b
p4481
aV\u7d93\u9a57
p4482
aV\u541d\u55c7
p4483
aV\u5206\u4eab
p4484
aV\u7533\u8fa6
p4485
aV\u6d41\u7a0b
p4486
aV\u611f\u6fc0\u842c\u5206
p4487
aa(lp4488
V\u5c0f\u5f1f
p4489
aV\u76ee\u524d
p4490
aV\u4f4f
aV\u6f8e\u6e56
p4491
aV\u525b\u5f9e
p4492
aV\u53f0\u7063
p4493
aV\u642c\u4f86
p4494
aV\u4e0d\u5230
p4495
aV\u4e09\u500b
p4496
aV\u6708
aV\u6f8e\u6e56
p4497
aV\u90fd\u9084
p4498
aV\u4e0d\u8cf4
p4499
aV\u4e00\u9ede
p4500
aV\u5be6\u5728
p4501
aV\u982d\u75db
p4502
aV\u60b6\u71b1
p4503
aV\u6c23\u5019
p4504
aV\u5c0f\u5f1f
p4505
aV\u5e73\u5e38
p4506
aV\u807d
aV\u97f3\u6a02
p4507
aV\u4e45\u800c\u4e45\u4e4b
p4508
aV\u5668\u6750
p4509
aV\u6295\u8cc7
p4510
aV\u6f8e\u6e56
p4511
aV\u98a8\u5439
p4512
aV\u4e45
aV\u5f8c
aV\u53bb\u5e74
p4513
aV\u8cb7
aV\u97f3\u97ff\u8a2d\u5099
p4514
aV\u640d\u8017
p4515
aV\u642c
aV\u4e4b\u5f8c
p4516
aV\u5ba2\u5ef3
p4517
aV\u7a97\u6236
p4518
aV\u5f9e\u6c92
p4519
aV\u6253\u958b
p4520
aV\u6c92\u60f3\u5230
p4521
aV\u4e4b\u524d
p4522
aV\u958b\u9664
p4523
aV\u6fd5\u6a5f
p4524
aV\u72c0\u6cc1
p4525
aV\u7565\u6709
p4526
aV\u597d\u8f49
p4527
aV\u5e7e\u5929
p4528
aV\u56de\u53bb
p4529
aV\u53f0\u7063
p4530
aV\u63a2\u89aa
p4531
aV\u56de\u5bb6
p4532
aV\u7fd2\u6163\u6027
p4533
aV\u97f3\u97ff
p4534
aV\u6253\u958b
p4535
aV\u767c\u73fe
p4536
aV\u72c0\u6cc1
p4537
aV\u56b4\u91cd
p4538
aV\u4e09\u5929
p4539
aV\u6c92\u9664
p4540
aV\u6fd5
aV\u5fc5\u8981
p4541
aV\u6b63\u597d
p4542
aV\u63a5\u89f8
p4543
aV\u5230
aV\u91d1\u9580
p4544
aV\u5de5\u4f5c
p4545
aV\u6a5f\u6703
p4546
aV\u689d\u4ef6
p4547
aV\u4e0d\u932f
p4548
aV\u64d4\u5fc3
p4549
aV\u5587\u53ed
p4550
aV\u640d\u8017
p4551
aV\u7279\u5730\u4f86
p4552
aV\u91d1
aV\u9580\u677f
p4553
aV\u554f\u554f
p4554
aV\u9109\u89aa
p4555
aV\u6709\u6c92\u6709
p4556
aV\u4eba
aV\u6982\u8aaa
p4557
aV\u8aaa
aV\u6f8e\u6e56
p4558
aV\u91d1\u9580
p4559
aV\u6c23\u5019
p4560
aV\u5dee\u7570
p4561
aV\u96fb\u5b50\u5668\u6750
p4562
aV\u5bb9
aV\u5bb9\u6613
p4563
aV\u53d7
aV\u640d\u8017
p4564
aV\u8b1d\u8b1d
p4565
aVPS
p4566
aV\u77e5\u9053
p4567
aV\u97f3\u97ff
p4568
aV\u640d\u58de
p4569
aV\u539f\u56e0
p4570
aV\u9e7d\u5206
p4571
aV\u6f6e\u6fd5
p4572
aa(lp4573
Vyago0214
p4574
aVpixnet
p4575
aVnet
p4576
aVblog
p4577
aVpost
p4578
aV\u5716\u6587
p4579
aV\u597d
aV\u8b80\u7248
p4580
aVpimg
p4581
aVyago0214
p4582
aVjpgOct
p4583
aV\u91d1\u9580
p4584
aV\u81ea\u7531
p4585
aV\u884c
aVD0
p4586
aV\u6e96\u5099
p4587
aV\u7bc7
aV\u6a5f\u7968
p4588
aV\u79df\u8eca
p4589
aV\u91d1\u9580
p4590
aV\u884c
aV\u771f\u662f
p4591
aV\u4e00\u6ce2\u4e09\u6298
p4592
aV\u5e74
aV\u672c\u4f86
p4593
aV\u5c31\u8981
p4594
aV\u53bb
aV\u90a3\u5e74
p4595
aV\u65b0\u805e
p4596
aV\u5831\u5c0e
p4597
aV\u91d1\u5ec8
p4598
aV\u79bd\u6d41\u611f
p4599
aV\u6700\u5f8c
p4600
aV\u653e\u68c4
p4601
aV\u53bb
aV\u5750
aV\u5bf6\u74f6
p4602
aV\u661f\u865f
p4603
aV2013.07
p4604
aV\u9e97\u661f
p4605
aV\u90f5\u8f2a
p4606
aV\u5bf6\u74f6
p4607
aV\u661f\u865f
p4608
aV\u4e8b\u524d
p4609
aV\u653b\u7565
p4610
aVyago0214
p4611
aVpixnet
p4612
aVnet
p4613
aVblog
p4614
aVpost
p4615
aV\u9ede\u6211
p4616
aV\u9023\u7d50
p4617
aV\u5750
aV\u5bf6\u74f6
p4618
aV\u661f\u865f
p4619
aV\u51fa\u767c
p4620
aV\u6642
aV\u79bd\u6d41\u611f
p4621
aV\u7adf\u662f
p4622
aV\u5929\u6c23
p4623
aV\u71b1\u5c31
p4624
aV\u81ea\u52d5
p4625
aV\u6d88\u5931
p4626
aV........
p4627
aVpimg
p4628
aVyago0214
p4629
aV\u9694\u5e74
p4630
aV\u5e74
aV\u7e3d\u7b97
p4631
aV\u8a02\u597d
p4632
aV\u6a5f\u7968
p4633
aV\u641e\u597d
p4634
aV\u6c11\u5bbf
p4635
aV\u5df2\u7d93
p4636
aV\u53f0\u5357
p4637
aV\u6a5f\u5834
p4638
aV\u8d77\u98db
p4639
aV\u884c\u674e
p4640
aV\u6258\u904b
p4641
aV\u6a5f\u5834
p4642
aV\u8eab\u4efd\u8b49
p4643
aV\u6a5f\u5668
p4644
aV\u524d
aV\u903c
aV\u903c
aV\u5169\u8072
p4645
aV\u5217\u5370\u6a5f
p4646
aV\u7968
aV\u91d1\u9580
p4647
aV\u5927\u9727
p4648
aV.....
p4649
aV\u53f0\u5357
p4650
aV\u6a5f\u5834
p4651
aV\u767c\u5446
p4652
aV\u4e09\u500b
p4653
aV\u5c0f\u6642
p4654
aV........
p4655
aV\u4e0b
aV\u4e00\u73ed
p4656
aV\u98db\u6a5f
p4657
aV\u78ba\u5b9a
p4658
aV\u53d6\u6d88
p4659
aV\u9000
aV\u6a5f\u7968
p4660
aV\u56e7
aV\u539f\u4f86
p4661
aV\u4e09\u5230
p4662
aV\u4e94\u6708
p4663
aV\u9727\u5b63
p4664
aV\u8a18\u53d6
p4665
aV\u6559\u8a13
p4666
aV\u4e0b\u6b21
p4667
aV\u907f\u958b
p4668
aVpimg
p4669
aVyago0214
p4670
aV\u9019\u6b21
p4671
aV\u7b2c\u4e09\u6b21
p4672
aV\u52d5
aV\u5ff5\u982d
p4673
aV\u8981\u4f86
p4674
aV\u91d1\u9580
p4675
aV\u53f0\u5357
p4676
aV\u6a5f\u5834
p4677
aV\u98db
aV\u91d1\u9580
p4678
aV\u7acb\u69ae
p4679
aV\u50f9\u9322
p4680
aV\u6b7b
aV\u55ae\u8d9f
p4681
aV\u4f86\u56de
p4682
aV\u5546\u91cf
p4683
aVpimg
p4684
aVyago0214
p4685
aV\u4ee5\u70ba
p4686
aV\u91d1\u9580
p4687
aV\u61c9\u8a72
p4688
aV\u53f0\u5357
p4689
aV\u5357\u908a
p4690
aV\u5730\u65b9
p4691
aV\u8a8d\u771f
p4692
aV\u5730\u5716
p4693
aV\u77e5\u9053
p4694
aV\u7def\u5ea6
p4695
aV\u53f0\u4e2d
p4696
aV\u53f0\u4e2d
p4697
aV\u98db
aV\u91d1\u9580
p4698
aV\u4fbf\u5b9c
p4699
aV\u83ef\u4fe1
p4700
aV\u55ae\u8d9f
p4701
aV\u4eba
aV\u53f0\u5317
p4702
aV\u98db
aV\u91d1\u9580
p4703
aV\u4eba
aV\u4eba\u591a
p4704
aV\u660e\u660e
p4705
aV\u8f03\u9060
p4706
aV\u9ad8\u96c4
p4707
aV\u5fa9\u8208
p4708
aV\u9060\u6771
p4709
aV\u55ae\u8d9f
p4710
aV\u4eba
aV\u53f0\u5357
p4711
aV\u9084\u8981
p4712
aV\u4fbf\u5b9c
p4713
aV\u771f\u662f
p4714
aV\u532a\u5937\u6240\u601d
p4715
aV\u53f0\u5357
p4716
aV\u4eba
aV\u54ed\u54ed
p4717
aV\u7acb\u69ae
p4718
aV\u8868\u793a
p4719
aV\u6211\u80af
p4720
aV\u98db
aV\u4e0d\u932f
p4721
aVpimg
p4722
aVyago0214
p4723
aV\u4f4f\u5bbf
p4724
aV\u90e8\u4efd
p4725
aV\u6211\u8a02
p4726
aV\u4e86\u9283
p4727
aV\u6a13
aV\u672c\u4f86
p4728
aV\u9996\u9078
p4729
aV\u6c34
aV\u8abf\u982d
p4730
aV\u6b4c
aV\u61c9\u8a72
p4731
aV\u91d1\u9580
p4732
aV\u6700
aV\u6709\u540d
p4733
aV\u6c11\u5bbf
p4734
aV\u592a
aV\u6709\u540d
p4735
aV\u8a02
aV\u4e0d\u5230
p4736
aV\u8a02
aV\u9694\u58c1
p4737
aV\u9283
aV\u6a13
aV\u6c11\u5bbf
p4738
aV\u5169\u5e74
p4739
aV\u524d
aV\u8a02
aV\u56e0\u9727
p4740
aV\u53d6\u6d88
p4741
aV\u53bb
aV\u8a02\u91d1
p4742
aV\u7559\u8457
p4743
aV\u9019\u6b21
p4744
aV\u7167\u7406\u8aaa
p4745
aV\u6c11\u5bbf
p4746
aV\u8001\u95c6
p4747
aV\u8aaa
aV\u4fdd\u7559
p4748
aV\u534a\u5e74
p4749
aV\u8001\u95c6\u5a18
p4750
aV\u4f5b\u5fc3
p4751
aV\u653e
aV\u5169\u5e74
p4752
aV\u611f\u8b1d
p4753
aV\u8001\u95c6\u5a18
p4754
aV\u6de1\u5b63
p4755
aV\u5e73\u5e38
p4756
aV\u65e5
aV\u524d\u5f80
p4757
aV\u7a7a\u623f
p4758
aV\u597d
aV\u8aaa\u8a71
p4759
aV\u73fe\u5728
p4760
aV\u623f\u50f9
p4761
aV\u665a
aV\u8aaa
aV\u5169\u5e74
p4762
aV\u524d
aV\u8001\u95c6\u5a18
p4763
aV\u6c99\u529b
p4764
aV\u8aaa
aV\u662f\u6211\u592a
p4765
aV\u62d7
aV\u627f\u8a8d
p4766
aV\u56e7
aVa1500x2
p4767
aV\u5929
aVx2
p4768
aV\u9593\u623f
p4769
aV\u4eba
aV\u4f4f\u5bbf\u8cbb
p4770
aV\u5e73\u5747
p4771
aV\u4eba
aV\u542b
aV\u65e9\u9910
p4772
aVpimg
p4773
aVyago0214
p4774
aV\u79df
aV\u8eca\u5b50
p4775
aV\u6c11\u5bbf
p4776
aV\u554f\u8981
p4777
aV\u79df
aV\u6c11\u5bbf
p4778
aV\u8001\u95c6
p4779
aV\u517c\u5dee
p4780
aV\u8aaa
aV\u9806\u4fbf
p4781
aV\u539f\u4f86
p4782
aV\u91d1\u8c50
p4783
aV\u79df\u8eca
p4784
aV\u9019\u9593
p4785
aV\u61c9\u8a72
p4786
aV\u91d1\u9580
p4787
aV\u6700
aV\u6709\u540d
p4788
aV\u898f\u6a21
p4789
aV\u6700\u5927
p4790
aV\u597d\u8655
p4791
aV\u6a5f\u5834
p4792
aV\u670d\u52d9
p4793
aV\u6ac3\u53f0
p4794
aV\u4e00\u4e0b
p4795
aV\u98db\u6a5f
p4796
aV\u5148
aV\u8655\u7406
p4797
aV\u5e6b\u5fd9
p4798
aV\u9001
aV\u884c\u674e
p4799
aV\u5230
aV\u6c11\u5bbf
p4800
aV\u56de\u7a0b
p4801
aV\u5230
aV\u6c11\u5bbf
p4802
aV\u6536
aV\u884c\u674e
p4803
aV\u5230
aV\u6a5f\u5834
p4804
aV\u6ac3\u53f0
p4805
aV\u4e0d\u7528
p4806
aV\u9322
aV\u514d\u8cbb
p4807
aV\u9084\u883b
p4808
aV\u63a8\u85a6
p4809
aVpimg
p4810
aVyago0214
p4811
aV\u5e74\u7d00
p4812
aV\u9a0e
aV\u4e00\u6574\u5929
p4813
aV\u7684\u8eca
p4814
aV\u5f8c
aV\u5c41\u80a1
p4815
aV\u597d\u75db
p4816
aV\u91d1\u8c50
p4817
aV\u79df\u8eca
p4818
aV\u63db
aV\u6c7d\u8eca
p4819
aV\u6a5f\u8eca
p4820
aV\u6c7d\u8eca
p4821
aV\u91d1\u9580
p4822
aV\u6a5f\u5834
p4823
aV\u5169\u500b
p4824
aV\u670d\u52d9\u7ad9
p4825
aV\u4e0d\u932f
p4826
aV\u6a5f\u8eca
p4827
aV\u4e00\u5929
p4828
aV\u5c0f\u6642
p4829
aV\u6c7d\u8eca
p4830
aV\u4e00\u5929
p4831
aV\u6c7d\u8eca
p4832
aV\u96fb\u5b50\u9396
p4833
aV\u602a\u602a\u7684
p4834
aV\u6700\u5f8c
p4835
aV\u53ea\u597d
p4836
aV\u624b\u52d5
p4837
aV\u9396
aV\u4e4b\u5916
p4838
aV\u6c92\u4ec0\u9ebc
p4839
aV\u6311\u5254
p4840
aV\u8d85\u6642
p4841
aV\u5c0f\u6642
p4842
aV\u6536
aV\u8cbb\u7528
p4843
aV\u8d85\u904e
p4844
aV\u516d\u5c0f\u6642
p4845
aV\u4e00\u5929
p4846
aV\u8cbb\u7528
p4847
aV\u6700\u5f8c
p4848
aV\u4e00\u5929
p4849
aV\u6709\u7b97\u6e96
p4850
aV\u6642\u9593
p4851
aV\u9072
aV\u5c0f\u6642
p4852
aV\u9084\u8eca
p4853
aV160x5
p4854
aV\u4e00\u5929
p4855
aV\u53f0
aV\u6a5f\u8eca
p4856
aV\u4e00\u5929
p4857
aV\u6c7d\u8eca
p4858
aV\u8eca\u8cbb
p4859
aV\u82b1
aV\u56db\u500b
p4860
aV\u4eba
aV\u5e73\u5747
p4861
aV\u8eca\u8cc7
p4862
aVpimg
p4863
aVyago0214
p4864
aV\u5c0f
aV\u91d1\u9580
p4865
aV\u8239\u7968
p4866
aV\u9322
aV\u5168\u7968
p4867
aVx3
p4868
aV\u6a5f\u8eca
p4869
aVx2
p4870
aV\u4f86\u56de
p4871
aVx2
p4872
aV\u5e73\u5747
p4873
aV\u4e00\u4eba
p4874
aV\u670b\u53cb
p4875
aV\u4e00\u500b
p4876
aV\u65e9\u4e0a
p4877
aV\u8457\u98db
p4878
aV\u4e00\u500b
p4879
aV\u4e0b\u5348
p4880
aV\u9ad8\u96c4
p4881
aV\u98db\u4f86
p4882
aV\u96c6\u5408
p4883
aV\u6709\u6642
p4884
aV\u9664\u4ee5
p4885
aV\u6709\u6642
p4886
aV\u9664\u4ee5
p4887
aVpimg
p4888
aVyago0214
p4889
aV\u9910\u8cbb
p4890
aV\u4f34\u624b
p4891
aV\u79ae\u90e8
p4892
aV\u4efd
aV\u9700\u6c42
p4893
aV\u56c9
aV\u9019\u8d9f
p4894
aV\u91d1\u9580
p4895
aV\u884c
aV\u4f4e\u92b7
p4896
aV\u6a5f\u7968
p4897
aV2000x2
p4898
aV\u4f4f\u5bbf\u8cbb
p4899
aV\u4ea4\u901a\u8cbb
p4900
aV\u7e3d\u5171
p4901
aV\u4eba
aV\u53f0\u5357
p4902
aV\u6a5f\u7968
p4903
aV\u8cb4
aV700x2
p4904
aV\u5143
aV__
p4905
aV\u4fbf\u5b9c
p4906
aV\u73fe\u5728
p4907
aV\u60f3\u60f3
p4908
aV\u61c9\u8a72
p4909
aV\u53f0\u4e2d
p4910
aV\u51fa\u767c
p4911
aV1400x3
p4912
aV\u4eba
aV\u958b\u8eca
p4913
aV\u4f86\u56de
p4914
aV\u5212\u7b97
p4915
aV\u7701
aV\u4e00\u9ede
p4916
aV\u6642\u9593
p4917
aV\u4f4e\u92b7
p4918
aV\u58d3\u5230
p4919
aV\u4eba
aV\u65c5\u884c\u793e
p4920
aV\u53f0\u5317
p4921
aV\u51fa\u767c
p4922
aV\u4e09\u5929
p4923
aV\u4e8c\u591c
p4924
aV\u4eba
aV\u5730\u65b9
p4925
aV\u51fa\u767c
p4926
aV\u4eba
aV\u4eba
aV\u50f9\u9322
p4927
aV\u91d1\u9580
p4928
aV\u81ea\u7531
p4929
aV\u884c\u4f54
p4930
aV\u4fbf\u5b9c
p4931
aV\u81ea\u7531
p4932
aV\u884c
aV\u81f3\u5c11
p4933
aV\u4e0d\u7528
p4934
aV\u53bb
aV\u559c\u6b61
p4935
aV\u4f4f
aV\u98ef\u5e97
p4936
aV\u611f\u89ba
p4937
aV\u5168\u4e16\u754c
p4938
aV\u98ef\u5e97
p4939
aV\u9577
aVXD
p4940
aV\u4e0d\u60f3
p4941
aV\u7169\u60f1
p4942
aV\u884c\u7a0b
p4943
aV\u4e1f\u7d66
p4944
aV\u65c5\u884c\u793e
p4945
aVpimg
p4946
aVyago0214
p4947
aVjpghttps
p4948
aVpimg
p4949
aVyago0214
p4950
aV\u53bb\u5e74
p4951
aV\u7db2\u8def\u4e0a
p4952
aV\u4e00\u7bc7
p4953
aV\u65e5\u672c
p4954
aV\u4eba\u5b58
p4955
aV\u5186
aV\u786c\u5e63
p4956
aV\u5b58
aV\u842c\u65e5\u5143
p4957
aV\u65b0\u805e
p4958
aVwww
p4959
aVettoday
p4960
aVnet
p4961
aVdalemon
p4962
aVpost
p4963
aV\u9ede\u6211
p4964
aV\u9023\u7d50
p4965
aV\u8ddf\u98a8
p4966
aV\u8cb7
aV\u4e00\u500b
p4967
aV\u5b58\u9322
p4968
aV\u7b52
aV\u4e1f\u7684
p4969
aV\u5143
aV\u786c\u5e63
p4970
aV\u5b58
aV\u4e00\u5e74
p4971
aV\u65c5\u904a
p4972
aV\u57fa\u91d1
p4973
aV\u6b64\u6642
p4974
aV\u9084\u6c92\u6eff
p4975
aV\u9019\u6b21
p4976
aV\u91d1\u9580
p4977
aV\u884c
aV\u63d0\u524d
p4978
aV\u958b\u7bb1
p4979
aV\u56c9
aVpimg
p4980
aVyago0214
p4981
aV\u597d\u7b11
p4982
aV\u5b58\u9322
p4983
aV\u7b52
aV\u8a2d\u8a08
p4984
aV\u672c\u4f86
p4985
aV\u6613\u958b\u7f50
p4986
aV\u62c9\u62c9
p4987
aV\u74b0
aV\u62d4\u958b
p4988
aV\u4e00\u908a
p4989
aV\u6839\u672c\u5c31\u662f
p4990
aV\u500b\u84cb
p4991
aV\u4e0d\u7dca
p4992
aV\u84cb\u5b50
p4993
aV\u62ac\u8d77
p4994
aV\u904e\u91cd
p4995
aV\u7206\u958b
p4996
aV\u56e7
aVahttps
p4997
aVpimg
p4998
aVyago0214
p4999
aV\u7279\u610f
p5000
aV\u5b58
aV\u6bcf\u5929
p5001
aV\u56de\u5bb6
p5002
aV\u8eab\u4e0a
p5003
aV\u5143
aV\u786c\u5e63
p5004
aV\u4e1f
aV\u5b58
aV\u4e00\u5e74
p5005
aV\u4e00\u5171
p5006
aV\u8001\u5a46
p5007
aV\u5169\u4eba
p5008
aV\u91d1\u9580
p5009
aV\u884c
aV\u525b\u525b
p5010
aV\u597d
aV\u5920\u4f4e
p5011
aV\u6d88
aV\u5b58
aV\u611f\u89ba
p5012
aV\u65c5\u904a
p5013
aV\u8ca0\u64d4
p5014
aV\u5c11
aV\u8036
aV\u932f\u89ba
p5015
aVpimg
p5016
aVyago0214
p5017
aV\u53f0\u5357
p5018
aV\u6a5f\u5834
p5019
aV\u98db
aV\u91d1\u9580
p5020
aV\u786c\u662f
p5021
aV\u6bd4\u8f03
p5022
aV\u8cb4
aV\u597d\u8655
p5023
aV\u4eba\u5c11
p5024
aV\u60a0\u9592
p5025
aV\u63d0\u65e9
p5026
aV\u534a\u5c0f\u6642
p5027
aV\u597d
aV\u6642\u9593
p5028
aV\u91d1\u9322
p5029
aV\u670b\u53cb
p5030
aV\u5ba2\u6eff
p5031
aV\u6c92\u5f97\u5f8c\u88dc
p5032
aV\u6a5f\u7968
p5033
aV\u53f0\u5357
p5034
aV\u8ecd\u6c11
p5035
aV\u6a5f\u5834
p5036
aV\u5408\u7528
p5037
aV\u518d
aV\u5750
aV\u5df4\u58eb
p5038
aV\u524d\u5f80
p5039
aV\u56b4\u683c
p5040
aV\u7981\u6b62
p5041
aV\u8ecd
aV\u6a5f\u5834
p5042
aV\u62cd\u7167
p5043
aV\u9806\u4fbf
p5044
aV\u8aaa
aV\u4e00\u4e0b
p5045
aV\u8eca\u5b50
p5046
aV\u505c
aV\u53f0\u5357
p5047
aV\u6a5f\u5834
p5048
aV\u5730\u4e0b
p5049
aV\u505c\u8eca\u5834
p5050
aV\u6642
aV\u4e00\u5929
p5051
aV\u505c
aV\u4e09\u5929
p5052
aV\u4e03\u6298
p5053
aV\u53ea\u82b1
p5054
aV\u7b97
aV\u63a5\u53d7
p5055
aV\u8def\u908a
p5056
aV\u505c\u8eca
p5057
aV\u6536\u8cbb
p5058
aVpimg
p5059
aVyago0214
p5060
aV\u8981\u8aaa
p5061
aV\u53bb
aV\u91d1\u9580
p5062
aV\u4e0d\u7528
p5063
aV\u8b77\u7167
p5064
aV.......
p5065
aV\u9084\u8981
p5066
aV\u9806\u4fbf\u53bb
p5067
aV\u5ec8\u9580
p5068
aV\u73a9
aV\u56e7
aV\u61c9\u8a72
p5069
aV\u53f0\u80de
p5070
aV\u8b49
aVXD
p5071
aVpimg
p5072
aVyago0214
p5073
aVjpghttps
p5074
aVpimg
p5075
aVyago0214
p5076
aV\u670b\u53cb
p5077
aV\u8b77\u7167
p5078
aV\u627f\u8a8d
p5079
aV\u310e
aV\u310e
aV\u597d\u4e45
p5080
aV\u98db
aV\u570b\u5167
p5081
aV\u822a\u73ed
p5082
aV\u5c0f\u6642
p5083
aV\u4e0d\u5230
p5084
aV\u770b\u500b
p5085
aV\u5831\u7d19
p5086
aV\u559d\u500b
p5087
aV\u679c\u6c41
p5088
aV\u5230
aV\u91d1\u9580
p5089
aVyoutu
p5090
aVbe
p5091
aV0HYvhGIRy4w
p5092
aV\u4f86\u91d1
p5093
aV\u9580\u524d
p5094
aV\u5148
aV\u9810\u7fd2
p5095
aV\u590f\u5929
p5096
aV\u5354\u594f\u66f2
p5097
aV\u5f35\u777f\u5bb6
p5098
aV\u6797\u9038\u6b23
p5099
aV\u6797\u7f8e\u79c0
p5100
aV\u4eba
aV\u4e3b\u6f14
p5101
aV\u8981\u4f86
p5102
aV\u91d1\u9580
p5103
aV\u9019\u90e8
p5104
aV\u96fb\u5f71
p5105
aV\u4e4b\u5f8c
p5106
aV\u60f3\u4f86
p5107
aVyoutu
p5108
aVbe
p5109
aVQVZbuHd6U5Y
p5110
aV\u96fb\u8996
p5111
aV\u7248\u6200\u590f
p5112
aV\u2103
aV\u80e1\u5b87\u5a01
p5113
aV\u9b3c\u9b3c
p5114
aV\u6f14
aV\u5076\u50cf\u5287
p5115
aV\u96c6\u6578
p5116
aV\u592a
aV\u88dc\u5b8c
p5117
aV\u7b2c\u4e00\u96c6
p5118
aV\u7834
aV\u6897
aV\u56e7
aV\u5973\u4e3b\u89d2
p5119
aV\u96fb\u8996
p5120
aV\u7248
aV\u9b3c\u9b3c
p5121
aV\u6bd4\u8f03
p5122
aV\u53ef\u611b
p5123
aV\u7537\u4e3b\u89d2
p5124
aV\u9084\u883b\u5e25
p5125
aV\u8302\u4f2f
p5126
aV\u6709\u6f14
p5127
aV\u540c\u4e00\u500b
p5128
aV\u5c0e\u6f14
p5129
aV\u5efa\u8b70
p5130
aV\u5148\u770b
p5131
aV\u96fb\u5f71\u7248
p5132
aV\u96fb\u5f71\u7248
p5133
aV\u7206\u9ede
p5134
aV\u4e00\u6b21
p5135
aV\u7206\u70b8\u6027
p5136
aV\u5687\u6b7b
p5137
aV\u89c0\u773e
p5138
aV\u96fb\u8996
p5139
aV\u7248
aV\u5df2\u7d93
p5140
aV\u544a\u8a34
p5141
aV\u6703\u6f14
p5142
aV\u6536\u8996\u7387
p5143
aV\u4e0d\u592a\u597d
p5144
aV\u597d\u770b
p5145
aV\u984c\u6750
p5146
aV\u591a\u5143
p5147
aV\u914d\u89d2
p5148
aV\u6709\u6232
p5149
aV\u9019\u8d9f
p5150
aV\u91d1\u9580
p5151
aV\u56de\u4f86
p5152
aV\u71ac\u591c
p5153
aV\u4e09\u5929
p5154
aV\u4e00\u53e3\u6c23
p5155
aV\u5b8c
aV\u96c6
aVyoutu
p5156
aVbe
p5157
aVJg
p5158
aVC7loyG5I
p5159
aV\u9b4f\u5fb7\u8056
p5160
aV\u5c0e\u6f14
p5161
aV\u4fe1\u6a02\u5718
p5162
aV\u4fe1
aV\u4e3b\u6f14
p5163
aV\u5fae
aV\u96fb\u5f71
p5164
aV\u6b72
aV\u52c7\u6c23
p5165
aV\u6bd4\u8f03
p5166
aV\u77ed
aV\u4e00\u9ede
p5167
aV\u9806\u4fbf
p5168
aV\u770b\u770b
p5169
aVyoutube
p5170
aV\u91d1\u9580
p5171
aV\u5fae
aV\u96fb\u5f71
p5172
aV\u60f3
aV\u61c9\u8a72
p5173
aV\u66fe\u7d93
p5174
aV\u8fa6\u904e
p5175
aV\u6bd4\u8cfd
p5176
aVyoutu
p5177
aVbe
p5178
aVbxeGxNvLVLY
p5179
aV\u5fe0\u5be6
p5180
aV\u73a9\u7c89
p5181
aV\u4e00\u5b9a
p5182
aV\u5fa9
aV\u7fd2
aV\u4e00\u4e0b
p5183
aV\u7d9c\u85dd
p5184
aV\u73a9
aV\u5f88\u5927
p5185
aV\u91d1\u9580
p5186
aV\u7bc7
aV\u4e0a\u96c6
p5187
aVLULU
p5188
aV\u7d0d\u8c46
p5189
aV\u61f7\u79cb
p5190
aV\u5b8c\u5a1b
p5191
aV\u8ecd\u5718
p5192
aV\u6311\u6230
p5193
aVyoutu
p5194
aVbe
p5195
aVaH81ZMLzREc
p5196
aV\u91d1\u9580
p5197
aV\u7bc7
aV\u4e0b\u96c6
p5198
aV\u8eb2\u8c93\u8c93
p5199
aV\u7d93\u5178
p5200
aV\u95dc\u5361
p5201
aV\u5730\u9ede
p5202
aV\u6c34\u8abf\u6b4c\u982d
p5203
aV\u6c34\u8abf\u6b4c\u982d
p5204
aV\u5728\u610f
p5205
aV\u8eb2\u8c93\u8c93
p5206
aV\u9019\u95dc
p5207
aV\u6839\u672c
p5208
aV\u5df2\u7d93
p5209
aV\u5149\u5149
p5210
aVXDhttps
p5211
aVyoutu
p5212
aVbe
p5213
aVQpSJ9tiabcI
p5214
aV\u8ecd\u4e2d
p5215
aV\u6a02\u5712
p5216
aV\u9023\u7d50
p5217
aV\u5230
aV\u7279\u7d04
p5218
aV\u8336\u5ba4
p5219
aV\u7576\u6642
p5220
aV\u7576\u5175
p5221
aV\u74b0\u5883
p5222
aV\u96fb\u5f71
p5223
aV\u6700\u5f8c
p5224
aV\u7d50\u5c40
p5225
aV\u5f88\u602a
p5226
aV\u56e7
aVahttps
p5227
aVyoutu
p5228
aVbe
p5229
aVR9Axd
p5230
aVKQcII
p5231
aV\u6b77\u53f2
p5232
aV\u8cc7\u6599\u7247
p5233
aV\u7832
aV\u6230
aV\u53e4\u5be7\u982d
p5234
aV\u73fe\u5728
p5235
aV\u91d1\u9580
p5236
aV\u8d8a\u4f86\u8d8a
p5237
aV\u9060
aV\u6230\u53f2
p5238
aV\u8208\u8da3
p5239
aV\u518d
aV\u770b\u770b
p5240
aV\u597d
aV\u4e0b
aV\u4e00\u7bc7
p5241
aV\u91d1\u9580
p5242
aV\u81ea\u7531
p5243
aV\u884c
aVD1
p5244
aV\u6c34\u982d
p5245
aV\u9283
aV\u6a13
aV\u6c11\u5bbf
p5246
aV\u6c34\u982d
p5247
aV\u805a\u843d
p5248
aVyago0214
p5249
aVpixnet
p5250
aVnet
p5251
aVblog
p5252
aVpost
p5253
aa(lp5254
V\u5bb6\u88e1
p5255
aV\u9762\u990a
p5256
aV\u5c0f\u8c93
p5257
aV\u5df2\u7d93
p5258
aV\u4e5d\u500b
p5259
aV\u6708
aV\u4e4b\u524d
p5260
aV\u6c92\u990a
p5261
aV\u6c92\u4ec0\u9ebc
p5262
aV\u6982\u5ff5
p5263
aV\u529f\u8ab2
p5264
aV\u505a
aV\u5403
aV\u8c93\u8349
p5265
aV\u5614\u5410
p5266
aV\u73fe\u8c61
p5267
aV\u8a62\u554f
p5268
aV\u904e\u6709
p5269
aV\u990a\u8c93
p5270
aV\u670b\u53cb
p5271
aV\u8aaa
aV\u4f7f\u7528
p5272
aV\u5316\u6bdb\u818f
p5273
aV\u4eca\u5929
p5274
aV\u8dd1
aV\u5169\u9593
p5275
aV\u985e\u4f3c
p5276
aV\u5bf5\u7269\u5e97
p5277
aV\u5730\u65b9
p5278
aV\u4e00\u500b
p5279
aV\u570b\u8208
p5280
aV\u5bb6\u755c
p5281
aV\u8a3a\u6240
p5282
aV\u4e00\u500b
p5283
aV\u4e00\u96f6\u4e00
p5284
aV\u5fe0\u72d7\u5c4b
p5285
aV\u8ce3\u5316
p5286
aV\u8c93\u818f
p5287
aV\u8acb\u554f
p5288
aV\u8ce3
aV\u7b54\u6848
p5289
aV\u77e5\u9053
p5290
aV\u311f
aV\u8dea\u6c42
p5291
aV\u5bb6\u88e1\u9762
p5292
aV\u5316\u6bdb\u818f
p5293
aV\u9109\u6c11
p5294
aV\u5148\u8ce3
p5295
aV\u4e00\u5169\u689d
p5296
aV\u7db2\u62cd
p5297
aV\u4e0a\u9762
p5298
aV\u8cb7
aV\u6642\u9593
p5299
aV\u90f5\u5bc4
p5300
aV\u5305\u88f9
p5301
aV\u6211\u5bb6
p5302
aV\u5c0f\u8c93
p5303
aV\u76ee\u524d
p5304
aV\u72c0\u6cc1
p5305
aV\u611f\u89ba
p5306
aV\u597d
aV\u5e0c\u671b
p5307
aV\u5feb\u9ede
p5308
aV\u5148\u5fb5
p5309
aV\u5230
aV\u4e00\u5169\u689d
p5310
aV\u61c9\u6025
p5311
aV\u5148\u8aaa
p5312
aV\u8072
aV\u8b1d\u8b1d
p5313
aV\u8acb
aV\u7ad9
aV\u5167\u4fe1
p5314
aV\u76f4\u63a5
p5315
aa(lp5316
V\u4e2d\u592e\u6c23\u8c61\u5c40
p5317
aVppt
p5318
aVcc
p5319
aVoL
p5320
aV\u91d1\u9580\u7e23
p5321
aV\u89c0\u5149\u65c5\u904a
p5322
aV\u7db2
aVppt
p5323
aVcc
p5324
aVtqLk
p5325
aV\u4ee5\u4e0a
p5326
aV\u5c6c\u65bc
p5327
aV\u653f\u5e9c
p5328
aV\u6a5f\u95dc
p5329
aV\u7db2\u7ad9
p5330
aV\u4e2d
aV\u5efa\u529f
p5331
aV\u5dbc
aV\u4e7e\u6f6e
p5332
aV\u6642\u9593
p5333
aV\u60f3
aV\u8acb\u554f
p5334
aV\u53bb
aV\u73a9
aV\u70ba\u6e96
p5335
aV\u597d
aV\u982d\u75db
p5336
aa(lp5337
V\u8f49\u8f09\u81ea
p5338
aV\u91d1\u9580
p5339
aV\u65e5\u5831
p5340
aV\u807d
aV\u91d1\u9580
p5341
aV\u5408\u5531\u5718
p5342
aV\u8072
aV\u9957\u5bb4
p5343
aV\u5f8c
aV\u6709\u611f
p5344
aV\u4f5c\u8005
p5345
aV\u5289\u5146\u8f1d
p5346
aV\u4e00\u66f2
p5347
aV\u674e\u62b1\u5ff1
p5348
aV\u8001\u5e2b
p5349
aV\u4eba\u751f
p5350
aV\u5982\u871c
p5351
aV\u512a\u7f8e
p5352
aV\u5f26\u5f8b
p5353
aV\u591a\u5929
p5354
aV\u8166\u6d77\u4e2d
p5355
aV\u8ff4\u76ea
p5356
aV\u9019\u4f4f
p5357
aV\u91d1\u9580
p5358
aV\u7368\u5c45
p5359
aV\u8001\u4eba
p5360
aV\u7761\u89ba\u6642
p5361
aV\u8f15
aV\u5e7e\u53e5
p5362
aV\u7f8e\u570b
p5363
aV\u4f86\u5230
p5364
aV\u91d1\u9580
p5365
aV\u958b\u696d
p5366
aV\u5df2
aV\u4e09\u5e74
p5367
aV\u9019\u56de
p5368
aV\u7e3d\u7b97
p5369
aV\u6a5f\u6703
p5370
aV\u653e
aV\u4e0b\u4f86
p5371
aV\u5e74
aV\u6700\u5f8c
p5372
aV\u7b2c\u4e09\u5929
p5373
aV\u5230
aV\u91d1\u9580
p5374
aV\u6587\u5316
p5375
aV\u4e2d\u5fc3
p5376
aV\u6f14\u85dd
p5377
aV\u5ef3
aV\u597d\u597d
p5378
aV\u6b23\u8cde
p5379
aV\u5fc3\u88e1\u982d
p5380
aV\u56ae\u5f80\u5df2\u4e45
p5381
aV\u91d1\u9580
p5382
aV\u5408\u5531\u5718
p5383
aV\u6f14\u51fa
p5384
aV\u78ba\u5be6
p5385
aV\u611f\u6069
p5386
aV\u665a\u4e0a
p5387
aV\u4e03\u9ede
p5388
aV\u5341\u5206
p5389
aV\u8a31
aV\u8d70\u9032
p5390
aV\u6703\u5834
p5391
aV\u807d\u773e
p5392
aV\u597d\u591a
p5393
aV\u524d\u9762
p5394
aV\u5e7e\u6392
p5395
aV\u5750\u6eff
p5396
aV\u5fc3\u60f3
p5397
aV\u4e00\u5b9a
p5398
aV\u9ad8
aV\u6c34\u6e96
p5399
aV\u6f14\u51fa
p5400
aV\u6211\u9078
p5401
aV\u524d\u6392
p5402
aV\u4e2d\u592e
p5403
aV\u4f4d\u7f6e
p5404
aV\u5750
aV\u4e0b\u4f86
p5405
aV\u770b\u8457
p5406
aV\u624b\u4e0a
p5407
aV\u7bc0\u76ee\u8868
p5408
aV\u597d\u591a
p5409
aV\u9996
aV\u719f\u6089
p5410
aV\u559c\u6085
p5411
aV\u66f2\u540d
p5412
aV\u6620
aV\u773c\u7c3e
p5413
aV\u597d\u7fa1\u6155
p5414
aV\u91d1\u9580
p5415
aV\u5408\u5531\u5718
p5416
aV\u6f14\u51fa
p5417
aV\u7d93\u6b77
p5418
aV\u9f90\u5927
p5419
aV\u7d44\u7e54
p5420
aV\u91d1\u9580\u7e23
p5421
aV\u653f\u5e9c
p5422
aV\u652f\u52a9
p5423
aV\u548c\u5920
p5424
aV\u6c34\u6e96
p5425
aV\u6f14\u51fa
p5426
aV\u5834\u5730
p5427
aV\u56de\u61b6\u8d77
p5428
aV\u4e09\u5341\u591a\u5e74
p5429
aV\u524d
aV\u82b1\u84ee
p5430
aV\u7d44\u7e54
p5431
aV\u82b1\u84ee
p5432
aV\u5408\u5531\u5718
p5433
aV\u8271\u82e6
p5434
aV\u6642\u65e5
p5435
aV\u7d44
aV\u82b1\u84ee
p5436
aV\u97f3\u6a02
p5437
aV\u5354\u9032\u6703
p5438
aV\u6a02\u5718
p5439
aV\u9752\u5c11\u5e74
p5440
aV\u570b\u6a02\u5718
p5441
aV\u653f\u5e9c
p5442
aV\u8ca1\u5718
p5443
aV\u91d1\u63f4
p5444
aV\u56fa\u5b9a
p5445
aV\u7df4\u7fd2\u5834
p5446
aV\u5168\u9760
p5447
aV\u4e00\u7fa4
p5448
aV\u611b\u597d\u97f3\u6a02
p5449
aV\u4f19\u4f34
p5450
aV\u5c31\u9023
p5451
aV\u6f14\u51fa
p5452
aV\u6642
aV\u7968\u52d9
p5453
aV\u5ba3\u50b3
p5454
aV\u5834\u5730
p5455
aV\u4f48\u7f6e
p5456
aV\u5718\u54e1
p5457
aV\u52de\u52d5\u6240
p5458
aV\u6210
aV\u91d1\u9580
p5459
aV\u5408\u5531\u5718
p5460
aV\u597d
aV\u6709\u798f\u6c23
p5461
aV\u7bc0\u76ee
p5462
aV\u7d42\u65bc
p5463
aV\u9072
aV\u5341\u5e7e\u5206\u9418
p5464
aV\u5f8c
aV\u9678\u7e8c
p5465
aV\u807d\u773e
p5466
aV\u9032\u5834
p5467
aV\u5341\u4f4d
p5468
aV\u7537\u5973
p5469
aV\u5718\u54e1
p5470
aV\u670d\u88dd
p5471
aV\u83ef\u9e97
p5472
aV\u67b6\u5f0f
p5473
aV\u5341\u8db3
p5474
aV\u4e00\u4e0a\u5834
p5475
aV\u5927\u5408\u5531
p5476
aV\u66f2\u5b50
p5477
aVAve
p5478
aVMaria
p5479
aV\u5687\u4e00\u8df3
p5480
aV\u958b\u5834
p5481
aV\u5531\u5927
p5482
aV\u66f2\u5b50
p5483
aV\u9663\u5bb9
p5484
aV\u8a72\u5927\u4e9b
p5485
aV\u8aaa
aV\u73fe\u6709
p5486
aV\u5718\u54e1
p5487
aV\u4eba
aV\u4e5f\u8a31
p5488
aV\u6f14\u51fa
p5489
aV\u7bc0\u76ee\u8868
p5490
aV\u5beb
aV\u597d
aV\u68d2
aV\u6f14\u51fa
p5491
aV\u5f8c
aV\u671f\u5f85
p5492
aV\u843d\u5dee
p5493
aV\u73fe\u5728
p5494
aV\u91d1\u9580
p5495
aV\u4eba
aV\u611b
aV\u91d1\u9580
p5496
aV\u7acb\u5834
p5497
aV\u597d\u60f3\u7d66
p5498
aV\u91d1\u9580
p5499
aV\u5408\u5531\u5718
p5500
aV\u9f13\u52f5
p5501
aV\u5e7e\u53e5
p5502
aV\u6f14\u5531\u6703
p5503
aV\u7d50\u675f
p5504
aV\u5f8c
aV\u8d70\u51fa
p5505
aV\u6703\u5834
p5506
aV\u7a7f\u63d2\u5728
p5507
aV\u9928\u524d
p5508
aV\u5eca\u9053
p5509
aV\u6b63\u8981
p5510
aV\u56de
aV\u90e8\u968a
p5511
aV\u5927\u6279
p5512
aV\u963f\u5175\u54e5
p5513
aV\u9593
aV\u807d\u5230
p5514
aV\u963f\u5175\u54e5
p5515
aV\u9019\u5834
p5516
aV\u97f3\u6a02\u6703
p5517
aV\u8ca0\u9762
p5518
aV\u8a00\u8a9e
p5519
aV\u807d
aV\u62b9
aV\u6d6a\u8cbb\u6642\u9593
p5520
aV\u96fb\u52d5
p5521
aV\u66f4\u597d
p5522
aV\u8fa3\u59b9
p5523
aV\u5408\u5531
p5524
aV\u4e0a\u982d
p5525
aV\u5f37\u8feb
p5526
aV\u6703\u4f86
p5527
aV\u5fc3
aV\u6b63\u8ca0
p5528
aV\u5169\u9762
p5529
aV\u611f\u89f8\u826f\u591a
p5530
aV\u771f\u7684
p5531
aV\u963f\u5175\u54e5
p5532
aV\u6367\u5834
p5533
aV\u968a\u4f0d
p5534
aV\u4e00\u5927\u7fa4
p5535
aV\u737b\u82b1
p5536
aV\u968a\u4f0d
p5537
aV\u514d
aV\u807d\u773e\u5011
p5538
aV\u6574\u5834
p5539
aV\u8dd1\u4f86\u8dd1\u53bb
p5540
aV\u53e4\u5178
p5541
aV\u5408\u5531\u5718
p5542
aV\u97f3\u6a02\u6703
p5543
aV\u597d\u4e9b
p5544
aV\u5916\u7c4d
p5545
aV\u82f1\u6587
p5546
aV\u8001\u5e2b
p5547
aV\u807d\u773e
p5548
aV\u6f14\u5531\u6703
p5549
aV\u5f8c
aV\u544a\u8a34
p5550
aV\u8aaa
aVit
p5551
aVfunny
p5552
aV\u77e5\u97f3\u96e3\u8993
p5553
aV\u4e09\u5169
p5554
aV\u4f4d
aV\u8db3\u5920
p5555
aV\u9ad8\u8208
p5556
aV\u5531
aV\u91d1\u9580
p5557
aV\u5408\u5531\u5718
p5558
aV\u6f14\u51fa
p5559
aV\u6c34\u6e96
p5560
aV\u6bd4\u4e0d\u4e0a
p5561
aV\u53f0\u5317
p5562
aV\u5ed6\u8475
p5563
aV\u5289\u5fb7\u7fa9
p5564
aV\u8001\u5e2b
p5565
aV\u4e2d\u592e
p5566
aV\u5408\u5531\u5718
p5567
aV\u6234
aV\u91d1\u6cc9
p5568
aV\u8001\u5e2b
p5569
aV\u66fe\u7d93
p5570
aV\u5e36\u904e
p5571
aV\u570b\u5bb6
p5572
aV\u5be6\u9a57
p5573
aV\u5408\u5531\u5718
p5574
aV\u4e5f\u8a31
p5575
aV\u6bd4\u4e0d\u4e0a
p5576
aV\u66fe\u7d93
p5577
aV\u5e36\u9818
p5578
aV\u82b1\u84ee
p5579
aV\u5408\u5531\u5718
p5580
aV\u91d1\u9580
p5581
aV\u5730\u5340
p5582
aV\u4ee5\u5730
p5583
aV\u5c0f\u4eba
p5584
aV\u5c11
aV\u6bd4\u7387
p5585
aV\u5df2\u7d93
p5586
aV\u96e3\u80fd\u53ef\u8cb4
p5587
aV\u6b50\u6d32
p5588
aV\u65e5\u672c
p5589
aV\u7f8e\u570b
p5590
aV\u9999\u6e2f
p5591
aV\u5408\u5531\u5718
p5592
aV\u6c34\u6e96
p5593
aV\u9ad8
aV\u91d1\u9580
p5594
aV\u5408\u5531\u5718
p5595
aV\u771f\u7684
p5596
aV\u52c7\u6562
p5597
aV\u53bb
aV\u5531
aV\u76fc\u671b
p5598
aV\u5c08\u696d\u5316
p5599
aV\u5920
aV\u6c34\u6e96
p5600
aV\u771f\u6b63
p5601
aV\u91d1\u9580
p5602
aV\u570b\u969b
p5603
aV\u821e\u53f0
p5604
aV\u4e0a\u5927\u653e
p5605
aV\u7570\u91c7
p5606
aV\u8cbd\u7b11\u5927\u65b9
p5607
aV\u83ef\u800c\u4e0d\u5be6
p5608
aV\u723d
aV\u597d
aV\u97f3\u6a02\u6703
p5609
aV\u597d
aV\u6f14\u51fa\u8005
p5610
aV\u807d\u773e
p5611
aV\u5c0a\u91cd
p5612
aV\u4e00\u5b9a
p5613
aV\u6e96\u6642
p5614
aV\u958b\u6f14
p5615
aV\u5fc5\u8981
p5616
aV\u7a7f\u63d2
p5617
aV\u81f4\u8a5e
p5618
aV\u89e3\u8aaa
p5619
aV\u53ca\u904e
p5620
aV\u737b\u82b1
p5621
aV\u53ef\u514d
p5622
aV\u807d\u773e
p5623
aV\u76ee\u7684
p5624
aVThe
p5625
aVSong
p5626
aVand
p5627
aVThe
p5628
aVSinger
p5629
aV\u97f3\u6a02
p5630
aV\u6f14\u5531\u6703
p5631
aV\u4e2d\u9593
p5632
aV\u82e5\u6709
p5633
aV\u807d\u773e
p5634
aV\u8d70\u52d5
p5635
aV\u5403
aV\u6771\u897f
p5636
aV\u8ac7\u8a71
p5637
aV\u54b3\u55fd\u8072
p5638
aV\u6c34\u6e96
p5639
aV\u807d\u773e
p5640
aV\u5354\u8abf
p5641
aV\u8d70\u52d5
p5642
aV\u5f0f
aV\u62cd\u7167
p5643
aV\u9583\u5149
p5644
aV\u66f4\u662f
p5645
aV\u6f14\u51fa\u8005
p5646
aV\u807d\u773e
p5647
aV\u6c34\u6e96
p5648
aV\u8981\u6c42
p5649
aV\u4e0d\u53ef
p5650
aV\u5141\u8a31
p5651
aV\u91d1\u9580
p5652
aV\u8981\u6c42
p5653
aV\u6559\u80b2
p5654
aV\u807d\u773e
p5655
aV\u4e00\u4f4d
p5656
aV\u91d1\u9580
p5657
aV\u5408\u5531\u5718
p5658
aV\u54e1
aV\u5531\u8154
p5659
aV\u90fd\u5920
p5660
aV\u6c34\u6e96
p5661
aV\u5e73\u5e38
p5662
aV\u5fd9\u65bc
p5663
aV\u5de5\u4f5c
p5664
aV\u5408\u5531
p5665
aV\u7df4\u7fd2
p5666
aV\u6a5f\u6703
p5667
aV\u9ed8\u5951
p5668
aV\u4e0d\u5920
p5669
aV\u5408\u5531
p5670
aV\u7ae0\u7bc0
p5671
aV\u6436\u62cd
p5672
aV\u6574\u9f4a
p5673
aV\u8072\u97f3
p5674
aV\u4e0d\u5920
p5675
aV\u5354\u8abf
p5676
aV\u5730\u65b9
p5677
aV\u5c24\u5176
p5678
aV\u56de\u61b6
p5679
aV\u9019\u9996
p5680
aV\u82b1\u84ee\u4eba
p5681
aV\u5730\u65b9
p5682
aV\u5e7e\u53e5
p5683
aV\u7e23\u6b4c
p5684
aV\u9019\u9996
p5685
aV\u66f2\u5b50
p5686
aV\u7576\u5e74
p5687
aV\u90ed\u5b50\u7a76
p5688
aV\u8001\u5e2b
p5689
aV\u82b1\u84ee
p5690
aV\u5408\u5531\u5718
p5691
aV\u8981\u6c42
p5692
aV\u53ef\u56b4
p5693
aV\u5973\u9ad8\u97f3
p5694
aV\u5927\u7f8e\u5973
p5695
aV\u5442\u4f69\u7433
p5696
aV\u8001\u5e2b
p5697
aV\u5beb
aV\u8a5e\u6642
p5698
aV\u5fc3\u5883
p5699
aV\u82e6
aV\u90ed
aV\u8001\u5e2b
p5700
aV\u8d70
aV\u5df2
aV\u771f\u50b3
p5701
aV\u6234
aV\u91d1\u6cc9
p5702
aV\u8001\u5e2b
p5703
aV\u9019\u9996
p5704
aV\u66f2\u5b50
p5705
aV\u8a6e\u91cb
p5706
aV\u5fc3\u5f97
p5707
aV\u6539\u5929
p5708
aV\u8208\u8da3
p5709
aV\u9080\u7d04
p5710
aV\u6234
aV\u8001\u5e2b
p5711
aV\u53ca\u9673\u9e97\u9999
p5712
aV\u5e2b\u6bcd
p5713
aV\u8209\u8fa6
p5714
aV\u7368\u5531\u6703
p5715
aV\u5973\u9ad8\u97f3
p5716
aV\u966a
aV\u559d
aV\u5e7e\u676f
p5717
aV\u91d1\u9580
p5718
aV\u9ad8\u7cb1
p5719
aV\u91d1\u9580
p5720
aV\u5408\u5531\u5718
p5721
aV\u5718\u54e1
p5722
aV\u8001\u5316
p5723
aV\u53ef\u4e0d
p5724
aV\u77e5\u9053
p5725
aV\u4e2d\u592e
p5726
aV\u5be6\u9a57
p5727
aV\u9ad8\u96c4
p5728
aV\u6f22\u8072
p5729
aV\u82b1\u84ee
p5730
aV\u5408\u5531\u5718
p5731
aV\u8001\u9762\u5b54
p5732
aV\u5bb3\u5f97
p5733
aV\u56de\u5230
p5734
aV\u53f0\u5317
p5735
aV\u82b1\u84ee
p5736
aV\u9189
aV\u5e7e\u5929
p5737
aV\u8001\u4f86
p5738
aV\u53ef\u559c
p5739
aV\u611f\u60c5
p5740
aV\u5f4c\u8db3\u73cd\u8cb4
p5741
aV\u4fdd\u6709
p5742
aV\u60f3\u7576\u5e74
p5743
aV\u6c34\u6e96
p5744
aV\u8001\u4f86
p5745
aV\u56de\u61b6
p5746
aV\u62db\u6536
p5747
aV\u4e9b
aV\u5e74\u8f15
p5748
aV\u65b0\u4eba
p5749
aV\u91cd\u8981
p5750
aV\u91d1\u9580
p5751
aV\u5408\u5531\u5718
p5752
aV\u9ad8
aV\u6c34\u6e96
p5753
aV\u5531\u8005
p5754
aV\u6307\u5c0e\u8001\u5e2b
p5755
aV\u4f34\u594f
p5756
aV\u7fa4
aV\u7e23\u653f\u5e9c
p5757
aV\u91d1\u63f4
p5758
aV\u8001\u982d
p5759
aV\u5408\u5531
p5760
aV\u611b\u597d\u8005
p5761
aV\u597d\u751f
p5762
aV\u7fa8\u6155
p5763
aV\u91d1\u9580
p5764
aV\u85dd\u6587
p5765
aV\u6d3b\u52d5
p5766
aV\u6c34\u5e73
p5767
aV\u771f\u7684
p5768
aV\u597d
aV\u4e0d\u4fd7
p5769
aV\u66fe
aV\u5730\u7403
p5770
aV\u8d70\u904e
p5771
aV\u597d\u591a
p5772
aV\u5730\u65b9
p5773
aV\u597d
aV\u9ad8\u8208
p5774
aV\u5e74\u8001
p5775
aV\u6642\u9078
p5776
aV\u990a\u8001
p5777
aV\u767c\u63ee
p5778
aV\u5c08\u696d
p5779
aV\u5730\u65b9
p5780
aV\u4f47\u8db3
p5781
aV\u4eab\u53d7
p5782
aV\u597d\u591a\u597d\u591a
p5783
aV\u91d1\u9580
p5784
aV\u7f8e
aV\u5730\u7406
p5785
aV\u4eba\u6587
p5786
aV\u967d\u5149
p5787
aV\u7a7a\u6c23
p5788
aV\u548c\u85f9
p5789
aV\u5c45\u6c11
p5790
aV\u73cd\u8cb4
p5791
aV\u9b5a\u9ce5
p5792
aV\u539f\u751f
p5793
aV\u52d5\u690d\u7269
p5794
aV\u91d1\u9580
p5795
aV\u4eba
aV\u74b0\u4fdd
p5796
aV\u610f\u5ff5
p5797
aV\u518d
aV\u52a0\u5f37
p5798
aV\u798f\u5730
p5799
aV\u798f
aV\u4eba\u5c45
p5800
aV\u91d1\u9580
p5801
aV\u771f\u7684
p5802
aV\u597d
aV\u7f8e\u597d
p5803
aV\u7f8e
aV\u4f5c\u8005
p5804
aV\u6c99\u7f8e
p5805
aV\u958b\u696d
p5806
aV\u91ab\u5e2b
p5807
aV\u66fe\u4efb
p5808
aV\u82b1\u84ee
p5809
aV\u5408\u5531\u5718
p5810
aV\u5718\u9577
p5811
aV\u82b1\u84ee
p5812
aV\u9752\u5c11\u5e74
p5813
aV\u570b\u6a02\u5718
p5814
aV\u5718\u9577
p5815
aV\u82b1\u84ee
p5816
aV\u5510\u5927
p5817
aV\u7ba1\u6a02
p5818
aV\u5718\u5718\u9577
p5819
aV\u6210\u7acb
p5820
aV\u82b1\u84ee
p5821
aV\u97f3\u6a02
p5822
aV\u5354\u9032\u6703
p5823
aV\u63a8\u52d5
p5824
aV\u82b1\u84ee
p5825
aV\u6a02\u6559
p5826
aV\u6d3b\u52d5
p5827
aVwww
p5828
aVkmdn
p5829
aVgov
p5830
aVshow
p5831
aVpub
p5832
aVasp
p5833
aVpub
p5834
aa(lp5835
V\u9084\u597d
p5836
aV\u771f\u7684
p5837
aV\u77e5\u9053
p5838
aV\u6cd5\u91ab
p5839
aV\u9a57\u5c4d
p5840
aV\u60f3\u9a57
p5841
aV\u597d
aV\u9700\u8981
p5842
aV\u4eba\u9ad4
p5843
aV\u719f\u6089
p5844
aV\u55ae\u79d1
p5845
aV\u91ab\u751f
p5846
aV\u5c08\u653b
p5847
aV\u90e8\u4f4d
p5848
aV\u60f3\u4e0d\u5230
p5849
aV\u4e0b
aV\u4e00\u5177
p5850
aV\u6b7b
aV\u5408\u683c
p5851
aV\u897f\u91ab
p5852
aV\u958b\u7acb
p5853
aV\u6b7b\u4ea1
p5854
aV\u8b49\u660e
p5855
aV\u5305\u542b
p5856
aV\u81ea\u7136
p5857
aV\u6b7b\u4ea1
p5858
aV\u610f\u5916
p5859
aV\u6b7b\u4ea1
p5860
aV\u610f\u5916
p5861
aV\u6aa2\u5bdf\u5b98
p5862
aV\u5728\u5834
p5863
aV\u4e2d\u91ab\u5e2b
p5864
aV\u958b\u7acb
p5865
aV\u6b7b\u4ea1
p5866
aV\u8b49\u660e
p5867
aV\u81ea\u7136
p5868
aV\u6b7b\u4ea1
p5869
aV\u4ee5\u524d
p5870
aV\u5c0f\u91d1
p5871
aV\u91ab\u5b98
p5872
aV\u597d\u904b
p5873
aV\u85e5\u5b78\u7cfb
p5874
aV\u7378\u91ab\u7cfb
p5875
aV\u91ab\u5b78\u7cfb
p5876
aV\u6e34\u6c42
p5877
aV\u770b\u4e0d\u8d77
p5878
aV\u7378\u91ab
p5879
aV\u634f
aV\u54fa\u4e73\u985e
p5880
aV\u76f8\u8fd1
p5881
aV\u751f\u7269\u7cfb
p5882
aV\u8b77\u7406\u7cfb
p5883
aV\u76f4\u63a5
p5884
aV\u91ab\u5b98
p5885
aV\u6cd5\u91ab
p5886
aV\u597d
aV\u7576\u521d
p5887
aV\u525b\u5230
p5888
aV\u5c0f\u91d1
p5889
aV\u9ec3
aV\u539d
aV\u91ab\u5b98
p5890
aV\u767c\u71d2
p5891
aV\u8f49\u8a3a
p5892
aV\u53bb
aV\u91d1\u9580
p5893
aV\u91ab\u9662
p5894
aV\u6de6
aV\u53ea\u958b
p5895
aV\u666e\u62ff
p5896
aV\u75bc\u7d66
p5897
aVSCANOL
p5898
aV\u5403
aV\u5230
aV\u770b\u5f97\u61c2
p5899
aV\u71d2\u4e0d\u9000
p5900
aV\u8f49\u8a3a
p5901
aV\u53bb
aV\u5927\u91d1
p5902
aV\u666e\u62ff\u75bc
p5903
aV\u5167\u52d9\u6ac3
p5904
aV\u5230
aV\u5f8c\u671f
p5905
aV\u91d1\u9580
p5906
aV\u91ab\u9662
p5907
aV\u88c2\u5dbc
p5908
aV\u5206\u9662
p5909
aV\u958b\u5f35
p5910
aV\u6bd4\u8f03
p5911
aV\u50cf\u6a23
p5912
aV\u91ab\u751f
p5913
aV\u807d\u8aaa
p5914
aV\u4ee5\u524d
p5915
aV\u534a\u591c
p5916
aV\u6025\u75c7
p5917
aV\u9084\u8981
p5918
aV\u8abf\u8239
p5919
aV\u8abf\u76f4
p5920
aV\u6607
aV\u6a5f
aV\u76f4\u63a5
p5921
aV\u6bba\u5230
p5922
aV\u5927\u91d1
p5923
aV\u56de\u53f0\u7063
p5924
aV\u4ee5\u524d
p5925
aV\u963f\u5175\u54e5
p5926
aV\u534a\u591c
p5927
aV\u639b\u5728
p5928
aV\u5cf6\u4e0a
p5929
aa(lp5930
V\u5230
aV\u73fe\u5728
p5931
aV\u5fc3\u6709\u9918\u60b8
p5932
aV\u60f3\u8d77
p5933
aV\u7576\u6642
p5934
aV\u756b\u9762
p5935
aV\u771f\u7684
p5936
aV\u7e23\u7acb
p5937
aV\u6cf3\u6c60
p5938
aV\u9000\u907f\u4e09\u820d
p5939
aV\u4e00\u5982
p5940
aV\u5f80\u5e38
p5941
aV\u9032\u5165
p5942
aV\u6e38\u6cf3\u6c60
p5943
aV\u88e1
aV\u4eca\u5929
p5944
aV\u6c34\u6eab
p5945
aV\u504f\u4f4e
p5946
aV\u5929\u6c23
p5947
aV\u592a\u71b1
p5948
aV\u53ea
aV\u7279\u5225
p5949
aV\u6dbc\u5feb
p5950
aV\u4eba\u6578
p5951
aV\u4e0d\u591a
p5952
aV\u5feb\u901f
p5953
aV\u6cf3\u9053
p5954
aV\u88e1
aV\u963b\u6514
p5955
aV\u4e4b\u4e0b
p5956
aV\u81ea\u7531
p5957
aV\u6e38\u6cf3
p5958
aV\u4e00\u65c1
p5959
aV\u6d3b\u6f51
p5960
aV\u5b78\u751f
p5961
aV\u5e73\u5e38
p5962
aV\u5435\u9b27
p5963
aV\u9ad4\u80b2\u8001\u5e2b
p5964
aV\u53ec\u96c6
p5965
aV\u60f3\u5b78
p5966
aV\u8df3\u6c34
p5967
aV\u5b78\u751f
p5968
aV\u5230
aV\u53e6\u4e00\u908a
p5969
aV\u6cf3\u6c60
p5970
aV\u4e00\u500b
p5971
aV\u4e00\u500b
p5972
aV\u7df4\u7fd2
p5973
aV\u6709\u8da3
p5974
aV\u5feb\u901f
p5975
aV\u6cf3\u9053
p5976
aV\u52a0\u5165
p5977
aV\u4e00\u4f4d
p5978
aV\u901f\u5ea6
p5979
aV\u5925\u4f34
p5980
aV\u8b58\u76f8
p5981
aV\u8f49\u63db
p5982
aV\u5230
aV\u65c1\u908a
p5983
aV\u6cf3\u9053
p5984
aV\u6b63\u8981
p5985
aV\u6e38\u6642
p5986
aV\u7a81\u7136
p5987
aV\u4e00\u8072
p5988
aV\u5de8\u97ff
p5989
aV\u6d6e\u51fa
p5990
aV\u6c34\u9762
p5991
aV\u8ddd\u96e2
p5992
aV\u56db\u500b
p5993
aV\u6cf3\u9053
p5994
aV\u6cf3\u6c60
p5995
aV\u51fa\u5165\u53e3
p5996
aV\u65c1
aV\u7c89\u672b
p5997
aV\u788e\u7247
p5998
aV\u98db
aV\u91cd\u8981
p5999
aV\u4e00\u4f4d
p6000
aV\u6551\u751f\u54e1
p6001
aV\u5927\u54e5
p6002
aV\u98db\u5165
p6003
aV\u70b8\u5165
p6004
aV\u6cf3\u6c60
p6005
aV\u90a3\u4f4d
p6006
aV\u6551\u751f\u54e1
p6007
aV\u6d6e\u4e0a
p6008
aV\u6cf3\u6c60
p6009
aV\u6642
aV\u5de6\u5074
p6010
aV\u81c9
aV\u6eff\u81c9
p6011
aV\u9bae\u8840
p6012
aV\u7559\u500b
p6013
aV\u4e0d\u505c
p6014
aV\u90a3\u4e00
p6015
aV\u5340\u584a
p6016
aV\u6c34
aV\u67d3\u6210
p6017
aV\u6de1\u7d05\u8272
p6018
aV\u7206\u70b8\u9ede
p6019
aV\u9084\u5728
p6020
aV\u6301\u7e8c
p6021
aV\u5c0f
aV\u7206\u70b8
p6022
aV\u4e00\u9663\u4e00\u9663
p6023
aV\u523a\u9f3b
p6024
aV\u81ed\u5473
p6025
aV\u6240\u6709
p6026
aV\u4eba\u91ba\u51fa
p6027
aV\u6cf3\u6c60
p6028
aV\u5230
aV\u6cf3\u6c60
p6029
aV\u6236\u5916
p6030
aV\u4e0d\u65b7
p6031
aV\u54b3\u55fd
p6032
aV\u6c92\u591a\u4e45
p6033
aV\u6d88\u9632\u8eca
p6034
aV\u4f86\u5230
p6035
aV\u4e00\u500b
p6036
aV\u51fa\u53e3
p6037
aV\u9032
aV\u5230
aV\u66f4\u8863\u5ba4
p6038
aV\u5be6\u5728
p6039
aV\u4e0d\u6562
p6040
aV\u518d
aV\u6cf3\u6c60
p6041
aV\u5468\u570d
p6042
aV\u9017\u7559
p6043
aV\u8d95\u7dca
p6044
aV\u63db\u4e0a
p6045
aV\u8863\u670d
p6046
aV\u5230
aV\u5916\u9762
p6047
aV\u63db\u63db
p6048
aV\u65b0\u9bae\u7a7a\u6c23
p6049
aV\u5a92\u9ad4
p6050
aV\u8a18\u8005
p6051
aV\u8d95\u5230
p6052
aV\u73fe\u5834
p6053
aV\u52d5\u4f5c
p6054
aV\u771f\u5feb
p6055
aV\u807d
aV\u6d88\u9632\u968a\u54e1
p6056
aV\u8aaa
aV\u6c2f\u7c89
p6057
aV\u4f7f\u7528\u4e0d\u7576
p6058
aV\u5c0e\u81f4
p6059
aV\u7206\u70b8
p6060
aV\u9084\u597d
p6061
aV\u5b78\u751f
p6062
aV\u6cf3\u6c60
p6063
aV\u53e6\u4e00\u982d
p6064
aV\u6551\u8b77\u8eca
p6065
aV\u53ea
aV\u9001
aV\u5169\u500b
p6066
aV\u4eba
aV\u4e0b\u6b21
p6067
aV\u4f7f\u7528
p6068
aV\u6c2f\u7c89
p6069
aV\u6e05\u5834
p6070
aV\u4e4b\u5f8c
p6071
aV\u518d\u7051
p6072
aV\u90a3\u4f4d
p6073
aV\u5927\u54e5
p6074
aV\u98db\u5165
p6075
aV\u6cf3\u6c60
p6076
aV\u4e00\u5e55
p6077
aV\u8166\u4e2d
p6078
aV\u91cd\u64ad
p6079
aV\u9810\u8a08
p6080
aV\u4eca\u665a
p6081
aV\u8981\u4f5c
p6082
aV\u60e1\u5922
p6083
aV\u5e0c\u671b
p6084
aV\u5e73\u5b89\u7121\u4e8b
p6085
aVGOD
p6086
aVBLESS
p6087
aVYOU
p6088
aa(lp6089
V\u597d
aV\u77e5\u9053
p6090
aV\u662f\u5426
p6091
aV\u6709\u4eba
p6092
aV\u770b\u898b
p6093
aV\u5169\u5929
p6094
aV\u524d\u4f86
p6095
aV\u91d1\u9580
p6096
aV\u963f\u59e8
p6097
aV\u5bb6
aV\u73a9
aV\u4eca\u665a
p6098
aV\u982d\u75db
p6099
aV\u554f
aV\u963f\u59e8
p6100
aV\u5bb6
aV\u662f\u5426
p6101
aV\u982d\u75db
p6102
aV\u85e5
aV\u963f\u59e8
p6103
aV\u8aaa
aV\u4e0d\u597d\u610f\u601d
p6104
aV\u7e7c\u7e8c
p6105
aV\u8981\u6c42
p6106
aV\u73fe\u5728
p6107
aV\u771f\u7684
p6108
aV\u5f88\u75db
p6109
aV\u60f3
aV\u5fb5\u6c42
p6110
aV\u666e\u62ff\u75bc
p6111
aV\u963f\u59e8
p6112
aV\u5bb6
aV\u5927\u53e4\u5d17
p6113
aV\u5e0c\u671b
p6114
aV\u9644\u8fd1
p6115
aV\u4eba
aV\u8b1d\u8b1d
p6116
aV\u982d
aV\u771f\u7684
p6117
aV\u5f88\u75db
p6118
aV\u77e5\u9053
p6119
aV\u4eba
aa(lp6120
V\u984c
aV\u5e0c\u671b
p6121
aV\u53f0\u7063
p6122
aV\u90a3\u7a2e
p6123
aV\u7c21\u55ae
p6124
aV\u660e\u4eae
p6125
aV\u7a7a\u9593
p6126
aV\u6309\u6469
p6127
aV\u5e97
aV\u4e2d\u91ab
p6128
aV\u8a3a\u6240
p6129
aV\u9838
aV\u80a9
aV\u9178\u75db
p6130
aV\u5f15\u767c
p6131
aV\u982d\u75db
p6132
aV\u597d
aV\u75db\u82e6
p6133
aV\u8b1d\u8b1d
p6134
aaa(lp6135
S'1064956.txt'
p6136
aS'1069694.txt'
p6137
aS'1233362.txt'
p6138
aS'1237087.txt'
p6139
aS'1301733.txt'
p6140
aS'1310733.txt'
p6141
aS'1362678.txt'
p6142
aS'1368906.txt'
p6143
aS'1387710.txt'
p6144
aS'1416631.txt'
p6145
aS'1459478.txt'
p6146
aS'1463624.txt'
p6147
aS'1505897.txt'
p6148
aS'1615978.txt'
p6149
aS'1667696.txt'
p6150
aS'1716544.txt'
p6151
aS'1751800.txt'
p6152
aS'1774859.txt'
p6153
aS'1916752.txt'
p6154
aS'19881.txt'
p6155
aS'297582.txt'
p6156
aS'30551.txt'
p6157
aS'408218.txt'
p6158
aS'5270.txt'
p6159
aS'598914.txt'
p6160
aS'66265.txt'
p6161
aS'74377.txt'
p6162
aS'900467.txt'
p6163
aa.